   1              		.syntax unified
   2              		.cpu cortex-m3
   3              		.fpu softvfp
   4              		.eabi_attribute 20, 1
   5              		.eabi_attribute 21, 1
   6              		.eabi_attribute 23, 3
   7              		.eabi_attribute 24, 1
   8              		.eabi_attribute 25, 1
   9              		.eabi_attribute 26, 1
  10              		.eabi_attribute 30, 2
  11              		.eabi_attribute 18, 4
  12              		.thumb
  13              		.file	"main.c"
  14              		.text
  15              		.align	2
  16              		.global	ext_adc_setup
  17              		.thumb
  18              		.thumb_func
  20              	ext_adc_setup:
  21              		@ args = 0, pretend = 0, frame = 0
  22              		@ frame_needed = 0, uses_anonymous_args = 0
  23              		@ link register save eliminated.
  24 0000 1649     		ldr	r1, .L2
  25 0002 10B4     		push	{r4}
  26 0004 D1F8C440 		ldr	r4, [r1, #196]
  27 0008 154A     		ldr	r2, .L2+4
  28 000a 44F40013 		orr	r3, r4, #2097152
  29 000e C1F8C430 		str	r3, [r1, #196]
  30 0012 D1F8AC41 		ldr	r4, [r1, #428]
  31 0016 1348     		ldr	r0, .L2+8
  32 0018 44F48064 		orr	r4, r4, #1024
  33 001c C1F8AC41 		str	r4, [r1, #428]
  34 0020 D168     		ldr	r1, [r2, #12]
  35 0022 114B     		ldr	r3, .L2+12
  36 0024 41F44F41 		orr	r1, r1, #52992
  37 0028 D160     		str	r1, [r2, #12]
  38 002a D16C     		ldr	r1, [r2, #76]
  39 002c 41F4723C 		orr	ip, r1, #247808
  40 0030 4CF4E061 		orr	r1, ip, #1792
  41 0034 D164     		str	r1, [r2, #76]
  42 0036 0268     		ldr	r2, [r0, #0]
  43 0038 42F0006C 		orr	ip, r2, #134217728
  44 003c 4CF48021 		orr	r1, ip, #262144
  45 0040 0160     		str	r1, [r0, #0]
  46 0042 1868     		ldr	r0, [r3, #0]
  47 0044 40F04F02 		orr	r2, r0, #79
  48 0048 1A60     		str	r2, [r3, #0]
  49 004a 5968     		ldr	r1, [r3, #4]
  50 004c 0222     		movs	r2, #2
  51 004e 41F00200 		orr	r0, r1, #2
  52 0052 5860     		str	r0, [r3, #4]
  53 0054 1A61     		str	r2, [r3, #16]
  54 0056 10BC     		pop	{r4}
  55 0058 7047     		bx	lr
  56              	.L3:
  57 005a 00BF     		.align	2
  58              	.L2:
  59 005c 00C00F40 		.word	1074774016
  60 0060 00C00240 		.word	1073922048
  61 0064 20C00920 		.word	537509920
  62 0068 00800840 		.word	1074298880
  64              		.align	2
  65              		.global	ui_setup
  66              		.thumb
  67              		.thumb_func
  69              	ui_setup:
  70              		@ args = 0, pretend = 0, frame = 0
  71              		@ frame_needed = 0, uses_anonymous_args = 0
  72              		@ link register save eliminated.
  73 006c 104B     		ldr	r3, .L5
  74 006e 10B4     		push	{r4}
  75 0070 1C6C     		ldr	r4, [r3, #64]
  76 0072 1048     		ldr	r0, .L5+4
  77 0074 44F4082C 		orr	ip, r4, #557056
  78 0078 4CF40062 		orr	r2, ip, #2048
  79 007c 1A64     		str	r2, [r3, #64]
  80 007e 0468     		ldr	r4, [r0, #0]
  81 0080 0D49     		ldr	r1, .L5+8
  82 0082 44F42874 		orr	r4, r4, #672
  83 0086 0460     		str	r4, [r0, #0]
  84 0088 0868     		ldr	r0, [r1, #0]
  85 008a 0C4A     		ldr	r2, .L5+12
  86 008c 40F00050 		orr	r0, r0, #536870912
  87 0090 0860     		str	r0, [r1, #0]
  88 0092 596E     		ldr	r1, [r3, #100]
  89 0094 41F00060 		orr	r0, r1, #134217728
  90 0098 5866     		str	r0, [r3, #100]
  91 009a 5169     		ldr	r1, [r2, #20]
  92 009c 084B     		ldr	r3, .L5+16
  93 009e 41F40010 		orr	r0, r1, #2097152
  94 00a2 5061     		str	r0, [r2, #20]
  95 00a4 4FF40012 		mov	r2, #2097152
  96 00a8 1A60     		str	r2, [r3, #0]
  97 00aa 10BC     		pop	{r4}
  98 00ac 7047     		bx	lr
  99              	.L6:
 100 00ae 00BF     		.align	2
 101              	.L5:
 102 00b0 00C00240 		.word	1073922048
 103 00b4 00C00920 		.word	537509888
 104 00b8 80C00920 		.word	537510016
 105 00bc 80800240 		.word	1073905792
 106 00c0 00E100E0 		.word	-536813312
 108              		.align	2
 109              		.global	ui_set
 110              		.thumb
 111              		.thumb_func
 113              	ui_set:
 114              		@ args = 0, pretend = 0, frame = 0
 115              		@ frame_needed = 0, uses_anonymous_args = 0
 116              		@ link register save eliminated.
 117 00c4 0128     		cmp	r0, #1
 118 00c6 10B4     		push	{r4}
 119 00c8 1BD0     		beq	.L17
 120 00ca 1B48     		ldr	r0, .L21
 121 00cc 0129     		cmp	r1, #1
 122 00ce C469     		ldr	r4, [r0, #28]
 123 00d0 44F00054 		orr	r4, r4, #536870912
 124 00d4 C461     		str	r4, [r0, #28]
 125 00d6 1BD0     		beq	.L18
 126              	.L10:
 127 00d8 1849     		ldr	r1, .L21+4
 128 00da 012A     		cmp	r2, #1
 129 00dc C869     		ldr	r0, [r1, #28]
 130 00de 40F02000 		orr	r0, r0, #32
 131 00e2 C861     		str	r0, [r1, #28]
 132 00e4 1BD0     		beq	.L19
 133              	.L12:
 134 00e6 154A     		ldr	r2, .L21+4
 135 00e8 012B     		cmp	r3, #1
 136 00ea D069     		ldr	r0, [r2, #28]
 137 00ec 40F08001 		orr	r1, r0, #128
 138 00f0 D161     		str	r1, [r2, #28]
 139 00f2 1BD0     		beq	.L20
 140              	.L14:
 141 00f4 1149     		ldr	r1, .L21+4
 142 00f6 CB69     		ldr	r3, [r1, #28]
 143 00f8 43F40070 		orr	r0, r3, #512
 144 00fc C861     		str	r0, [r1, #28]
 145              	.L7:
 146 00fe 10BC     		pop	{r4}
 147 0100 7047     		bx	lr
 148              	.L17:
 149 0102 0D48     		ldr	r0, .L21
 150 0104 0129     		cmp	r1, #1
 151 0106 8469     		ldr	r4, [r0, #24]
 152 0108 44F00054 		orr	r4, r4, #536870912
 153 010c 8461     		str	r4, [r0, #24]
 154 010e E3D1     		bne	.L10
 155              	.L18:
 156 0110 0A49     		ldr	r1, .L21+4
 157 0112 012A     		cmp	r2, #1
 158 0114 8869     		ldr	r0, [r1, #24]
 159 0116 40F02000 		orr	r0, r0, #32
 160 011a 8861     		str	r0, [r1, #24]
 161 011c E3D1     		bne	.L12
 162              	.L19:
 163 011e 074A     		ldr	r2, .L21+4
 164 0120 012B     		cmp	r3, #1
 165 0122 9069     		ldr	r0, [r2, #24]
 166 0124 40F08001 		orr	r1, r0, #128
 167 0128 9161     		str	r1, [r2, #24]
 168 012a E3D1     		bne	.L14
 169              	.L20:
 170 012c 034B     		ldr	r3, .L21+4
 171 012e 9A69     		ldr	r2, [r3, #24]
 172 0130 42F40071 		orr	r1, r2, #512
 173 0134 9961     		str	r1, [r3, #24]
 174 0136 E2E7     		b	.L7
 175              	.L22:
 176              		.align	2
 177              	.L21:
 178 0138 80C00920 		.word	537510016
 179 013c 00C00920 		.word	537509888
 181              		.global	__aeabi_fcmplt
 182              		.global	__aeabi_fcmpgt
 183              		.global	__aeabi_fmul
 184              		.global	__aeabi_f2iz
 185              		.align	2
 186              		.global	servo_steer
 187              		.thumb
 188              		.thumb_func
 190              	servo_steer:
 191              		@ args = 0, pretend = 0, frame = 0
 192              		@ frame_needed = 0, uses_anonymous_args = 0
 193 0140 10B5     		push	{r4, lr}
 194 0142 1149     		ldr	r1, .L28
 195 0144 0446     		mov	r4, r0
 196 0146 FFF7FEFF 		bl	__aeabi_fcmplt
 197 014a 10B1     		cbz	r0, .L27
 198 014c 4FF0FF30 		mov	r0, #-1
 199 0150 10BD     		pop	{r4, pc}
 200              	.L27:
 201 0152 2046     		mov	r0, r4
 202 0154 4FF07E51 		mov	r1, #1065353216
 203 0158 FFF7FEFF 		bl	__aeabi_fcmpgt
 204 015c 80B9     		cbnz	r0, .L26
 205 015e 0B49     		ldr	r1, .L28+4
 206 0160 2046     		mov	r0, r4
 207 0162 FFF7FEFF 		bl	__aeabi_fmul
 208 0166 FFF7FEFF 		bl	__aeabi_f2iz
 209 016a 094B     		ldr	r3, .L28+8
 210 016c 00F59050 		add	r0, r0, #4608
 211 0170 2930     		adds	r0, r0, #41
 212 0172 D861     		str	r0, [r3, #28]
 213 0174 196D     		ldr	r1, [r3, #80]
 214 0176 0020     		movs	r0, #0
 215 0178 41F00202 		orr	r2, r1, #2
 216 017c 1A65     		str	r2, [r3, #80]
 217 017e 10BD     		pop	{r4, pc}
 218              	.L26:
 219 0180 4FF0FF30 		mov	r0, #-1
 220 0184 10BD     		pop	{r4, pc}
 221              	.L29:
 222 0186 00BF     		.align	2
 223              	.L28:
 224 0188 000080BF 		.word	-1082130432
 225 018c 0000E242 		.word	1122107392
 226 0190 00800140 		.word	1073840128
 228              		.align	2
 229              		.global	uart0_setup
 230              		.thumb
 231              		.thumb_func
 233              	uart0_setup:
 234              		@ args = 0, pretend = 0, frame = 0
 235              		@ frame_needed = 0, uses_anonymous_args = 0
 236              		@ link register save eliminated.
 237 0194 164B     		ldr	r3, .L31
 238 0196 1748     		ldr	r0, .L31+4
 239 0198 D3F8C420 		ldr	r2, [r3, #196]
 240 019c 42F00801 		orr	r1, r2, #8
 241 01a0 C3F8C410 		str	r1, [r3, #196]
 242 01a4 D3F8A821 		ldr	r2, [r3, #424]
 243 01a8 42F0C001 		orr	r1, r2, #192
 244 01ac C3F8A811 		str	r1, [r3, #424]
 245 01b0 027B     		ldrb	r2, [r0, #12]	@ zero_extendqisi2
 246 01b2 8523     		movs	r3, #133
 247 01b4 42F0830C 		orr	ip, r2, #131
 248 01b8 0421     		movs	r1, #4
 249 01ba 0022     		movs	r2, #0
 250 01bc 80F80CC0 		strb	ip, [r0, #12]
 251 01c0 80F82830 		strb	r3, [r0, #40]
 252 01c4 0170     		strb	r1, [r0, #0]
 253 01c6 0271     		strb	r2, [r0, #4]
 254 01c8 90F80CC0 		ldrb	ip, [r0, #12]	@ zero_extendqisi2
 255 01cc 0A4A     		ldr	r2, .L31+8
 256 01ce 0CF07F03 		and	r3, ip, #127
 257 01d2 0373     		strb	r3, [r0, #12]
 258 01d4 017A     		ldrb	r1, [r0, #8]	@ zero_extendqisi2
 259 01d6 41F0070C 		orr	ip, r1, #7
 260 01da 80F808C0 		strb	ip, [r0, #8]
 261 01de 1368     		ldr	r3, [r2, #0]
 262 01e0 43F05001 		orr	r1, r3, #80
 263 01e4 1160     		str	r1, [r2, #0]
 264 01e6 106C     		ldr	r0, [r2, #64]
 265 01e8 40F0A003 		orr	r3, r0, #160
 266 01ec 1364     		str	r3, [r2, #64]
 267 01ee 7047     		bx	lr
 268              	.L32:
 269              		.align	2
 270              	.L31:
 271 01f0 00C00F40 		.word	1074774016
 272 01f4 00C00040 		.word	1073790976
 273 01f8 00C00240 		.word	1073922048
 275              		.align	2
 276              		.global	uart0_printc
 277              		.thumb
 278              		.thumb_func
 280              	uart0_printc:
 281              		@ args = 0, pretend = 0, frame = 0
 282              		@ frame_needed = 0, uses_anonymous_args = 0
 283              		@ link register save eliminated.
 284 01fc 014B     		ldr	r3, .L34
 285 01fe 1870     		strb	r0, [r3, #0]
 286 0200 7047     		bx	lr
 287              	.L35:
 288 0202 00BF     		.align	2
 289              	.L34:
 290 0204 00C00040 		.word	1073790976
 292              		.align	2
 293              		.global	uart0_string
 294              		.thumb
 295              		.thumb_func
 297              	uart0_string:
 298              		@ args = 0, pretend = 0, frame = 0
 299              		@ frame_needed = 0, uses_anonymous_args = 0
 300              		@ link register save eliminated.
 301 0208 0378     		ldrb	r3, [r0, #0]	@ zero_extendqisi2
 302 020a 2BB1     		cbz	r3, .L36
 303 020c 034A     		ldr	r2, .L40
 304              	.L38:
 305 020e 1370     		strb	r3, [r2, #0]
 306 0210 10F8013F 		ldrb	r3, [r0, #1]!	@ zero_extendqisi2
 307 0214 002B     		cmp	r3, #0
 308 0216 FAD1     		bne	.L38
 309              	.L36:
 310 0218 7047     		bx	lr
 311              	.L41:
 312 021a 00BF     		.align	2
 313              	.L40:
 314 021c 00C00040 		.word	1073790976
 316              		.align	2
 317              		.global	servo_setup
 318              		.thumb
 319              		.thumb_func
 321              	servo_setup:
 322              		@ args = 0, pretend = 0, frame = 0
 323              		@ frame_needed = 0, uses_anonymous_args = 0
 324              		@ link register save eliminated.
 325 0220 114A     		ldr	r2, .L43
 326 0222 1249     		ldr	r1, .L43+4
 327 0224 D2F8C400 		ldr	r0, [r2, #196]
 328 0228 114B     		ldr	r3, .L43+8
 329 022a 40F04000 		orr	r0, r0, #64
 330 022e C2F8C400 		str	r0, [r2, #196]
 331 0232 D2F8A801 		ldr	r0, [r2, #424]
 332 0236 40F44050 		orr	r0, r0, #12288
 333 023a C2F8A801 		str	r0, [r2, #424]
 334 023e 0A69     		ldr	r2, [r1, #16]
 335 0240 42F00100 		orr	r0, r2, #1
 336 0244 0861     		str	r0, [r1, #16]
 337 0246 DA6C     		ldr	r2, [r3, #76]
 338 0248 2820     		movs	r0, #40
 339 024a 42F40071 		orr	r1, r2, #512
 340 024e D964     		str	r1, [r3, #76]
 341 0250 41F28832 		movw	r2, #5000
 342 0254 41F2E411 		movw	r1, #4580
 343 0258 D860     		str	r0, [r3, #12]
 344 025a 9A61     		str	r2, [r3, #24]
 345 025c D961     		str	r1, [r3, #28]
 346 025e 5868     		ldr	r0, [r3, #4]
 347 0260 40F00902 		orr	r2, r0, #9
 348 0264 5A60     		str	r2, [r3, #4]
 349 0266 7047     		bx	lr
 350              	.L44:
 351              		.align	2
 352              	.L43:
 353 0268 00C00F40 		.word	1074774016
 354 026c 00C00240 		.word	1073922048
 355 0270 00800140 		.word	1073840128
 357              		.align	2
 358              		.global	motor_speed
 359              		.thumb
 360              		.thumb_func
 362              	motor_speed:
 363              		@ args = 0, pretend = 0, frame = 0
 364              		@ frame_needed = 0, uses_anonymous_args = 0
 365 0274 70B5     		push	{r4, r5, r6, lr}
 366 0276 0F4C     		ldr	r4, .L50
 367 0278 0021     		movs	r1, #0
 368 027a 636B     		ldr	r3, [r4, #52]
 369 027c 0546     		mov	r5, r0
 370 027e FFF7FEFF 		bl	__aeabi_fcmplt
 371 0282 10B1     		cbz	r0, .L49
 372 0284 4FF0FF30 		mov	r0, #-1
 373 0288 70BD     		pop	{r4, r5, r6, pc}
 374              	.L49:
 375 028a 2846     		mov	r0, r5
 376 028c 4FF07E51 		mov	r1, #1065353216
 377 0290 FFF7FEFF 		bl	__aeabi_fcmpgt
 378 0294 50B9     		cbnz	r0, .L48
 379 0296 0026     		movs	r6, #0
 380 0298 0749     		ldr	r1, .L50+4
 381 029a 2846     		mov	r0, r5
 382 029c 6663     		str	r6, [r4, #52]
 383 029e FFF7FEFF 		bl	__aeabi_fmul
 384 02a2 FFF7FEFF 		bl	__aeabi_f2iz
 385 02a6 A063     		str	r0, [r4, #56]
 386 02a8 3046     		mov	r0, r6
 387 02aa 70BD     		pop	{r4, r5, r6, pc}
 388              	.L48:
 389 02ac 4FF0FF30 		mov	r0, #-1
 390 02b0 70BD     		pop	{r4, r5, r6, pc}
 391              	.L51:
 392 02b2 00BF     		.align	2
 393              	.L50:
 394 02b4 00800B40 		.word	1074495488
 395 02b8 00409C46 		.word	1184645120
 397              		.align	2
 398              		.global	digipot_setup
 399              		.thumb
 400              		.thumb_func
 402              	digipot_setup:
 403              		@ args = 0, pretend = 0, frame = 0
 404              		@ frame_needed = 0, uses_anonymous_args = 0
 405              		@ link register save eliminated.
 406 02bc 1F4A     		ldr	r2, .L53
 407 02be 70B4     		push	{r4, r5, r6}
 408 02c0 D2F8C460 		ldr	r6, [r2, #196]
 409 02c4 1E4B     		ldr	r3, .L53+4
 410 02c6 46F08161 		orr	r1, r6, #67633152
 411 02ca C2F8C410 		str	r1, [r2, #196]
 412 02ce D2F8AC41 		ldr	r4, [r2, #428]
 413 02d2 1C48     		ldr	r0, .L53+8
 414 02d4 44F0C005 		orr	r5, r4, #192
 415 02d8 C2F8AC51 		str	r5, [r2, #428]
 416 02dc D2F8AC61 		ldr	r6, [r2, #428]
 417 02e0 194D     		ldr	r5, .L53+12
 418 02e2 46F44014 		orr	r4, r6, #3145728
 419 02e6 C2F8AC41 		str	r4, [r2, #428]
 420 02ea 1E6C     		ldr	r6, [r3, #64]
 421 02ec 1749     		ldr	r1, .L53+16
 422 02ee 46F00A04 		orr	r4, r6, #10
 423 02f2 1C64     		str	r4, [r3, #64]
 424 02f4 1E6C     		ldr	r6, [r3, #64]
 425 02f6 3C22     		movs	r2, #60
 426 02f8 46F42006 		orr	r6, r6, #10485760
 427 02fc 1E64     		str	r6, [r3, #64]
 428 02fe 9E6E     		ldr	r6, [r3, #104]
 429 0300 4024     		movs	r4, #64
 430 0302 46F00306 		orr	r6, r6, #3
 431 0306 9E66     		str	r6, [r3, #104]
 432 0308 9E6E     		ldr	r6, [r3, #104]
 433 030a 46F44066 		orr	r6, r6, #3072
 434 030e 9E66     		str	r6, [r3, #104]
 435 0310 1E68     		ldr	r6, [r3, #0]
 436 0312 46F00F06 		orr	r6, r6, #15
 437 0316 1E60     		str	r6, [r3, #0]
 438 0318 1E68     		ldr	r6, [r3, #0]
 439 031a 46F42006 		orr	r6, r6, #10485760
 440 031e 1E60     		str	r6, [r3, #0]
 441 0320 4FF40063 		mov	r3, #2048
 442 0324 2B60     		str	r3, [r5, #0]
 443 0326 4FF48053 		mov	r3, #4096
 444 032a 2B60     		str	r3, [r5, #0]
 445 032c 4261     		str	r2, [r0, #20]
 446 032e 0261     		str	r2, [r0, #16]
 447 0330 4A61     		str	r2, [r1, #20]
 448 0332 0A61     		str	r2, [r1, #16]
 449 0334 0460     		str	r4, [r0, #0]
 450 0336 0C60     		str	r4, [r1, #0]
 451 0338 70BC     		pop	{r4, r5, r6}
 452 033a 7047     		bx	lr
 453              	.L54:
 454              		.align	2
 455              	.L53:
 456 033c 00C00F40 		.word	1074774016
 457 0340 00C00240 		.word	1073922048
 458 0344 00C00540 		.word	1074118656
 459 0348 00E100E0 		.word	-536813312
 460 034c 00000A40 		.word	1074397184
 462              		.align	2
 463              		.global	motor_brake
 464              		.thumb
 465              		.thumb_func
 467              	motor_brake:
 468              		@ args = 0, pretend = 0, frame = 0
 469              		@ frame_needed = 0, uses_anonymous_args = 0
 470 0350 70B5     		push	{r4, r5, r6, lr}
 471 0352 0F4C     		ldr	r4, .L60
 472 0354 0021     		movs	r1, #0
 473 0356 A36B     		ldr	r3, [r4, #56]
 474 0358 0546     		mov	r5, r0
 475 035a FFF7FEFF 		bl	__aeabi_fcmplt
 476 035e 10B1     		cbz	r0, .L59
 477 0360 4FF0FF30 		mov	r0, #-1
 478 0364 70BD     		pop	{r4, r5, r6, pc}
 479              	.L59:
 480 0366 2846     		mov	r0, r5
 481 0368 4FF07E51 		mov	r1, #1065353216
 482 036c FFF7FEFF 		bl	__aeabi_fcmpgt
 483 0370 50B9     		cbnz	r0, .L58
 484 0372 0026     		movs	r6, #0
 485 0374 0749     		ldr	r1, .L60+4
 486 0376 2846     		mov	r0, r5
 487 0378 A663     		str	r6, [r4, #56]
 488 037a FFF7FEFF 		bl	__aeabi_fmul
 489 037e FFF7FEFF 		bl	__aeabi_f2iz
 490 0382 6063     		str	r0, [r4, #52]
 491 0384 3046     		mov	r0, r6
 492 0386 70BD     		pop	{r4, r5, r6, pc}
 493              	.L58:
 494 0388 4FF0FF30 		mov	r0, #-1
 495 038c 70BD     		pop	{r4, r5, r6, pc}
 496              	.L61:
 497 038e 00BF     		.align	2
 498              	.L60:
 499 0390 00800B40 		.word	1074495488
 500 0394 00409C46 		.word	1184645120
 502              		.global	__aeabi_i2d
 503              		.global	__aeabi_dmul
 504              		.global	__aeabi_d2uiz
 505              		.align	2
 506              		.global	rgb_set
 507              		.thumb
 508              		.thumb_func
 510              	rgb_set:
 511              		@ args = 0, pretend = 0, frame = 0
 512              		@ frame_needed = 0, uses_anonymous_args = 0
 513 0398 70B5     		push	{r4, r5, r6, lr}
 514 039a 0546     		mov	r5, r0
 515 039c 0846     		mov	r0, r1
 516 039e 1646     		mov	r6, r2
 517 03a0 FFF7FEFF 		bl	__aeabi_i2d
 518 03a4 14A3     		adr	r3, .L63
 519 03a6 D3E90023 		ldrd	r2, [r3]
 520 03aa FFF7FEFF 		bl	__aeabi_dmul
 521 03ae FFF7FEFF 		bl	__aeabi_d2uiz
 522 03b2 134C     		ldr	r4, .L63+8
 523 03b4 0346     		mov	r3, r0
 524 03b6 2362     		str	r3, [r4, #32]
 525 03b8 3046     		mov	r0, r6
 526 03ba FFF7FEFF 		bl	__aeabi_i2d
 527 03be 0EA3     		adr	r3, .L63
 528 03c0 D3E90023 		ldrd	r2, [r3]
 529 03c4 FFF7FEFF 		bl	__aeabi_dmul
 530 03c8 FFF7FEFF 		bl	__aeabi_d2uiz
 531 03cc 0346     		mov	r3, r0
 532 03ce 6362     		str	r3, [r4, #36]
 533 03d0 2846     		mov	r0, r5
 534 03d2 FFF7FEFF 		bl	__aeabi_i2d
 535 03d6 08A3     		adr	r3, .L63
 536 03d8 D3E90023 		ldrd	r2, [r3]
 537 03dc FFF7FEFF 		bl	__aeabi_dmul
 538 03e0 FFF7FEFF 		bl	__aeabi_d2uiz
 539 03e4 2064     		str	r0, [r4, #64]
 540 03e6 236D     		ldr	r3, [r4, #80]
 541 03e8 0020     		movs	r0, #0
 542 03ea 43F01C03 		orr	r3, r3, #28
 543 03ee 2365     		str	r3, [r4, #80]
 544 03f0 70BD     		pop	{r4, r5, r6, pc}
 545              	.L64:
 546 03f2 00BFAFF3 		.align	3
 546      0080
 547              	.L63:
 548 03f8 5C8FC2F5 		.word	-171798692
 549 03fc 289C3340 		.word	1077124136
 550 0400 00800140 		.word	1073840128
 552              		.align	2
 553              		.global	rgb_setup
 554              		.thumb
 555              		.thumb_func
 557              	rgb_setup:
 558              		@ args = 0, pretend = 0, frame = 0
 559              		@ frame_needed = 0, uses_anonymous_args = 0
 560              		@ link register save eliminated.
 561 0404 0E4A     		ldr	r2, .L66
 562 0406 10B4     		push	{r4}
 563 0408 D2F8C440 		ldr	r4, [r2, #196]
 564 040c 0D48     		ldr	r0, .L66+4
 565 040e 44F04001 		orr	r1, r4, #64
 566 0412 C2F8C410 		str	r1, [r2, #196]
 567 0416 D2F8A841 		ldr	r4, [r2, #424]
 568 041a 0B4B     		ldr	r3, .L66+8
 569 041c 44F44054 		orr	r4, r4, #12288
 570 0420 C2F8A841 		str	r4, [r2, #424]
 571 0424 0269     		ldr	r2, [r0, #16]
 572 0426 0021     		movs	r1, #0
 573 0428 42F05402 		orr	r2, r2, #84
 574 042c 0261     		str	r2, [r0, #16]
 575 042e D86C     		ldr	r0, [r3, #76]
 576 0430 40F4E052 		orr	r2, r0, #7168
 577 0434 DA64     		str	r2, [r3, #76]
 578 0436 1964     		str	r1, [r3, #64]
 579 0438 5962     		str	r1, [r3, #36]
 580 043a 1962     		str	r1, [r3, #32]
 581 043c 10BC     		pop	{r4}
 582 043e 7047     		bx	lr
 583              	.L67:
 584              		.align	2
 585              	.L66:
 586 0440 00C00F40 		.word	1074774016
 587 0444 00C00240 		.word	1073922048
 588 0448 00800140 		.word	1073840128
 590              		.align	2
 591              		.global	mux_setup
 592              		.thumb
 593              		.thumb_func
 595              	mux_setup:
 596              		@ args = 0, pretend = 0, frame = 0
 597              		@ frame_needed = 0, uses_anonymous_args = 0
 598              		@ link register save eliminated.
 599 044c 094A     		ldr	r2, .L69
 600 044e 0A4B     		ldr	r3, .L69+4
 601 0450 516C     		ldr	r1, [r2, #68]
 602 0452 41F42820 		orr	r0, r1, #688128
 603 0456 5064     		str	r0, [r2, #68]
 604 0458 1968     		ldr	r1, [r3, #0]
 605 045a 41F09C50 		orr	r0, r1, #327155712
 606 045e 1860     		str	r0, [r3, #0]
 607 0460 DA69     		ldr	r2, [r3, #28]
 608 0462 42F06071 		orr	r1, r2, #58720256
 609 0466 D961     		str	r1, [r3, #28]
 610 0468 9869     		ldr	r0, [r3, #24]
 611 046a 40F08052 		orr	r2, r0, #268435456
 612 046e 9A61     		str	r2, [r3, #24]
 613 0470 7047     		bx	lr
 614              	.L70:
 615 0472 00BF     		.align	2
 616              	.L69:
 617 0474 00C00240 		.word	1073922048
 618 0478 00C00920 		.word	537509888
 620              		.align	2
 621              		.global	mux_set
 622              		.thumb
 623              		.thumb_func
 625              	mux_set:
 626              		@ args = 0, pretend = 0, frame = 0
 627              		@ frame_needed = 0, uses_anonymous_args = 0
 628              		@ link register save eliminated.
 629 047c 0728     		cmp	r0, #7
 630 047e 08D8     		bhi	.L73
 631 0480 C005     		lsls	r0, r0, #23
 632 0482 054B     		ldr	r3, .L74
 633 0484 C143     		mvns	r1, r0
 634 0486 01F06072 		and	r2, r1, #58720256
 635 048a 9861     		str	r0, [r3, #24]
 636 048c 0120     		movs	r0, #1
 637 048e DA61     		str	r2, [r3, #28]
 638 0490 7047     		bx	lr
 639              	.L73:
 640 0492 4FF0FF30 		mov	r0, #-1
 641 0496 7047     		bx	lr
 642              	.L75:
 643              		.align	2
 644              	.L74:
 645 0498 00C00920 		.word	537509888
 647              		.align	2
 648              		.global	motor_setup
 649              		.thumb
 650              		.thumb_func
 652              	motor_setup:
 653              		@ args = 0, pretend = 0, frame = 0
 654              		@ frame_needed = 0, uses_anonymous_args = 0
 655              		@ link register save eliminated.
 656 049c 1C48     		ldr	r0, .L77
 657 049e 30B4     		push	{r4, r5}
 658 04a0 D0F8C450 		ldr	r5, [r0, #196]
 659 04a4 1B4B     		ldr	r3, .L77+4
 660 04a6 45F40032 		orr	r2, r5, #131072
 661 04aa C0F8C420 		str	r2, [r0, #196]
 662 04ae D0F8AC41 		ldr	r4, [r0, #428]
 663 04b2 1949     		ldr	r1, .L77+8
 664 04b4 44F04045 		orr	r5, r4, #-1073741824
 665 04b8 C0F8AC51 		str	r5, [r0, #428]
 666 04bc 1C6C     		ldr	r4, [r3, #64]
 667 04be 174A     		ldr	r2, .L77+12
 668 04c0 44F40075 		orr	r5, r4, #512
 669 04c4 1D64     		str	r5, [r3, #64]
 670 04c6 986E     		ldr	r0, [r3, #104]
 671 04c8 40F01004 		orr	r4, r0, #16
 672 04cc 9C66     		str	r4, [r3, #104]
 673 04ce 5D6C     		ldr	r5, [r3, #68]
 674 04d0 44F62064 		movw	r4, #20000
 675 04d4 45F40010 		orr	r0, r5, #2097152
 676 04d8 5864     		str	r0, [r3, #68]
 677 04da DD6C     		ldr	r5, [r3, #76]
 678 04dc 0020     		movs	r0, #0
 679 04de 45F00275 		orr	r5, r5, #34078720
 680 04e2 DD64     		str	r5, [r3, #76]
 681 04e4 0D68     		ldr	r5, [r1, #0]
 682 04e6 45F04005 		orr	r5, r5, #64
 683 04ea 0D60     		str	r5, [r1, #0]
 684 04ec CD69     		ldr	r5, [r1, #28]
 685 04ee 45F04005 		orr	r5, r5, #64
 686 04f2 CD61     		str	r5, [r1, #28]
 687 04f4 D462     		str	r4, [r2, #44]
 688 04f6 0A49     		ldr	r1, .L77+16
 689 04f8 9063     		str	r0, [r2, #56]
 690 04fa 9462     		str	r4, [r2, #40]
 691 04fc 5063     		str	r0, [r2, #52]
 692 04fe 0948     		ldr	r0, .L77+20
 693 0500 D063     		str	r0, [r2, #60]
 694 0502 5160     		str	r1, [r2, #4]
 695 0504 D868     		ldr	r0, [r3, #12]
 696 0506 40F08272 		orr	r2, r0, #17039360
 697 050a DA60     		str	r2, [r3, #12]
 698 050c 30BC     		pop	{r4, r5}
 699 050e 7047     		bx	lr
 700              	.L78:
 701              		.align	2
 702              	.L77:
 703 0510 00C00F40 		.word	1074774016
 704 0514 00C00240 		.word	1073922048
 705 0518 00C00920 		.word	537509888
 706 051c 00800B40 		.word	1074495488
 707 0520 00050500 		.word	328960
 708 0524 00041000 		.word	1049600
 710              		.align	2
 711              		.global	EINT3_IRQHandler
 712              		.thumb
 713              		.thumb_func
 715              	EINT3_IRQHandler:
 716              		@ args = 0, pretend = 0, frame = 0
 717              		@ frame_needed = 0, uses_anonymous_args = 0
 718              		@ link register save eliminated.
 719 0528 084B     		ldr	r3, .L81
 720 052a 094A     		ldr	r2, .L81+4
 721 052c D868     		ldr	r0, [r3, #12]
 722 052e 40F40011 		orr	r1, r0, #2097152
 723 0532 D960     		str	r1, [r3, #12]
 724 0534 1368     		ldr	r3, [r2, #0]
 725 0536 3BB9     		cbnz	r3, .L79
 726 0538 0649     		ldr	r1, .L81+8
 727 053a 0868     		ldr	r0, [r1, #0]
 728 053c 80F00100 		eor	r0, r0, #1
 729 0540 0860     		str	r0, [r1, #0]
 730 0542 0120     		movs	r0, #1
 731 0544 1060     		str	r0, [r2, #0]
 732 0546 4B60     		str	r3, [r1, #4]
 733              	.L79:
 734 0548 7047     		bx	lr
 735              	.L82:
 736 054a 00BF     		.align	2
 737              	.L81:
 738 054c 80800240 		.word	1073905792
 739 0550 00000000 		.word	.LANCHOR0
 740 0554 00000000 		.word	.LANCHOR1
 742              		.align	2
 743              		.global	set_pot
 744              		.thumb
 745              		.thumb_func
 747              	set_pot:
 748              		@ args = 0, pretend = 0, frame = 0
 749              		@ frame_needed = 0, uses_anonymous_args = 0
 750 0558 10B5     		push	{r4, lr}
 751 055a 0B4C     		ldr	r4, .L89
 752 055c 6060     		str	r0, [r4, #4]
 753 055e 62B9     		cbnz	r2, .L84
 754 0560 A260     		str	r2, [r4, #8]
 755 0562 71B1     		cbz	r1, .L88
 756              	.L86:
 757 0564 5221     		movs	r1, #82
 758 0566 E160     		str	r1, [r4, #12]
 759              	.L87:
 760 0568 0848     		ldr	r0, .L89+4
 761 056a FFF7FEFF 		bl	printf
 762 056e 084B     		ldr	r3, .L89+8
 763 0570 0020     		movs	r0, #0
 764 0572 2022     		movs	r2, #32
 765 0574 2061     		str	r0, [r4, #16]
 766 0576 1A60     		str	r2, [r3, #0]
 767 0578 10BD     		pop	{r4, pc}
 768              	.L84:
 769 057a 1023     		movs	r3, #16
 770 057c A360     		str	r3, [r4, #8]
 771 057e 0029     		cmp	r1, #0
 772 0580 F0D1     		bne	.L86
 773              	.L88:
 774 0582 5020     		movs	r0, #80
 775 0584 E060     		str	r0, [r4, #12]
 776 0586 EFE7     		b	.L87
 777              	.L90:
 778              		.align	2
 779              	.L89:
 780 0588 00000000 		.word	.LANCHOR0
 781 058c 00000000 		.word	.LC0
 782 0590 00000A40 		.word	1074397184
 784              		.global	__aeabi_i2f
 785              		.global	__aeabi_fdiv
 786              		.global	__aeabi_fadd
 787              		.global	__aeabi_f2d
 788              		.global	__aeabi_dcmpgt
 789              		.global	__aeabi_dcmplt
 790              		.global	__aeabi_dsub
 791              		.global	__aeabi_d2f
 792              		.global	__aeabi_dadd
 793              		.global	__aeabi_fsub
 794              		.align	2
 795              		.global	main
 796              		.thumb
 797              		.thumb_func
 799              	main:
 800              		@ args = 0, pretend = 0, frame = 856
 801              		@ frame_needed = 0, uses_anonymous_args = 0
 802 0594 2DE9F04F 		push	{r4, r5, r6, r7, r8, r9, sl, fp, lr}
 803 0598 5549     		ldr	r1, .L168
 804 059a 564C     		ldr	r4, .L168+4
 805 059c 7020     		movs	r0, #112
 806 059e ADF5577D 		sub	sp, sp, #860
 807 05a2 0C60     		str	r4, [r1, #0]
 808 05a4 41F8200C 		str	r0, [r1, #-32]
 809 05a8 FFF7FEFF 		bl	rgb_setup
 810 05ac 0020     		movs	r0, #0
 811 05ae FF21     		movs	r1, #255
 812 05b0 0246     		mov	r2, r0
 813 05b2 FFF7FEFF 		bl	rgb_set
 814 05b6 0023     		movs	r3, #0
 815 05b8 0022     		movs	r2, #0
 816 05ba D593     		str	r3, [sp, #852]	@ float
 817 05bc D493     		str	r3, [sp, #848]	@ float
 818 05be D392     		str	r2, [sp, #844]
 819 05c0 D293     		str	r3, [sp, #840]	@ float
 820 05c2 D193     		str	r3, [sp, #836]	@ float
 821 05c4 D093     		str	r3, [sp, #832]	@ float
 822 05c6 FFF7FEFF 		bl	motor_setup
 823 05ca FFF7FEFF 		bl	mux_setup
 824 05ce FFF7FEFF 		bl	ui_setup
 825 05d2 FFF7FEFF 		bl	uart0_setup
 826 05d6 484B     		ldr	r3, .L168+8
 827 05d8 484A     		ldr	r2, .L168+12
 828              	.L92:
 829 05da 13F8014F 		ldrb	r4, [r3, #1]!	@ zero_extendqisi2
 830 05de 0CB1     		cbz	r4, .L166
 831 05e0 1470     		strb	r4, [r2, #0]
 832 05e2 FAE7     		b	.L92
 833              	.L166:
 834 05e4 FFF7FEFF 		bl	servo_setup
 835 05e8 6420     		movs	r0, #100
 836 05ea FFF7FEFF 		bl	delay_ms
 837 05ee 2146     		mov	r1, r4
 838 05f0 2246     		mov	r2, r4
 839 05f2 2346     		mov	r3, r4
 840 05f4 0120     		movs	r0, #1
 841 05f6 FFF7FEFF 		bl	ui_set
 842 05fa 6420     		movs	r0, #100
 843 05fc FFF7FEFF 		bl	delay_ms
 844 0600 0120     		movs	r0, #1
 845 0602 0146     		mov	r1, r0
 846 0604 2246     		mov	r2, r4
 847 0606 2346     		mov	r3, r4
 848 0608 FFF7FEFF 		bl	ui_set
 849 060c 6420     		movs	r0, #100
 850 060e FFF7FEFF 		bl	delay_ms
 851 0612 0120     		movs	r0, #1
 852 0614 0146     		mov	r1, r0
 853 0616 0246     		mov	r2, r0
 854 0618 2346     		mov	r3, r4
 855 061a FFF7FEFF 		bl	ui_set
 856 061e 6420     		movs	r0, #100
 857 0620 FFF7FEFF 		bl	delay_ms
 858 0624 0120     		movs	r0, #1
 859 0626 0146     		mov	r1, r0
 860 0628 0246     		mov	r2, r0
 861 062a 0346     		mov	r3, r0
 862 062c FFF7FEFF 		bl	ui_set
 863 0630 6420     		movs	r0, #100
 864 0632 FFF7FEFF 		bl	delay_ms
 865 0636 2346     		mov	r3, r4
 866 0638 2146     		mov	r1, r4
 867 063a 2246     		mov	r2, r4
 868 063c 2046     		mov	r0, r4
 869 063e FFF7FEFF 		bl	ui_set
 870 0642 4FF07E50 		mov	r0, #1065353216
 871 0646 FFF7FEFF 		bl	servo_steer
 872 064a 0020     		movs	r0, #0
 873 064c FFF7FEFF 		bl	servo_steer
 874 0650 2B48     		ldr	r0, .L168+16
 875 0652 FFF7FEFF 		bl	servo_steer
 876 0656 FFF7FEFF 		bl	ext_adc_setup
 877 065a FF20     		movs	r0, #255
 878 065c 2246     		mov	r2, r4
 879 065e 0146     		mov	r1, r0
 880 0660 284E     		ldr	r6, .L168+20
 881 0662 FFF7FEFF 		bl	rgb_set
 882 0666 4FF04075 		mov	r5, #50331648
 883 066a 0020     		movs	r0, #0
 884 066c 4FF40007 		mov	r7, #8388608
 885 0670 FFF7FEFF 		bl	servo_steer
 886 0674 FFF7FEFF 		bl	digipot_setup
 887 0678 2146     		mov	r1, r4
 888 067a 2246     		mov	r2, r4
 889 067c 9620     		movs	r0, #150
 890 067e B761     		str	r7, [r6, #24]
 891 0680 F561     		str	r5, [r6, #28]
 892 0682 FFF7FEFF 		bl	set_pot
 893 0686 0520     		movs	r0, #5
 894 0688 FFF7FEFF 		bl	delay_ms
 895 068c 2146     		mov	r1, r4
 896 068e 0122     		movs	r2, #1
 897 0690 4B20     		movs	r0, #75
 898 0692 FFF7FEFF 		bl	set_pot
 899 0696 0520     		movs	r0, #5
 900 0698 FFF7FEFF 		bl	delay_ms
 901 069c 2246     		mov	r2, r4
 902 069e 0121     		movs	r1, #1
 903 06a0 6420     		movs	r0, #100
 904 06a2 FFF7FEFF 		bl	set_pot
 905 06a6 0520     		movs	r0, #5
 906 06a8 FFF7FEFF 		bl	delay_ms
 907 06ac 0121     		movs	r1, #1
 908 06ae 5020     		movs	r0, #80
 909 06b0 0A46     		mov	r2, r1
 910 06b2 FFF7FEFF 		bl	set_pot
 911 06b6 A246     		mov	sl, r4
 912 06b8 2546     		mov	r5, r4
 913 06ba DFF85080 		ldr	r8, .L168+28
 914 06be 124C     		ldr	r4, .L168+24
 915              	.L163:
 916 06c0 D8F80460 		ldr	r6, [r8, #4]
 917 06c4 26B3     		cbz	r6, .L167
 918 06c6 6369     		ldr	r3, [r4, #20]
 919 06c8 13F0805F 		tst	r3, #268435456
 920 06cc 00F0B681 		beq	.L95
 921 06d0 FF20     		movs	r0, #255
 922 06d2 0146     		mov	r1, r0
 923 06d4 0022     		movs	r2, #0
 924 06d6 FFF7FEFF 		bl	rgb_set
 925 06da 002D     		cmp	r5, #0
 926 06dc 40F0AC81 		bne	.L165
 927 06e0 0AF1010A 		add	sl, sl, #1
 928 06e4 BAF10F0F 		cmp	sl, #15
 929 06e8 00F3A581 		bgt	.L148
 930 06ec 0135     		adds	r5, r5, #1
 931 06ee E7E7     		b	.L163
 932              	.L169:
 933              		.align	2
 934              	.L168:
 935 06f0 20C00920 		.word	537509920
 936 06f4 00000408 		.word	134479872
 937 06f8 FFFFFFFF 		.word	.LC1-1
 938 06fc 00C00040 		.word	1073790976
 939 0700 5C8F023F 		.word	1057132380
 940 0704 00C00920 		.word	537509888
 941 0708 80C00920 		.word	537510016
 942 070c 00000000 		.word	.LANCHOR1
 943              	.L167:
 944 0710 3146     		mov	r1, r6
 945 0712 3246     		mov	r2, r6
 946 0714 FF20     		movs	r0, #255
 947 0716 FFF7FEFF 		bl	rgb_set
 948 071a B14B     		ldr	r3, .L170+56
 949 071c 3146     		mov	r1, r6
 950 071e 3222     		movs	r2, #50
 951 0720 3446     		mov	r4, r6
 952 0722 1846     		mov	r0, r3
 953              	.L102:
 954 0724 9C60     		str	r4, [r3, #8]
 955              	.L101:
 956 0726 DE68     		ldr	r6, [r3, #12]
 957 0728 06F0140E 		and	lr, r6, #20
 958 072c BEF1040F 		cmp	lr, #4
 959 0730 F9D1     		bne	.L101
 960 0732 8568     		ldr	r5, [r0, #8]
 961 0734 01EB9501 		add	r1, r1, r5, lsr #2
 962 0738 4908     		lsrs	r1, r1, #1
 963 073a 013A     		subs	r2, r2, #1
 964 073c F2D1     		bne	.L102
 965 073e A948     		ldr	r0, .L170+60
 966 0740 FFF7FEFF 		bl	printf
 967 0744 A64C     		ldr	r4, .L170+56
 968 0746 A84B     		ldr	r3, .L170+64
 969 0748 4FF02072 		mov	r2, #41943040
 970 074c 4FF08070 		mov	r0, #16777216
 971 0750 A64F     		ldr	r7, .L170+68
 972 0752 9A61     		str	r2, [r3, #24]
 973 0754 4FF00509 		mov	r9, #5
 974 0758 D861     		str	r0, [r3, #28]
 975 075a 05AD     		add	r5, sp, #20
 976 075c 2646     		mov	r6, r4
 977              	.L162:
 978 075e 397D     		ldrb	r1, [r7, #20]	@ zero_extendqisi2
 979 0760 29B1     		cbz	r1, .L104
 980 0762 97F800B0 		ldrb	fp, [r7, #0]	@ zero_extendqisi2
 981 0766 BBF1730F 		cmp	fp, #115
 982 076a 00F0B181 		beq	.L105
 983              	.L104:
 984 076e 0022     		movs	r2, #0
 985 0770 1146     		mov	r1, r2
 986              	.L106:
 987 0772 A160     		str	r1, [r4, #8]
 988              	.L112:
 989 0774 E368     		ldr	r3, [r4, #12]
 990 0776 03F0140E 		and	lr, r3, #20
 991 077a BEF1040F 		cmp	lr, #4
 992 077e F9D1     		bne	.L112
 993 0780 B368     		ldr	r3, [r6, #8]
 994 0782 9808     		lsrs	r0, r3, #2
 995 0784 45F82200 		str	r0, [r5, r2, lsl #2]
 996 0788 0132     		adds	r2, r2, #1
 997 078a 0F2A     		cmp	r2, #15
 998 078c F1D1     		bne	.L106
 999 078e 2B68     		ldr	r3, [r5, #0]
 1000 0790 002B     		cmp	r3, #0
 1001 0792 C8BF     		it	gt
 1002 0794 2B68     		ldrgt	r3, [r5, #0]
 1003 0796 6968     		ldr	r1, [r5, #4]
 1004 0798 D8BF     		it	le
 1005 079a 0023     		movle	r3, #0
 1006 079c 8B42     		cmp	r3, r1
 1007 079e B8BF     		it	lt
 1008 07a0 6B68     		ldrlt	r3, [r5, #4]
 1009 07a2 AA68     		ldr	r2, [r5, #8]
 1010 07a4 9342     		cmp	r3, r2
 1011 07a6 B8BF     		it	lt
 1012 07a8 AB68     		ldrlt	r3, [r5, #8]
 1013 07aa E868     		ldr	r0, [r5, #12]
 1014 07ac 8342     		cmp	r3, r0
 1015 07ae B8BF     		it	lt
 1016 07b0 EB68     		ldrlt	r3, [r5, #12]
 1017 07b2 2969     		ldr	r1, [r5, #16]
 1018 07b4 8B42     		cmp	r3, r1
 1019 07b6 B8BF     		it	lt
 1020 07b8 2B69     		ldrlt	r3, [r5, #16]
 1021 07ba 6A69     		ldr	r2, [r5, #20]
 1022 07bc 9342     		cmp	r3, r2
 1023 07be B8BF     		it	lt
 1024 07c0 6B69     		ldrlt	r3, [r5, #20]
 1025 07c2 A869     		ldr	r0, [r5, #24]
 1026 07c4 8342     		cmp	r3, r0
 1027 07c6 B8BF     		it	lt
 1028 07c8 AB69     		ldrlt	r3, [r5, #24]
 1029 07ca E969     		ldr	r1, [r5, #28]
 1030 07cc 8B42     		cmp	r3, r1
 1031 07ce B8BF     		it	lt
 1032 07d0 EB69     		ldrlt	r3, [r5, #28]
 1033 07d2 2A6A     		ldr	r2, [r5, #32]
 1034 07d4 9342     		cmp	r3, r2
 1035 07d6 B8BF     		it	lt
 1036 07d8 2B6A     		ldrlt	r3, [r5, #32]
 1037 07da 686A     		ldr	r0, [r5, #36]
 1038 07dc 8342     		cmp	r3, r0
 1039 07de B8BF     		it	lt
 1040 07e0 6B6A     		ldrlt	r3, [r5, #36]
 1041 07e2 A96A     		ldr	r1, [r5, #40]
 1042 07e4 8B42     		cmp	r3, r1
 1043 07e6 B8BF     		it	lt
 1044 07e8 AB6A     		ldrlt	r3, [r5, #40]
 1045 07ea EA6A     		ldr	r2, [r5, #44]
 1046 07ec 9342     		cmp	r3, r2
 1047 07ee B8BF     		it	lt
 1048 07f0 EB6A     		ldrlt	r3, [r5, #44]
 1049 07f2 286B     		ldr	r0, [r5, #48]
 1050 07f4 8342     		cmp	r3, r0
 1051 07f6 B8BF     		it	lt
 1052 07f8 2B6B     		ldrlt	r3, [r5, #48]
 1053 07fa 696B     		ldr	r1, [r5, #52]
 1054 07fc 8B42     		cmp	r3, r1
 1055 07fe B8BF     		it	lt
 1056 0800 6B6B     		ldrlt	r3, [r5, #52]
 1057 0802 AA6B     		ldr	r2, [r5, #56]
 1058 0804 9A42     		cmp	r2, r3
 1059 0806 C8BF     		it	gt
 1060 0808 AB6B     		ldrgt	r3, [r5, #56]
 1061 080a B9F1060F 		cmp	r9, #6
 1062 080e 00F05B81 		beq	.L130
 1063 0812 B9F1070F 		cmp	r9, #7
 1064 0816 00F05081 		beq	.L131
 1065 081a B9F1050F 		cmp	r9, #5
 1066 081e 02D1     		bne	.L146
 1067 0820 CF93     		str	r3, [sp, #828]
 1068 0822 4FF00709 		mov	r9, #7
 1069              	.L146:
 1070 0826 4FEAC952 		lsl	r2, r9, #23
 1071 082a 6F4B     		ldr	r3, .L170+64
 1072 082c D143     		mvns	r1, r2
 1073 082e 01F06070 		and	r0, r1, #58720256
 1074 0832 9A61     		str	r2, [r3, #24]
 1075 0834 D861     		str	r0, [r3, #28]
 1076 0836 CE9A     		ldr	r2, [sp, #824]
 1077 0838 CF99     		ldr	r1, [sp, #828]
 1078 083a 4FF0010B 		mov	fp, #1
 1079 083e 501A     		subs	r0, r2, r1
 1080 0840 D390     		str	r0, [sp, #844]
 1081 0842 D398     		ldr	r0, [sp, #844]
 1082 0844 FFF7FEFF 		bl	__aeabi_i2f
 1083 0848 6949     		ldr	r1, .L170+72
 1084 084a FFF7FEFF 		bl	__aeabi_fdiv
 1085 084e D290     		str	r0, [sp, #840]	@ float
 1086 0850 D29B     		ldr	r3, [sp, #840]	@ float
 1087 0852 4FF03F41 		mov	r1, #-1090519040
 1088 0856 D298     		ldr	r0, [sp, #840]	@ float
 1089 0858 0193     		str	r3, [sp, #4]
 1090 085a FFF7FEFF 		bl	__aeabi_fcmplt
 1091 085e 019B     		ldr	r3, [sp, #4]
 1092 0860 08B9     		cbnz	r0, .L135
 1093 0862 4FF0000B 		mov	fp, #0
 1094              	.L135:
 1095 0866 1BF0FF0F 		tst	fp, #255
 1096 086a 11D0     		beq	.L134
 1097 086c 1846     		mov	r0, r3
 1098 086e 4FF07C51 		mov	r1, #1056964608
 1099 0872 4FF0010B 		mov	fp, #1
 1100 0876 FFF7FEFF 		bl	__aeabi_fcmpgt
 1101 087a 08B9     		cbnz	r0, .L136
 1102 087c 4FF0000B 		mov	fp, #0
 1103              	.L136:
 1104 0880 1BF0FF0F 		tst	fp, #255
 1105 0884 04D0     		beq	.L134
 1106 0886 D198     		ldr	r0, [sp, #836]	@ float
 1107 0888 D299     		ldr	r1, [sp, #840]	@ float
 1108 088a FFF7FEFF 		bl	__aeabi_fadd
 1109 088e D190     		str	r0, [sp, #836]	@ float
 1110              	.L134:
 1111 0890 DDF848B3 		ldr	fp, [sp, #840]	@ float
 1112 0894 D298     		ldr	r0, [sp, #840]	@ float
 1113 0896 CDF808B0 		str	fp, [sp, #8]	@ float
 1114 089a FFF7FEFF 		bl	__aeabi_f2d
 1115 089e 42A3     		adr	r3, .L170
 1116 08a0 D3E90023 		ldrd	r2, [r3]
 1117 08a4 4FF0010B 		mov	fp, #1
 1118 08a8 FFF7FEFF 		bl	__aeabi_dcmpgt
 1119 08ac 00B9     		cbnz	r0, .L138
 1120 08ae 8346     		mov	fp, r0
 1121              	.L138:
 1122 08b0 1BF0FF0F 		tst	fp, #255
 1123 08b4 00F0EE80 		beq	.L137
 1124 08b8 0298     		ldr	r0, [sp, #8]	@ float
 1125 08ba FFF7FEFF 		bl	__aeabi_f2d
 1126 08be 3CA3     		adr	r3, .L170+8
 1127 08c0 D3E90023 		ldrd	r2, [r3]
 1128 08c4 FFF7FEFF 		bl	__aeabi_dcmplt
 1129 08c8 0123     		movs	r3, #1
 1130 08ca 00B9     		cbnz	r0, .L139
 1131 08cc 0346     		mov	r3, r0
 1132              	.L139:
 1133 08ce 13F0FF0F 		tst	r3, #255
 1134 08d2 00F0DF80 		beq	.L137
 1135 08d6 0020     		movs	r0, #0
 1136 08d8 D190     		str	r0, [sp, #836]	@ float
 1137              	.L140:
 1138 08da CD9A     		ldr	r2, [sp, #820]
 1139 08dc 40F6C41C 		movw	ip, #2500
 1140 08e0 6245     		cmp	r2, ip
 1141 08e2 0ADD     		ble	.L143
 1142 08e4 D098     		ldr	r0, [sp, #832]	@ float
 1143 08e6 FFF7FEFF 		bl	__aeabi_f2d
 1144 08ea 33A3     		adr	r3, .L170+16
 1145 08ec D3E90023 		ldrd	r2, [r3]
 1146 08f0 FFF7FEFF 		bl	__aeabi_dadd
 1147 08f4 FFF7FEFF 		bl	__aeabi_d2f
 1148 08f8 D090     		str	r0, [sp, #832]	@ float
 1149              	.L143:
 1150 08fa BAF1010F 		cmp	sl, #1
 1151 08fe 2ADD     		ble	.L144
 1152 0900 5046     		mov	r0, sl
 1153 0902 FFF7FEFF 		bl	__aeabi_i2f
 1154 0906 FFF7FEFF 		bl	__aeabi_f2d
 1155 090a 2DA3     		adr	r3, .L170+24
 1156 090c D3E90023 		ldrd	r2, [r3]
 1157 0910 FFF7FEFF 		bl	__aeabi_dmul
 1158 0914 2CA3     		adr	r3, .L170+32
 1159 0916 D3E90023 		ldrd	r2, [r3]
 1160 091a FFF7FEFF 		bl	__aeabi_dadd
 1161 091e FFF7FEFF 		bl	__aeabi_d2f
 1162 0922 DFF8D4B0 		ldr	fp, .L170+80
 1163 0926 0021     		movs	r1, #0
 1164 0928 DBF83430 		ldr	r3, [fp, #52]
 1165 092c 0290     		str	r0, [sp, #8]	@ float
 1166 092e FFF7FEFF 		bl	__aeabi_fcmplt
 1167 0932 80B9     		cbnz	r0, .L144
 1168 0934 0298     		ldr	r0, [sp, #8]	@ float
 1169 0936 4FF07E51 		mov	r1, #1065353216
 1170 093a FFF7FEFF 		bl	__aeabi_fcmpgt
 1171 093e 50B9     		cbnz	r0, .L144
 1172 0940 0023     		movs	r3, #0
 1173 0942 0298     		ldr	r0, [sp, #8]	@ float
 1174 0944 2B49     		ldr	r1, .L170+76
 1175 0946 CBF83430 		str	r3, [fp, #52]
 1176 094a FFF7FEFF 		bl	__aeabi_fmul
 1177 094e FFF7FEFF 		bl	__aeabi_f2iz
 1178 0952 CBF83800 		str	r0, [fp, #56]
 1179              	.L144:
 1180 0956 D298     		ldr	r0, [sp, #840]	@ float
 1181 0958 D499     		ldr	r1, [sp, #848]	@ float
 1182 095a FFF7FEFF 		bl	__aeabi_fsub
 1183 095e 4FF07C51 		mov	r1, #1056964608
 1184 0962 FFF7FEFF 		bl	__aeabi_fmul
 1185 0966 D590     		str	r0, [sp, #852]	@ float
 1186 0968 CD99     		ldr	r1, [sp, #820]
 1187 096a 40F6C41B 		movw	fp, #2500
 1188 096e 5945     		cmp	r1, fp
 1189 0970 7FF7F5AE 		ble	.L162
 1190 0974 D298     		ldr	r0, [sp, #840]	@ float
 1191 0976 FFF7FEFF 		bl	__aeabi_f2d
 1192 097a 15A3     		adr	r3, .L170+40
 1193 097c D3E90023 		ldrd	r2, [r3]
 1194 0980 FFF7FEFF 		bl	__aeabi_dmul
 1195 0984 DDF854B3 		ldr	fp, [sp, #852]	@ float
 1196 0988 CDE90201 		strd	r0, [sp, #8]
 1197 098c 5846     		mov	r0, fp
 1198 098e FFF7FEFF 		bl	__aeabi_f2d
 1199 0992 11A3     		adr	r3, .L170+48
 1200 0994 D3E90023 		ldrd	r2, [r3]
 1201 0998 FFF7FEFF 		bl	__aeabi_dmul
 1202 099c 0246     		mov	r2, r0
 1203 099e 0B46     		mov	r3, r1
 1204 09a0 2CE0     		b	.L171
 1205              	.L172:
 1206 09a2 00BFAFF3 		.align	3
 1206      0080
 1207              	.L170:
 1208 09a8 9A999999 		.word	-1717986918
 1209 09ac 9999B9BF 		.word	-1078355559
 1210 09b0 9A999999 		.word	-1717986918
 1211 09b4 9999B93F 		.word	1069128089
 1212 09b8 F168E388 		.word	-1998362383
 1213 09bc B5F8E43E 		.word	1055193269
 1214 09c0 7B14AE47 		.word	1202590843
 1215 09c4 E17A843F 		.word	1065646817
 1216 09c8 9A999999 		.word	-1717986918
 1217 09cc 9999A93F 		.word	1068079513
 1218 09d0 66666666 		.word	1717986918
 1219 09d4 66660640 		.word	1074161254
 1220 09d8 9A999999 		.word	-1717986918
 1221 09dc 9999E13F 		.word	1071749529
 1222 09e0 00800840 		.word	1074298880
 1223 09e4 28000000 		.word	.LC2
 1224 09e8 00C00920 		.word	537509888
 1225 09ec 00C00040 		.word	1073790976
 1226 09f0 0000FA44 		.word	1157234688
 1227 09f4 00409C46 		.word	1184645120
 1228 09f8 00800B40 		.word	1074495488
 1229              	.L171:
 1230 09fc DDE90201 		ldrd	r0, [sp, #8]
 1231 0a00 FFF7FEFF 		bl	__aeabi_dadd
 1232 0a04 DDF844B3 		ldr	fp, [sp, #836]	@ float
 1233 0a08 CDE90201 		strd	r0, [sp, #8]
 1234 0a0c 5846     		mov	r0, fp
 1235 0a0e FFF7FEFF 		bl	__aeabi_f2d
 1236 0a12 47A3     		adr	r3, .L173
 1237 0a14 D3E90023 		ldrd	r2, [r3]
 1238 0a18 FFF7FEFF 		bl	__aeabi_dmul
 1239 0a1c 0B46     		mov	r3, r1
 1240 0a1e 0246     		mov	r2, r0
 1241 0a20 DDE90201 		ldrd	r0, [sp, #8]
 1242 0a24 FFF7FEFF 		bl	__aeabi_dadd
 1243 0a28 FFF7FEFF 		bl	__aeabi_d2f
 1244 0a2c FFF7FEFF 		bl	servo_steer
 1245 0a30 D29B     		ldr	r3, [sp, #840]	@ float
 1246 0a32 D493     		str	r3, [sp, #848]	@ float
 1247 0a34 93E6     		b	.L162
 1248              	.L148:
 1249 0a36 AA46     		mov	sl, r5
 1250              	.L165:
 1251 0a38 0125     		movs	r5, #1
 1252 0a3a 41E6     		b	.L163
 1253              	.L95:
 1254 0a3c 404A     		ldr	r2, .L173+16
 1255 0a3e 4FEA6A09 		asr	r9, sl, #1
 1256 0a42 09EA0201 		and	r1, r9, r2
 1257 0a46 0029     		cmp	r1, #0
 1258 0a48 0AF00100 		and	r0, sl, #1
 1259 0a4c 03DA     		bge	.L97
 1260 0a4e 4E1E     		subs	r6, r1, #1
 1261 0a50 66F00101 		orn	r1, r6, #1
 1262 0a54 0131     		adds	r1, r1, #1
 1263              	.L97:
 1264 0a56 3A4D     		ldr	r5, .L173+16
 1265 0a58 4FEAAA0B 		asr	fp, sl, #2
 1266 0a5c 0BEA0502 		and	r2, fp, r5
 1267 0a60 002A     		cmp	r2, #0
 1268 0a62 03DA     		bge	.L98
 1269 0a64 531E     		subs	r3, r2, #1
 1270 0a66 63F00107 		orn	r7, r3, #1
 1271 0a6a 7A1C     		adds	r2, r7, #1
 1272              	.L98:
 1273 0a6c 344E     		ldr	r6, .L173+16
 1274 0a6e 4FEAEA0C 		asr	ip, sl, #3
 1275 0a72 0CEA0603 		and	r3, ip, r6
 1276 0a76 002B     		cmp	r3, #0
 1277 0a78 03DA     		bge	.L99
 1278 0a7a 5F1E     		subs	r7, r3, #1
 1279 0a7c 67F00105 		orn	r5, r7, #1
 1280 0a80 6B1C     		adds	r3, r5, #1
 1281              	.L99:
 1282 0a82 FFF7FEFF 		bl	ui_set
 1283 0a86 0020     		movs	r0, #0
 1284 0a88 0146     		mov	r1, r0
 1285 0a8a FF22     		movs	r2, #255
 1286 0a8c FFF7FEFF 		bl	rgb_set
 1287 0a90 0025     		movs	r5, #0
 1288 0a92 15E6     		b	.L163
 1289              	.L137:
 1290 0a94 4FF0000B 		mov	fp, #0
 1291 0a98 D098     		ldr	r0, [sp, #832]	@ float
 1292 0a9a 5946     		mov	r1, fp
 1293 0a9c FFF7FEFF 		bl	__aeabi_fcmpgt
 1294 0aa0 78B1     		cbz	r0, .L164
 1295 0aa2 D098     		ldr	r0, [sp, #832]	@ float
 1296 0aa4 FFF7FEFF 		bl	__aeabi_f2d
 1297 0aa8 23A3     		adr	r3, .L173+8
 1298 0aaa D3E90023 		ldrd	r2, [r3]
 1299 0aae FFF7FEFF 		bl	__aeabi_dsub
 1300 0ab2 FFF7FEFF 		bl	__aeabi_d2f
 1301 0ab6 D090     		str	r0, [sp, #832]	@ float
 1302 0ab8 0FE7     		b	.L140
 1303              	.L131:
 1304 0aba CE93     		str	r3, [sp, #824]
 1305 0abc 4FF00609 		mov	r9, #6
 1306 0ac0 B1E6     		b	.L146
 1307              	.L164:
 1308 0ac2 CDF840B3 		str	fp, [sp, #832]	@ float
 1309 0ac6 08E7     		b	.L140
 1310              	.L130:
 1311 0ac8 CD93     		str	r3, [sp, #820]
 1312 0aca 4FF00509 		mov	r9, #5
 1313 0ace AAE6     		b	.L146
 1314              	.L105:
 1315 0ad0 0120     		movs	r0, #1
 1316 0ad2 1C4A     		ldr	r2, .L173+20
 1317 0ad4 C8F80400 		str	r0, [r8, #4]
 1318 0ad8 4523     		movs	r3, #69
 1319              	.L107:
 1320 0ada 3B70     		strb	r3, [r7, #0]
 1321 0adc 12F8013F 		ldrb	r3, [r2, #1]!	@ zero_extendqisi2
 1322 0ae0 002B     		cmp	r3, #0
 1323 0ae2 FAD1     		bne	.L107
 1324 0ae4 FF20     		movs	r0, #255
 1325 0ae6 1A46     		mov	r2, r3
 1326 0ae8 0146     		mov	r1, r0
 1327 0aea 0193     		str	r3, [sp, #4]
 1328 0aec FFF7FEFF 		bl	rgb_set
 1329 0af0 154A     		ldr	r2, .L173+24
 1330 0af2 019B     		ldr	r3, [sp, #4]
 1331 0af4 516B     		ldr	r1, [r2, #52]
 1332 0af6 5363     		str	r3, [r2, #52]
 1333 0af8 9363     		str	r3, [r2, #56]
 1334              	.L161:
 1335 0afa D8F80400 		ldr	r0, [r8, #4]
 1336 0afe 0028     		cmp	r0, #0
 1337 0b00 3FF435AE 		beq	.L104
 1338 0b04 97F800C0 		ldrb	ip, [r7, #0]	@ zero_extendqisi2
 1339 0b08 BCF1720F 		cmp	ip, #114
 1340 0b0c F5D1     		bne	.L161
 1341 0b0e 0F4A     		ldr	r2, .L173+28
 1342 0b10 5223     		movs	r3, #82
 1343              	.L110:
 1344 0b12 3B70     		strb	r3, [r7, #0]
 1345 0b14 12F8013F 		ldrb	r3, [r2, #1]!	@ zero_extendqisi2
 1346 0b18 002B     		cmp	r3, #0
 1347 0b1a FAD1     		bne	.L110
 1348 0b1c 1946     		mov	r1, r3
 1349 0b1e FF20     		movs	r0, #255
 1350 0b20 1A46     		mov	r2, r3
 1351 0b22 0193     		str	r3, [sp, #4]
 1352 0b24 FFF7FEFF 		bl	rgb_set
 1353 0b28 0199     		ldr	r1, [sp, #4]
 1354 0b2a C8F80410 		str	r1, [r8, #4]
 1355 0b2e E4E7     		b	.L161
 1356              	.L174:
 1357              		.align	3
 1358              	.L173:
 1359 0b30 FCA9F1D2 		.word	-755914244
 1360 0b34 4D62603F 		.word	1063281229
 1361 0b38 FCA9F1D2 		.word	-755914244
 1362 0b3c 4D62503F 		.word	1062232653
 1363 0b40 01000080 		.word	-2147483647
 1364 0b44 38000000 		.word	.LC3
 1365 0b48 00800B40 		.word	1074495488
 1366 0b4c 48000000 		.word	.LC4
 1368              		.align	2
 1369              		.global	I2C2_IRQHandler
 1370              		.thumb
 1371              		.thumb_func
 1373              	I2C2_IRQHandler:
 1374              		@ args = 0, pretend = 0, frame = 0
 1375              		@ frame_needed = 0, uses_anonymous_args = 0
 1376 0b50 6D4B     		ldr	r3, .L194
 1377 0b52 10B5     		push	{r4, lr}
 1378 0b54 5C68     		ldr	r4, [r3, #4]
 1379 0b56 6D48     		ldr	r0, .L194+4
 1380 0b58 2146     		mov	r1, r4
 1381 0b5a 083C     		subs	r4, r4, #8
 1382 0b5c FFF7FEFF 		bl	printf
 1383 0b60 502C     		cmp	r4, #80
 1384 0b62 71D8     		bhi	.L176
 1385 0b64 DFE814F0 		tbh	[pc, r4, lsl #1]
 1386              	.L187:
 1387 0b68 7900     		.2byte	(.L177-.L187)/2
 1388 0b6a 7000     		.2byte	(.L176-.L187)/2
 1389 0b6c 7000     		.2byte	(.L176-.L187)/2
 1390 0b6e 7000     		.2byte	(.L176-.L187)/2
 1391 0b70 7000     		.2byte	(.L176-.L187)/2
 1392 0b72 7000     		.2byte	(.L176-.L187)/2
 1393 0b74 7000     		.2byte	(.L176-.L187)/2
 1394 0b76 7000     		.2byte	(.L176-.L187)/2
 1395 0b78 8600     		.2byte	(.L178-.L187)/2
 1396 0b7a 7000     		.2byte	(.L176-.L187)/2
 1397 0b7c 7000     		.2byte	(.L176-.L187)/2
 1398 0b7e 7000     		.2byte	(.L176-.L187)/2
 1399 0b80 7000     		.2byte	(.L176-.L187)/2
 1400 0b82 7000     		.2byte	(.L176-.L187)/2
 1401 0b84 7000     		.2byte	(.L176-.L187)/2
 1402 0b86 7000     		.2byte	(.L176-.L187)/2
 1403 0b88 9300     		.2byte	(.L179-.L187)/2
 1404 0b8a 7000     		.2byte	(.L176-.L187)/2
 1405 0b8c 7000     		.2byte	(.L176-.L187)/2
 1406 0b8e 7000     		.2byte	(.L176-.L187)/2
 1407 0b90 7000     		.2byte	(.L176-.L187)/2
 1408 0b92 7000     		.2byte	(.L176-.L187)/2
 1409 0b94 7000     		.2byte	(.L176-.L187)/2
 1410 0b96 7000     		.2byte	(.L176-.L187)/2
 1411 0b98 A100     		.2byte	(.L180-.L187)/2
 1412 0b9a 7000     		.2byte	(.L176-.L187)/2
 1413 0b9c 7000     		.2byte	(.L176-.L187)/2
 1414 0b9e 7000     		.2byte	(.L176-.L187)/2
 1415 0ba0 7000     		.2byte	(.L176-.L187)/2
 1416 0ba2 7000     		.2byte	(.L176-.L187)/2
 1417 0ba4 7000     		.2byte	(.L176-.L187)/2
 1418 0ba6 7000     		.2byte	(.L176-.L187)/2
 1419 0ba8 A500     		.2byte	(.L181-.L187)/2
 1420 0baa 7000     		.2byte	(.L176-.L187)/2
 1421 0bac 7000     		.2byte	(.L176-.L187)/2
 1422 0bae 7000     		.2byte	(.L176-.L187)/2
 1423 0bb0 7000     		.2byte	(.L176-.L187)/2
 1424 0bb2 7000     		.2byte	(.L176-.L187)/2
 1425 0bb4 7000     		.2byte	(.L176-.L187)/2
 1426 0bb6 7000     		.2byte	(.L176-.L187)/2
 1427 0bb8 7000     		.2byte	(.L176-.L187)/2
 1428 0bba 7000     		.2byte	(.L176-.L187)/2
 1429 0bbc 7000     		.2byte	(.L176-.L187)/2
 1430 0bbe 7000     		.2byte	(.L176-.L187)/2
 1431 0bc0 7000     		.2byte	(.L176-.L187)/2
 1432 0bc2 7000     		.2byte	(.L176-.L187)/2
 1433 0bc4 7000     		.2byte	(.L176-.L187)/2
 1434 0bc6 7000     		.2byte	(.L176-.L187)/2
 1435 0bc8 B600     		.2byte	(.L182-.L187)/2
 1436 0bca 7000     		.2byte	(.L176-.L187)/2
 1437 0bcc 7000     		.2byte	(.L176-.L187)/2
 1438 0bce 7000     		.2byte	(.L176-.L187)/2
 1439 0bd0 7000     		.2byte	(.L176-.L187)/2
 1440 0bd2 7000     		.2byte	(.L176-.L187)/2
 1441 0bd4 7000     		.2byte	(.L176-.L187)/2
 1442 0bd6 7000     		.2byte	(.L176-.L187)/2
 1443 0bd8 5100     		.2byte	(.L184-.L187)/2
 1444 0bda 7000     		.2byte	(.L176-.L187)/2
 1445 0bdc 7000     		.2byte	(.L176-.L187)/2
 1446 0bde 7000     		.2byte	(.L176-.L187)/2
 1447 0be0 7000     		.2byte	(.L176-.L187)/2
 1448 0be2 7000     		.2byte	(.L176-.L187)/2
 1449 0be4 7000     		.2byte	(.L176-.L187)/2
 1450 0be6 7000     		.2byte	(.L176-.L187)/2
 1451 0be8 5100     		.2byte	(.L184-.L187)/2
 1452 0bea 7000     		.2byte	(.L176-.L187)/2
 1453 0bec 7000     		.2byte	(.L176-.L187)/2
 1454 0bee 7000     		.2byte	(.L176-.L187)/2
 1455 0bf0 7000     		.2byte	(.L176-.L187)/2
 1456 0bf2 7000     		.2byte	(.L176-.L187)/2
 1457 0bf4 7000     		.2byte	(.L176-.L187)/2
 1458 0bf6 7000     		.2byte	(.L176-.L187)/2
 1459 0bf8 5B00     		.2byte	(.L185-.L187)/2
 1460 0bfa 7000     		.2byte	(.L176-.L187)/2
 1461 0bfc 7000     		.2byte	(.L176-.L187)/2
 1462 0bfe 7000     		.2byte	(.L176-.L187)/2
 1463 0c00 7000     		.2byte	(.L176-.L187)/2
 1464 0c02 7000     		.2byte	(.L176-.L187)/2
 1465 0c04 7000     		.2byte	(.L176-.L187)/2
 1466 0c06 7000     		.2byte	(.L176-.L187)/2
 1467 0c08 BA00     		.2byte	(.L186-.L187)/2
 1468              	.L184:
 1469 0c0a 3F4B     		ldr	r3, .L194
 1470 0c0c 4048     		ldr	r0, .L194+8
 1471 0c0e 0422     		movs	r2, #4
 1472              	.L193:
 1473 0c10 1A60     		str	r2, [r3, #0]
 1474 0c12 0822     		movs	r2, #8
 1475 0c14 9A61     		str	r2, [r3, #24]
 1476 0c16 BDE81040 		pop	{r4, lr}
 1477 0c1a FFF7FEBF 		b	printf
 1478              	.L185:
 1479 0c1e 3D4C     		ldr	r4, .L194+12
 1480 0c20 2069     		ldr	r0, [r4, #16]
 1481 0c22 0028     		cmp	r0, #0
 1482 0c24 40F08280 		bne	.L190
 1483 0c28 3748     		ldr	r0, .L194
 1484 0c2a 0823     		movs	r3, #8
 1485 0c2c 0421     		movs	r1, #4
 1486 0c2e 0160     		str	r1, [r0, #0]
 1487 0c30 8361     		str	r3, [r0, #24]
 1488 0c32 8268     		ldr	r2, [r0, #8]
 1489 0c34 3848     		ldr	r0, .L194+16
 1490 0c36 1101     		lsls	r1, r2, #4
 1491 0c38 48BF     		it	mi
 1492 0c3a 0F31     		addmi	r1, r1, #15
 1493 0c3c 0911     		asrs	r1, r1, #4
 1494 0c3e FFF7FEFF 		bl	printf
 1495 0c42 0123     		movs	r3, #1
 1496 0c44 2361     		str	r3, [r4, #16]
 1497 0c46 10BD     		pop	{r4, pc}
 1498              	.L176:
 1499 0c48 3448     		ldr	r0, .L194+20
 1500 0c4a FFF7FEFF 		bl	printf
 1501 0c4e 4FF47A70 		mov	r0, #1000
 1502 0c52 BDE81040 		pop	{r4, lr}
 1503 0c56 FFF7FEBF 		b	delay_ms
 1504              	.L177:
 1505 0c5a 2E48     		ldr	r0, .L194+12
 1506 0c5c 2A49     		ldr	r1, .L194
 1507 0c5e C268     		ldr	r2, [r0, #12]
 1508 0c60 2B48     		ldr	r0, .L194+8
 1509 0c62 8A60     		str	r2, [r1, #8]
 1510 0c64 0423     		movs	r3, #4
 1511 0c66 2822     		movs	r2, #40
 1512 0c68 0B60     		str	r3, [r1, #0]
 1513 0c6a 8A61     		str	r2, [r1, #24]
 1514 0c6c BDE81040 		pop	{r4, lr}
 1515 0c70 FFF7FEBF 		b	printf
 1516              	.L178:
 1517 0c74 244B     		ldr	r3, .L194
 1518 0c76 9021     		movs	r1, #144
 1519 0c78 2548     		ldr	r0, .L194+8
 1520 0c7a 9960     		str	r1, [r3, #8]
 1521 0c7c 0822     		movs	r2, #8
 1522 0c7e 0421     		movs	r1, #4
 1523 0c80 1960     		str	r1, [r3, #0]
 1524 0c82 9A61     		str	r2, [r3, #24]
 1525 0c84 9A61     		str	r2, [r3, #24]
 1526 0c86 BDE81040 		pop	{r4, lr}
 1527 0c8a FFF7FEBF 		b	printf
 1528              	.L179:
 1529 0c8e 214B     		ldr	r3, .L194+12
 1530 0c90 1D49     		ldr	r1, .L194
 1531 0c92 9868     		ldr	r0, [r3, #8]
 1532 0c94 0422     		movs	r2, #4
 1533 0c96 0823     		movs	r3, #8
 1534 0c98 8860     		str	r0, [r1, #8]
 1535 0c9a 0A60     		str	r2, [r1, #0]
 1536 0c9c 8B61     		str	r3, [r1, #24]
 1537 0c9e 8968     		ldr	r1, [r1, #8]
 1538 0ca0 1F48     		ldr	r0, .L194+24
 1539 0ca2 BDE81040 		pop	{r4, lr}
 1540 0ca6 FFF7FEBF 		b	printf
 1541              	.L180:
 1542 0caa 174B     		ldr	r3, .L194
 1543 0cac 1848     		ldr	r0, .L194+8
 1544 0cae 1422     		movs	r2, #20
 1545 0cb0 AEE7     		b	.L193
 1546              	.L181:
 1547 0cb2 184C     		ldr	r4, .L194+12
 1548 0cb4 2169     		ldr	r1, [r4, #16]
 1549 0cb6 D9B9     		cbnz	r1, .L188
 1550 0cb8 1348     		ldr	r0, .L194
 1551 0cba 6268     		ldr	r2, [r4, #4]
 1552 0cbc 0421     		movs	r1, #4
 1553 0cbe 0823     		movs	r3, #8
 1554 0cc0 8260     		str	r2, [r0, #8]
 1555 0cc2 0160     		str	r1, [r0, #0]
 1556 0cc4 8361     		str	r3, [r0, #24]
 1557 0cc6 8168     		ldr	r1, [r0, #8]
 1558 0cc8 1548     		ldr	r0, .L194+24
 1559 0cca FFF7FEFF 		bl	printf
 1560 0cce 0122     		movs	r2, #1
 1561 0cd0 2261     		str	r2, [r4, #16]
 1562 0cd2 10BD     		pop	{r4, pc}
 1563              	.L182:
 1564 0cd4 0C4B     		ldr	r3, .L194
 1565 0cd6 0E48     		ldr	r0, .L194+8
 1566 0cd8 2422     		movs	r2, #36
 1567 0cda 99E7     		b	.L193
 1568              	.L186:
 1569 0cdc 0A4C     		ldr	r4, .L194
 1570 0cde 1148     		ldr	r0, .L194+28
 1571 0ce0 A168     		ldr	r1, [r4, #8]
 1572 0ce2 FFF7FEFF 		bl	printf
 1573 0ce6 1420     		movs	r0, #20
 1574 0ce8 0823     		movs	r3, #8
 1575 0cea 2060     		str	r0, [r4, #0]
 1576 0cec A361     		str	r3, [r4, #24]
 1577 0cee 10BD     		pop	{r4, pc}
 1578              	.L188:
 1579 0cf0 054B     		ldr	r3, .L194
 1580 0cf2 1422     		movs	r2, #20
 1581 0cf4 0821     		movs	r1, #8
 1582 0cf6 1A60     		str	r2, [r3, #0]
 1583 0cf8 0B48     		ldr	r0, .L194+32
 1584 0cfa 9961     		str	r1, [r3, #24]
 1585 0cfc FFF7FEFF 		bl	printf
 1586 0d00 0020     		movs	r0, #0
 1587 0d02 2061     		str	r0, [r4, #16]
 1588 0d04 10BD     		pop	{r4, pc}
 1589              	.L195:
 1590 0d06 00BF     		.align	2
 1591              	.L194:
 1592 0d08 00000A40 		.word	1074397184
 1593 0d0c 60000000 		.word	.LC5
 1594 0d10 70000000 		.word	.LC6
 1595 0d14 00000000 		.word	.LANCHOR0
 1596 0d18 A8000000 		.word	.LC9
 1597 0d1c D0000000 		.word	.LC11
 1598 0d20 7C000000 		.word	.LC7
 1599 0d24 BC000000 		.word	.LC10
 1600 0d28 94000000 		.word	.LC8
 1601              	.L190:
 1602 0d2c 0749     		ldr	r1, .L196
 1603 0d2e 0C22     		movs	r2, #12
 1604 0d30 8A61     		str	r2, [r1, #24]
 1605 0d32 8868     		ldr	r0, [r1, #8]
 1606 0d34 10EB8003 		adds	r3, r0, r0, lsl #2
 1607 0d38 48BF     		it	mi
 1608 0d3a 7F33     		addmi	r3, r3, #127
 1609 0d3c 0448     		ldr	r0, .L196+4
 1610 0d3e D911     		asrs	r1, r3, #7
 1611 0d40 FFF7FEFF 		bl	printf
 1612 0d44 0022     		movs	r2, #0
 1613 0d46 2261     		str	r2, [r4, #16]
 1614 0d48 10BD     		pop	{r4, pc}
 1615              	.L197:
 1616 0d4a 00BF     		.align	2
 1617              	.L196:
 1618 0d4c 00000A40 		.word	1074397184
 1619 0d50 A8000000 		.word	.LC9
 1621              		.global	pause
 1622              		.global	debounce
 1623              		.global	catch
 1624              		.global	state
 1625              		.global	i2c_resistor
 1626              		.global	i2c_address
 1627              		.global	i2c_wiper
 1628 0d54 AFF30080 		.data
 1629              		.align	2
 1630              		.set	.LANCHOR1,. + 0
 1633              	pause:
 1634 0000 01000000 		.word	1
 1637              	catch:
 1638 0004 01000000 		.word	1
 1639              		.section	.rodata.str1.4,"aMS",%progbits,1
 1640              		.align	2
 1641              	.LC0:
 1642 0000 53656E64 		.ascii	"Sending Start Bit\012\015\000"
 1642      696E6720 
 1642      53746172 
 1642      74204269 
 1642      740A0D00 
 1643              	.LC1:
 1644 0014 0A0D2048 		.ascii	"\012\015 Hello World \012\015\000"
 1644      656C6C6F 
 1644      20576F72 
 1644      6C64200A 
 1644      0D00
 1645 0026 0000     		.space	2
 1646              	.LC2:
 1647 0028 41766572 		.ascii	"Average: %d \012\015\000"
 1647      6167653A 
 1647      20256420 
 1647      0A0D00
 1648 0037 00       		.space	1
 1649              	.LC3:
 1650 0038 456E7465 		.ascii	"Enter Command:\000"
 1650      7220436F 
 1650      6D6D616E 
 1650      643A00
 1651 0047 00       		.space	1
 1652              	.LC4:
 1653 0048 52657475 		.ascii	"Returning to loop...\000"
 1653      726E696E 
 1653      6720746F 
 1653      206C6F6F 
 1653      702E2E2E 
 1654 005d 000000   		.space	3
 1655              	.LC5:
 1656 0060 53746174 		.ascii	"Status: 0x%x\000"
 1656      75733A20 
 1656      30782578 
 1656      00
 1657 006d 000000   		.space	3
 1658              	.LC6:
 1659 0070 3A20446F 		.ascii	": Done \012\015\000"
 1659      6E65200A 
 1659      0D00
 1660 007a 0000     		.space	2
 1661              	.LC7:
 1662 007c 3A57726F 		.ascii	":Wrote: %x Ack Done \012\015\000"
 1662      74653A20 
 1662      25782041 
 1662      636B2044 
 1662      6F6E6520 
 1663 0093 00       		.space	1
 1664              	.LC8:
 1665 0094 3A53746F 		.ascii	":Stop and Done \012\015\000"
 1665      7020616E 
 1665      6420446F 
 1665      6E65200A 
 1665      0D00
 1666 00a6 0000     		.space	2
 1667              	.LC9:
 1668 00a8 3A526561 		.ascii	":Read: %d  Done \012\015\000"
 1668      643A2025 
 1668      64202044 
 1668      6F6E6520 
 1668      0A0D00
 1669 00bb 00       		.space	1
 1670              	.LC10:
 1671 00bc 3A526561 		.ascii	":Read: %x  Done \012\015\000"
 1671      643A2025 
 1671      78202044 
 1671      6F6E6520 
 1671      0A0D00
 1672 00cf 00       		.space	1
 1673              	.LC11:
 1674 00d0 536F6D65 		.ascii	"Something went wrong...\000"
 1674      7468696E 
 1674      67207765 
 1674      6E742077 
 1674      726F6E67 
 1675              		.bss
 1676              		.align	2
 1677              		.set	.LANCHOR0,. + 0
 1680              	debounce:
 1681 0000 00000000 		.space	4
 1684              	i2c_resistor:
 1685 0004 00000000 		.space	4
 1688              	i2c_wiper:
 1689 0008 00000000 		.space	4
 1692              	i2c_address:
 1693 000c 00000000 		.space	4
 1696              	state:
 1697 0010 00000000 		.space	4
 1698              		.ident	"GCC: (Sourcery G++ Lite 2011.03-42) 4.5.2"