   1              		.syntax unified
   2              		.cpu cortex-m3
   3              		.fpu softvfp
   4              		.eabi_attribute 20, 1
   5              		.eabi_attribute 21, 1
   6              		.eabi_attribute 23, 3
   7              		.eabi_attribute 24, 1
   8              		.eabi_attribute 25, 1
   9              		.eabi_attribute 26, 1
  10              		.eabi_attribute 30, 2
  11              		.eabi_attribute 18, 4
  12              		.thumb
  13              		.file	"main.c"
  14              		.text
  15              		.align	2
  16              		.global	ext_adc_setup
  17              		.thumb
  18              		.thumb_func
  20              	ext_adc_setup:
  21              		@ args = 0, pretend = 0, frame = 0
  22              		@ frame_needed = 0, uses_anonymous_args = 0
  23              		@ link register save eliminated.
  24 0000 1649     		ldr	r1, .L2
  25 0002 10B4     		push	{r4}
  26 0004 D1F8C440 		ldr	r4, [r1, #196]
  27 0008 154A     		ldr	r2, .L2+4
  28 000a 44F40013 		orr	r3, r4, #2097152
  29 000e C1F8C430 		str	r3, [r1, #196]
  30 0012 D1F8AC41 		ldr	r4, [r1, #428]
  31 0016 1348     		ldr	r0, .L2+8
  32 0018 44F48064 		orr	r4, r4, #1024
  33 001c C1F8AC41 		str	r4, [r1, #428]
  34 0020 D168     		ldr	r1, [r2, #12]
  35 0022 114B     		ldr	r3, .L2+12
  36 0024 41F44F41 		orr	r1, r1, #52992
  37 0028 D160     		str	r1, [r2, #12]
  38 002a D16C     		ldr	r1, [r2, #76]
  39 002c 41F4723C 		orr	ip, r1, #247808
  40 0030 4CF4E061 		orr	r1, ip, #1792
  41 0034 D164     		str	r1, [r2, #76]
  42 0036 0268     		ldr	r2, [r0, #0]
  43 0038 42F0006C 		orr	ip, r2, #134217728
  44 003c 4CF48021 		orr	r1, ip, #262144
  45 0040 0160     		str	r1, [r0, #0]
  46 0042 1868     		ldr	r0, [r3, #0]
  47 0044 40F04F02 		orr	r2, r0, #79
  48 0048 1A60     		str	r2, [r3, #0]
  49 004a 5968     		ldr	r1, [r3, #4]
  50 004c 0222     		movs	r2, #2
  51 004e 41F00200 		orr	r0, r1, #2
  52 0052 5860     		str	r0, [r3, #4]
  53 0054 1A61     		str	r2, [r3, #16]
  54 0056 10BC     		pop	{r4}
  55 0058 7047     		bx	lr
  56              	.L3:
  57 005a 00BF     		.align	2
  58              	.L2:
  59 005c 00C00F40 		.word	1074774016
  60 0060 00C00240 		.word	1073922048
  61 0064 20C00920 		.word	537509920
  62 0068 00800840 		.word	1074298880
  64              		.align	2
  65              		.global	ui_setup
  66              		.thumb
  67              		.thumb_func
  69              	ui_setup:
  70              		@ args = 0, pretend = 0, frame = 0
  71              		@ frame_needed = 0, uses_anonymous_args = 0
  72              		@ link register save eliminated.
  73 006c 104B     		ldr	r3, .L5
  74 006e 10B4     		push	{r4}
  75 0070 1C6C     		ldr	r4, [r3, #64]
  76 0072 1048     		ldr	r0, .L5+4
  77 0074 44F4082C 		orr	ip, r4, #557056
  78 0078 4CF40062 		orr	r2, ip, #2048
  79 007c 1A64     		str	r2, [r3, #64]
  80 007e 0468     		ldr	r4, [r0, #0]
  81 0080 0D49     		ldr	r1, .L5+8
  82 0082 44F42874 		orr	r4, r4, #672
  83 0086 0460     		str	r4, [r0, #0]
  84 0088 0868     		ldr	r0, [r1, #0]
  85 008a 0C4A     		ldr	r2, .L5+12
  86 008c 40F00050 		orr	r0, r0, #536870912
  87 0090 0860     		str	r0, [r1, #0]
  88 0092 596E     		ldr	r1, [r3, #100]
  89 0094 41F00060 		orr	r0, r1, #134217728
  90 0098 5866     		str	r0, [r3, #100]
  91 009a 5169     		ldr	r1, [r2, #20]
  92 009c 084B     		ldr	r3, .L5+16
  93 009e 41F40010 		orr	r0, r1, #2097152
  94 00a2 5061     		str	r0, [r2, #20]
  95 00a4 4FF40012 		mov	r2, #2097152
  96 00a8 1A60     		str	r2, [r3, #0]
  97 00aa 10BC     		pop	{r4}
  98 00ac 7047     		bx	lr
  99              	.L6:
 100 00ae 00BF     		.align	2
 101              	.L5:
 102 00b0 00C00240 		.word	1073922048
 103 00b4 00C00920 		.word	537509888
 104 00b8 80C00920 		.word	537510016
 105 00bc 80800240 		.word	1073905792
 106 00c0 00E100E0 		.word	-536813312
 108              		.align	2
 109              		.global	ui_set
 110              		.thumb
 111              		.thumb_func
 113              	ui_set:
 114              		@ args = 0, pretend = 0, frame = 0
 115              		@ frame_needed = 0, uses_anonymous_args = 0
 116              		@ link register save eliminated.
 117 00c4 0128     		cmp	r0, #1
 118 00c6 10B4     		push	{r4}
 119 00c8 1BD0     		beq	.L17
 120 00ca 1B48     		ldr	r0, .L21
 121 00cc 0129     		cmp	r1, #1
 122 00ce C469     		ldr	r4, [r0, #28]
 123 00d0 44F00054 		orr	r4, r4, #536870912
 124 00d4 C461     		str	r4, [r0, #28]
 125 00d6 1BD0     		beq	.L18
 126              	.L10:
 127 00d8 1849     		ldr	r1, .L21+4
 128 00da 012A     		cmp	r2, #1
 129 00dc C869     		ldr	r0, [r1, #28]
 130 00de 40F02000 		orr	r0, r0, #32
 131 00e2 C861     		str	r0, [r1, #28]
 132 00e4 1BD0     		beq	.L19
 133              	.L12:
 134 00e6 154A     		ldr	r2, .L21+4
 135 00e8 012B     		cmp	r3, #1
 136 00ea D069     		ldr	r0, [r2, #28]
 137 00ec 40F08001 		orr	r1, r0, #128
 138 00f0 D161     		str	r1, [r2, #28]
 139 00f2 1BD0     		beq	.L20
 140              	.L14:
 141 00f4 1149     		ldr	r1, .L21+4
 142 00f6 CB69     		ldr	r3, [r1, #28]
 143 00f8 43F40070 		orr	r0, r3, #512
 144 00fc C861     		str	r0, [r1, #28]
 145              	.L7:
 146 00fe 10BC     		pop	{r4}
 147 0100 7047     		bx	lr
 148              	.L17:
 149 0102 0D48     		ldr	r0, .L21
 150 0104 0129     		cmp	r1, #1
 151 0106 8469     		ldr	r4, [r0, #24]
 152 0108 44F00054 		orr	r4, r4, #536870912
 153 010c 8461     		str	r4, [r0, #24]
 154 010e E3D1     		bne	.L10
 155              	.L18:
 156 0110 0A49     		ldr	r1, .L21+4
 157 0112 012A     		cmp	r2, #1
 158 0114 8869     		ldr	r0, [r1, #24]
 159 0116 40F02000 		orr	r0, r0, #32
 160 011a 8861     		str	r0, [r1, #24]
 161 011c E3D1     		bne	.L12
 162              	.L19:
 163 011e 074A     		ldr	r2, .L21+4
 164 0120 012B     		cmp	r3, #1
 165 0122 9069     		ldr	r0, [r2, #24]
 166 0124 40F08001 		orr	r1, r0, #128
 167 0128 9161     		str	r1, [r2, #24]
 168 012a E3D1     		bne	.L14
 169              	.L20:
 170 012c 034B     		ldr	r3, .L21+4
 171 012e 9A69     		ldr	r2, [r3, #24]
 172 0130 42F40071 		orr	r1, r2, #512
 173 0134 9961     		str	r1, [r3, #24]
 174 0136 E2E7     		b	.L7
 175              	.L22:
 176              		.align	2
 177              	.L21:
 178 0138 80C00920 		.word	537510016
 179 013c 00C00920 		.word	537509888
 181              		.global	__aeabi_fcmplt
 182              		.global	__aeabi_fcmpgt
 183              		.global	__aeabi_fmul
 184              		.global	__aeabi_f2iz
 185              		.align	2
 186              		.global	servo_steer
 187              		.thumb
 188              		.thumb_func
 190              	servo_steer:
 191              		@ args = 0, pretend = 0, frame = 0
 192              		@ frame_needed = 0, uses_anonymous_args = 0
 193 0140 10B5     		push	{r4, lr}
 194 0142 1149     		ldr	r1, .L28
 195 0144 0446     		mov	r4, r0
 196 0146 FFF7FEFF 		bl	__aeabi_fcmplt
 197 014a 10B1     		cbz	r0, .L27
 198 014c 4FF0FF30 		mov	r0, #-1
 199 0150 10BD     		pop	{r4, pc}
 200              	.L27:
 201 0152 2046     		mov	r0, r4
 202 0154 4FF07E51 		mov	r1, #1065353216
 203 0158 FFF7FEFF 		bl	__aeabi_fcmpgt
 204 015c 80B9     		cbnz	r0, .L26
 205 015e 0B49     		ldr	r1, .L28+4
 206 0160 2046     		mov	r0, r4
 207 0162 FFF7FEFF 		bl	__aeabi_fmul
 208 0166 FFF7FEFF 		bl	__aeabi_f2iz
 209 016a 094B     		ldr	r3, .L28+8
 210 016c 00F59050 		add	r0, r0, #4608
 211 0170 2930     		adds	r0, r0, #41
 212 0172 D861     		str	r0, [r3, #28]
 213 0174 196D     		ldr	r1, [r3, #80]
 214 0176 0020     		movs	r0, #0
 215 0178 41F00202 		orr	r2, r1, #2
 216 017c 1A65     		str	r2, [r3, #80]
 217 017e 10BD     		pop	{r4, pc}
 218              	.L26:
 219 0180 4FF0FF30 		mov	r0, #-1
 220 0184 10BD     		pop	{r4, pc}
 221              	.L29:
 222 0186 00BF     		.align	2
 223              	.L28:
 224 0188 000080BF 		.word	-1082130432
 225 018c 0000E242 		.word	1122107392
 226 0190 00800140 		.word	1073840128
 228              		.align	2
 229              		.global	uart0_setup
 230              		.thumb
 231              		.thumb_func
 233              	uart0_setup:
 234              		@ args = 0, pretend = 0, frame = 0
 235              		@ frame_needed = 0, uses_anonymous_args = 0
 236              		@ link register save eliminated.
 237 0194 164B     		ldr	r3, .L31
 238 0196 1748     		ldr	r0, .L31+4
 239 0198 D3F8C420 		ldr	r2, [r3, #196]
 240 019c 42F00801 		orr	r1, r2, #8
 241 01a0 C3F8C410 		str	r1, [r3, #196]
 242 01a4 D3F8A821 		ldr	r2, [r3, #424]
 243 01a8 42F0C001 		orr	r1, r2, #192
 244 01ac C3F8A811 		str	r1, [r3, #424]
 245 01b0 027B     		ldrb	r2, [r0, #12]	@ zero_extendqisi2
 246 01b2 8523     		movs	r3, #133
 247 01b4 42F0830C 		orr	ip, r2, #131
 248 01b8 0421     		movs	r1, #4
 249 01ba 0022     		movs	r2, #0
 250 01bc 80F80CC0 		strb	ip, [r0, #12]
 251 01c0 80F82830 		strb	r3, [r0, #40]
 252 01c4 0170     		strb	r1, [r0, #0]
 253 01c6 0271     		strb	r2, [r0, #4]
 254 01c8 90F80CC0 		ldrb	ip, [r0, #12]	@ zero_extendqisi2
 255 01cc 0A4A     		ldr	r2, .L31+8
 256 01ce 0CF07F03 		and	r3, ip, #127
 257 01d2 0373     		strb	r3, [r0, #12]
 258 01d4 017A     		ldrb	r1, [r0, #8]	@ zero_extendqisi2
 259 01d6 41F0070C 		orr	ip, r1, #7
 260 01da 80F808C0 		strb	ip, [r0, #8]
 261 01de 1368     		ldr	r3, [r2, #0]
 262 01e0 43F05001 		orr	r1, r3, #80
 263 01e4 1160     		str	r1, [r2, #0]
 264 01e6 106C     		ldr	r0, [r2, #64]
 265 01e8 40F0A003 		orr	r3, r0, #160
 266 01ec 1364     		str	r3, [r2, #64]
 267 01ee 7047     		bx	lr
 268              	.L32:
 269              		.align	2
 270              	.L31:
 271 01f0 00C00F40 		.word	1074774016
 272 01f4 00C00040 		.word	1073790976
 273 01f8 00C00240 		.word	1073922048
 275              		.align	2
 276              		.global	uart0_printc
 277              		.thumb
 278              		.thumb_func
 280              	uart0_printc:
 281              		@ args = 0, pretend = 0, frame = 0
 282              		@ frame_needed = 0, uses_anonymous_args = 0
 283              		@ link register save eliminated.
 284 01fc 014B     		ldr	r3, .L34
 285 01fe 1870     		strb	r0, [r3, #0]
 286 0200 7047     		bx	lr
 287              	.L35:
 288 0202 00BF     		.align	2
 289              	.L34:
 290 0204 00C00040 		.word	1073790976
 292              		.align	2
 293              		.global	uart0_string
 294              		.thumb
 295              		.thumb_func
 297              	uart0_string:
 298              		@ args = 0, pretend = 0, frame = 0
 299              		@ frame_needed = 0, uses_anonymous_args = 0
 300              		@ link register save eliminated.
 301 0208 0378     		ldrb	r3, [r0, #0]	@ zero_extendqisi2
 302 020a 2BB1     		cbz	r3, .L36
 303 020c 034A     		ldr	r2, .L40
 304              	.L38:
 305 020e 1370     		strb	r3, [r2, #0]
 306 0210 10F8013F 		ldrb	r3, [r0, #1]!	@ zero_extendqisi2
 307 0214 002B     		cmp	r3, #0
 308 0216 FAD1     		bne	.L38
 309              	.L36:
 310 0218 7047     		bx	lr
 311              	.L41:
 312 021a 00BF     		.align	2
 313              	.L40:
 314 021c 00C00040 		.word	1073790976
 316              		.align	2
 317              		.global	servo_setup
 318              		.thumb
 319              		.thumb_func
 321              	servo_setup:
 322              		@ args = 0, pretend = 0, frame = 0
 323              		@ frame_needed = 0, uses_anonymous_args = 0
 324              		@ link register save eliminated.
 325 0220 114A     		ldr	r2, .L43
 326 0222 1249     		ldr	r1, .L43+4
 327 0224 D2F8C400 		ldr	r0, [r2, #196]
 328 0228 114B     		ldr	r3, .L43+8
 329 022a 40F04000 		orr	r0, r0, #64
 330 022e C2F8C400 		str	r0, [r2, #196]
 331 0232 D2F8A801 		ldr	r0, [r2, #424]
 332 0236 40F44050 		orr	r0, r0, #12288
 333 023a C2F8A801 		str	r0, [r2, #424]
 334 023e 0A69     		ldr	r2, [r1, #16]
 335 0240 42F00100 		orr	r0, r2, #1
 336 0244 0861     		str	r0, [r1, #16]
 337 0246 DA6C     		ldr	r2, [r3, #76]
 338 0248 2820     		movs	r0, #40
 339 024a 42F40071 		orr	r1, r2, #512
 340 024e D964     		str	r1, [r3, #76]
 341 0250 41F28832 		movw	r2, #5000
 342 0254 41F2E411 		movw	r1, #4580
 343 0258 D860     		str	r0, [r3, #12]
 344 025a 9A61     		str	r2, [r3, #24]
 345 025c D961     		str	r1, [r3, #28]
 346 025e 5868     		ldr	r0, [r3, #4]
 347 0260 40F00902 		orr	r2, r0, #9
 348 0264 5A60     		str	r2, [r3, #4]
 349 0266 7047     		bx	lr
 350              	.L44:
 351              		.align	2
 352              	.L43:
 353 0268 00C00F40 		.word	1074774016
 354 026c 00C00240 		.word	1073922048
 355 0270 00800140 		.word	1073840128
 357              		.align	2
 358              		.global	motor_speed
 359              		.thumb
 360              		.thumb_func
 362              	motor_speed:
 363              		@ args = 0, pretend = 0, frame = 0
 364              		@ frame_needed = 0, uses_anonymous_args = 0
 365 0274 70B5     		push	{r4, r5, r6, lr}
 366 0276 0F4C     		ldr	r4, .L50
 367 0278 0021     		movs	r1, #0
 368 027a 636B     		ldr	r3, [r4, #52]
 369 027c 0546     		mov	r5, r0
 370 027e FFF7FEFF 		bl	__aeabi_fcmplt
 371 0282 10B1     		cbz	r0, .L49
 372 0284 4FF0FF30 		mov	r0, #-1
 373 0288 70BD     		pop	{r4, r5, r6, pc}
 374              	.L49:
 375 028a 2846     		mov	r0, r5
 376 028c 4FF07E51 		mov	r1, #1065353216
 377 0290 FFF7FEFF 		bl	__aeabi_fcmpgt
 378 0294 50B9     		cbnz	r0, .L48
 379 0296 0026     		movs	r6, #0
 380 0298 0749     		ldr	r1, .L50+4
 381 029a 2846     		mov	r0, r5
 382 029c 6663     		str	r6, [r4, #52]
 383 029e FFF7FEFF 		bl	__aeabi_fmul
 384 02a2 FFF7FEFF 		bl	__aeabi_f2iz
 385 02a6 A063     		str	r0, [r4, #56]
 386 02a8 3046     		mov	r0, r6
 387 02aa 70BD     		pop	{r4, r5, r6, pc}
 388              	.L48:
 389 02ac 4FF0FF30 		mov	r0, #-1
 390 02b0 70BD     		pop	{r4, r5, r6, pc}
 391              	.L51:
 392 02b2 00BF     		.align	2
 393              	.L50:
 394 02b4 00800B40 		.word	1074495488
 395 02b8 00409C46 		.word	1184645120
 397              		.align	2
 398              		.global	digipot_setup
 399              		.thumb
 400              		.thumb_func
 402              	digipot_setup:
 403              		@ args = 0, pretend = 0, frame = 0
 404              		@ frame_needed = 0, uses_anonymous_args = 0
 405              		@ link register save eliminated.
 406 02bc 1F4A     		ldr	r2, .L53
 407 02be 70B4     		push	{r4, r5, r6}
 408 02c0 D2F8C460 		ldr	r6, [r2, #196]
 409 02c4 1E4B     		ldr	r3, .L53+4
 410 02c6 46F08161 		orr	r1, r6, #67633152
 411 02ca C2F8C410 		str	r1, [r2, #196]
 412 02ce D2F8AC41 		ldr	r4, [r2, #428]
 413 02d2 1C48     		ldr	r0, .L53+8
 414 02d4 44F0C005 		orr	r5, r4, #192
 415 02d8 C2F8AC51 		str	r5, [r2, #428]
 416 02dc D2F8AC61 		ldr	r6, [r2, #428]
 417 02e0 194D     		ldr	r5, .L53+12
 418 02e2 46F44014 		orr	r4, r6, #3145728
 419 02e6 C2F8AC41 		str	r4, [r2, #428]
 420 02ea 1E6C     		ldr	r6, [r3, #64]
 421 02ec 1749     		ldr	r1, .L53+16
 422 02ee 46F00A04 		orr	r4, r6, #10
 423 02f2 1C64     		str	r4, [r3, #64]
 424 02f4 1E6C     		ldr	r6, [r3, #64]
 425 02f6 3C22     		movs	r2, #60
 426 02f8 46F42006 		orr	r6, r6, #10485760
 427 02fc 1E64     		str	r6, [r3, #64]
 428 02fe 9E6E     		ldr	r6, [r3, #104]
 429 0300 4024     		movs	r4, #64
 430 0302 46F00306 		orr	r6, r6, #3
 431 0306 9E66     		str	r6, [r3, #104]
 432 0308 9E6E     		ldr	r6, [r3, #104]
 433 030a 46F44066 		orr	r6, r6, #3072
 434 030e 9E66     		str	r6, [r3, #104]
 435 0310 1E68     		ldr	r6, [r3, #0]
 436 0312 46F00F06 		orr	r6, r6, #15
 437 0316 1E60     		str	r6, [r3, #0]
 438 0318 1E68     		ldr	r6, [r3, #0]
 439 031a 46F42006 		orr	r6, r6, #10485760
 440 031e 1E60     		str	r6, [r3, #0]
 441 0320 4FF40063 		mov	r3, #2048
 442 0324 2B60     		str	r3, [r5, #0]
 443 0326 4FF48053 		mov	r3, #4096
 444 032a 2B60     		str	r3, [r5, #0]
 445 032c 4261     		str	r2, [r0, #20]
 446 032e 0261     		str	r2, [r0, #16]
 447 0330 4A61     		str	r2, [r1, #20]
 448 0332 0A61     		str	r2, [r1, #16]
 449 0334 0460     		str	r4, [r0, #0]
 450 0336 0C60     		str	r4, [r1, #0]
 451 0338 70BC     		pop	{r4, r5, r6}
 452 033a 7047     		bx	lr
 453              	.L54:
 454              		.align	2
 455              	.L53:
 456 033c 00C00F40 		.word	1074774016
 457 0340 00C00240 		.word	1073922048
 458 0344 00C00540 		.word	1074118656
 459 0348 00E100E0 		.word	-536813312
 460 034c 00000A40 		.word	1074397184
 462              		.align	2
 463              		.global	motor_brake
 464              		.thumb
 465              		.thumb_func
 467              	motor_brake:
 468              		@ args = 0, pretend = 0, frame = 0
 469              		@ frame_needed = 0, uses_anonymous_args = 0
 470 0350 70B5     		push	{r4, r5, r6, lr}
 471 0352 0F4C     		ldr	r4, .L60
 472 0354 0021     		movs	r1, #0
 473 0356 A36B     		ldr	r3, [r4, #56]
 474 0358 0546     		mov	r5, r0
 475 035a FFF7FEFF 		bl	__aeabi_fcmplt
 476 035e 10B1     		cbz	r0, .L59
 477 0360 4FF0FF30 		mov	r0, #-1
 478 0364 70BD     		pop	{r4, r5, r6, pc}
 479              	.L59:
 480 0366 2846     		mov	r0, r5
 481 0368 4FF07E51 		mov	r1, #1065353216
 482 036c FFF7FEFF 		bl	__aeabi_fcmpgt
 483 0370 50B9     		cbnz	r0, .L58
 484 0372 0026     		movs	r6, #0
 485 0374 0749     		ldr	r1, .L60+4
 486 0376 2846     		mov	r0, r5
 487 0378 A663     		str	r6, [r4, #56]
 488 037a FFF7FEFF 		bl	__aeabi_fmul
 489 037e FFF7FEFF 		bl	__aeabi_f2iz
 490 0382 6063     		str	r0, [r4, #52]
 491 0384 3046     		mov	r0, r6
 492 0386 70BD     		pop	{r4, r5, r6, pc}
 493              	.L58:
 494 0388 4FF0FF30 		mov	r0, #-1
 495 038c 70BD     		pop	{r4, r5, r6, pc}
 496              	.L61:
 497 038e 00BF     		.align	2
 498              	.L60:
 499 0390 00800B40 		.word	1074495488
 500 0394 00409C46 		.word	1184645120
 502              		.global	__aeabi_i2d
 503              		.global	__aeabi_dmul
 504              		.global	__aeabi_d2uiz
 505              		.align	2
 506              		.global	rgb_set
 507              		.thumb
 508              		.thumb_func
 510              	rgb_set:
 511              		@ args = 0, pretend = 0, frame = 0
 512              		@ frame_needed = 0, uses_anonymous_args = 0
 513 0398 70B5     		push	{r4, r5, r6, lr}
 514 039a 0546     		mov	r5, r0
 515 039c 0846     		mov	r0, r1
 516 039e 1646     		mov	r6, r2
 517 03a0 FFF7FEFF 		bl	__aeabi_i2d
 518 03a4 14A3     		adr	r3, .L63
 519 03a6 D3E90023 		ldrd	r2, [r3]
 520 03aa FFF7FEFF 		bl	__aeabi_dmul
 521 03ae FFF7FEFF 		bl	__aeabi_d2uiz
 522 03b2 134C     		ldr	r4, .L63+8
 523 03b4 0346     		mov	r3, r0
 524 03b6 2362     		str	r3, [r4, #32]
 525 03b8 3046     		mov	r0, r6
 526 03ba FFF7FEFF 		bl	__aeabi_i2d
 527 03be 0EA3     		adr	r3, .L63
 528 03c0 D3E90023 		ldrd	r2, [r3]
 529 03c4 FFF7FEFF 		bl	__aeabi_dmul
 530 03c8 FFF7FEFF 		bl	__aeabi_d2uiz
 531 03cc 0346     		mov	r3, r0
 532 03ce 6362     		str	r3, [r4, #36]
 533 03d0 2846     		mov	r0, r5
 534 03d2 FFF7FEFF 		bl	__aeabi_i2d
 535 03d6 08A3     		adr	r3, .L63
 536 03d8 D3E90023 		ldrd	r2, [r3]
 537 03dc FFF7FEFF 		bl	__aeabi_dmul
 538 03e0 FFF7FEFF 		bl	__aeabi_d2uiz
 539 03e4 2064     		str	r0, [r4, #64]
 540 03e6 236D     		ldr	r3, [r4, #80]
 541 03e8 0020     		movs	r0, #0
 542 03ea 43F01C03 		orr	r3, r3, #28
 543 03ee 2365     		str	r3, [r4, #80]
 544 03f0 70BD     		pop	{r4, r5, r6, pc}
 545              	.L64:
 546 03f2 00BFAFF3 		.align	3
 546      0080
 547              	.L63:
 548 03f8 5C8FC2F5 		.word	-171798692
 549 03fc 289C3340 		.word	1077124136
 550 0400 00800140 		.word	1073840128
 552              		.align	2
 553              		.global	rgb_setup
 554              		.thumb
 555              		.thumb_func
 557              	rgb_setup:
 558              		@ args = 0, pretend = 0, frame = 0
 559              		@ frame_needed = 0, uses_anonymous_args = 0
 560              		@ link register save eliminated.
 561 0404 0E4A     		ldr	r2, .L66
 562 0406 10B4     		push	{r4}
 563 0408 D2F8C440 		ldr	r4, [r2, #196]
 564 040c 0D48     		ldr	r0, .L66+4
 565 040e 44F04001 		orr	r1, r4, #64
 566 0412 C2F8C410 		str	r1, [r2, #196]
 567 0416 D2F8A841 		ldr	r4, [r2, #424]
 568 041a 0B4B     		ldr	r3, .L66+8
 569 041c 44F44054 		orr	r4, r4, #12288
 570 0420 C2F8A841 		str	r4, [r2, #424]
 571 0424 0269     		ldr	r2, [r0, #16]
 572 0426 0021     		movs	r1, #0
 573 0428 42F05402 		orr	r2, r2, #84
 574 042c 0261     		str	r2, [r0, #16]
 575 042e D86C     		ldr	r0, [r3, #76]
 576 0430 40F4E052 		orr	r2, r0, #7168
 577 0434 DA64     		str	r2, [r3, #76]
 578 0436 1964     		str	r1, [r3, #64]
 579 0438 5962     		str	r1, [r3, #36]
 580 043a 1962     		str	r1, [r3, #32]
 581 043c 10BC     		pop	{r4}
 582 043e 7047     		bx	lr
 583              	.L67:
 584              		.align	2
 585              	.L66:
 586 0440 00C00F40 		.word	1074774016
 587 0444 00C00240 		.word	1073922048
 588 0448 00800140 		.word	1073840128
 590              		.align	2
 591              		.global	mux_setup
 592              		.thumb
 593              		.thumb_func
 595              	mux_setup:
 596              		@ args = 0, pretend = 0, frame = 0
 597              		@ frame_needed = 0, uses_anonymous_args = 0
 598              		@ link register save eliminated.
 599 044c 094A     		ldr	r2, .L69
 600 044e 0A4B     		ldr	r3, .L69+4
 601 0450 516C     		ldr	r1, [r2, #68]
 602 0452 41F42820 		orr	r0, r1, #688128
 603 0456 5064     		str	r0, [r2, #68]
 604 0458 1968     		ldr	r1, [r3, #0]
 605 045a 41F09C50 		orr	r0, r1, #327155712
 606 045e 1860     		str	r0, [r3, #0]
 607 0460 DA69     		ldr	r2, [r3, #28]
 608 0462 42F06071 		orr	r1, r2, #58720256
 609 0466 D961     		str	r1, [r3, #28]
 610 0468 9869     		ldr	r0, [r3, #24]
 611 046a 40F08052 		orr	r2, r0, #268435456
 612 046e 9A61     		str	r2, [r3, #24]
 613 0470 7047     		bx	lr
 614              	.L70:
 615 0472 00BF     		.align	2
 616              	.L69:
 617 0474 00C00240 		.word	1073922048
 618 0478 00C00920 		.word	537509888
 620              		.align	2
 621              		.global	mux_set
 622              		.thumb
 623              		.thumb_func
 625              	mux_set:
 626              		@ args = 0, pretend = 0, frame = 0
 627              		@ frame_needed = 0, uses_anonymous_args = 0
 628              		@ link register save eliminated.
 629 047c 0728     		cmp	r0, #7
 630 047e 08D8     		bhi	.L73
 631 0480 C005     		lsls	r0, r0, #23
 632 0482 054B     		ldr	r3, .L74
 633 0484 C143     		mvns	r1, r0
 634 0486 01F06072 		and	r2, r1, #58720256
 635 048a 9861     		str	r0, [r3, #24]
 636 048c 0120     		movs	r0, #1
 637 048e DA61     		str	r2, [r3, #28]
 638 0490 7047     		bx	lr
 639              	.L73:
 640 0492 4FF0FF30 		mov	r0, #-1
 641 0496 7047     		bx	lr
 642              	.L75:
 643              		.align	2
 644              	.L74:
 645 0498 00C00920 		.word	537509888
 647              		.align	2
 648              		.global	motor_setup
 649              		.thumb
 650              		.thumb_func
 652              	motor_setup:
 653              		@ args = 0, pretend = 0, frame = 0
 654              		@ frame_needed = 0, uses_anonymous_args = 0
 655              		@ link register save eliminated.
 656 049c 1C48     		ldr	r0, .L77
 657 049e 30B4     		push	{r4, r5}
 658 04a0 D0F8C450 		ldr	r5, [r0, #196]
 659 04a4 1B4B     		ldr	r3, .L77+4
 660 04a6 45F40032 		orr	r2, r5, #131072
 661 04aa C0F8C420 		str	r2, [r0, #196]
 662 04ae D0F8AC41 		ldr	r4, [r0, #428]
 663 04b2 1949     		ldr	r1, .L77+8
 664 04b4 44F04045 		orr	r5, r4, #-1073741824
 665 04b8 C0F8AC51 		str	r5, [r0, #428]
 666 04bc 1C6C     		ldr	r4, [r3, #64]
 667 04be 174A     		ldr	r2, .L77+12
 668 04c0 44F40075 		orr	r5, r4, #512
 669 04c4 1D64     		str	r5, [r3, #64]
 670 04c6 986E     		ldr	r0, [r3, #104]
 671 04c8 40F01004 		orr	r4, r0, #16
 672 04cc 9C66     		str	r4, [r3, #104]
 673 04ce 5D6C     		ldr	r5, [r3, #68]
 674 04d0 44F62064 		movw	r4, #20000
 675 04d4 45F40010 		orr	r0, r5, #2097152
 676 04d8 5864     		str	r0, [r3, #68]
 677 04da DD6C     		ldr	r5, [r3, #76]
 678 04dc 0020     		movs	r0, #0
 679 04de 45F00275 		orr	r5, r5, #34078720
 680 04e2 DD64     		str	r5, [r3, #76]
 681 04e4 0D68     		ldr	r5, [r1, #0]
 682 04e6 45F04005 		orr	r5, r5, #64
 683 04ea 0D60     		str	r5, [r1, #0]
 684 04ec CD69     		ldr	r5, [r1, #28]
 685 04ee 45F04005 		orr	r5, r5, #64
 686 04f2 CD61     		str	r5, [r1, #28]
 687 04f4 D462     		str	r4, [r2, #44]
 688 04f6 0A49     		ldr	r1, .L77+16
 689 04f8 9063     		str	r0, [r2, #56]
 690 04fa 9462     		str	r4, [r2, #40]
 691 04fc 5063     		str	r0, [r2, #52]
 692 04fe 0948     		ldr	r0, .L77+20
 693 0500 D063     		str	r0, [r2, #60]
 694 0502 5160     		str	r1, [r2, #4]
 695 0504 D868     		ldr	r0, [r3, #12]
 696 0506 40F08272 		orr	r2, r0, #17039360
 697 050a DA60     		str	r2, [r3, #12]
 698 050c 30BC     		pop	{r4, r5}
 699 050e 7047     		bx	lr
 700              	.L78:
 701              		.align	2
 702              	.L77:
 703 0510 00C00F40 		.word	1074774016
 704 0514 00C00240 		.word	1073922048
 705 0518 00C00920 		.word	537509888
 706 051c 00800B40 		.word	1074495488
 707 0520 00050500 		.word	328960
 708 0524 00041000 		.word	1049600
 710              		.align	2
 711              		.global	EINT3_IRQHandler
 712              		.thumb
 713              		.thumb_func
 715              	EINT3_IRQHandler:
 716              		@ args = 0, pretend = 0, frame = 0
 717              		@ frame_needed = 0, uses_anonymous_args = 0
 718              		@ link register save eliminated.
 719 0528 084B     		ldr	r3, .L81
 720 052a 094A     		ldr	r2, .L81+4
 721 052c D868     		ldr	r0, [r3, #12]
 722 052e 40F40011 		orr	r1, r0, #2097152
 723 0532 D960     		str	r1, [r3, #12]
 724 0534 1368     		ldr	r3, [r2, #0]
 725 0536 3BB9     		cbnz	r3, .L79
 726 0538 0649     		ldr	r1, .L81+8
 727 053a 0868     		ldr	r0, [r1, #0]
 728 053c 80F00100 		eor	r0, r0, #1
 729 0540 0860     		str	r0, [r1, #0]
 730 0542 0120     		movs	r0, #1
 731 0544 1060     		str	r0, [r2, #0]
 732 0546 4B60     		str	r3, [r1, #4]
 733              	.L79:
 734 0548 7047     		bx	lr
 735              	.L82:
 736 054a 00BF     		.align	2
 737              	.L81:
 738 054c 80800240 		.word	1073905792
 739 0550 00000000 		.word	.LANCHOR0
 740 0554 00000000 		.word	.LANCHOR1
 742              		.align	2
 743              		.global	set_pot
 744              		.thumb
 745              		.thumb_func
 747              	set_pot:
 748              		@ args = 0, pretend = 0, frame = 0
 749              		@ frame_needed = 0, uses_anonymous_args = 0
 750 0558 10B5     		push	{r4, lr}
 751 055a 0B4C     		ldr	r4, .L89
 752 055c 6060     		str	r0, [r4, #4]
 753 055e 62B9     		cbnz	r2, .L84
 754 0560 A260     		str	r2, [r4, #8]
 755 0562 71B1     		cbz	r1, .L88
 756              	.L86:
 757 0564 5221     		movs	r1, #82
 758 0566 E160     		str	r1, [r4, #12]
 759              	.L87:
 760 0568 0848     		ldr	r0, .L89+4
 761 056a FFF7FEFF 		bl	printf
 762 056e 084B     		ldr	r3, .L89+8
 763 0570 0020     		movs	r0, #0
 764 0572 2022     		movs	r2, #32
 765 0574 2061     		str	r0, [r4, #16]
 766 0576 1A60     		str	r2, [r3, #0]
 767 0578 10BD     		pop	{r4, pc}
 768              	.L84:
 769 057a 1023     		movs	r3, #16
 770 057c A360     		str	r3, [r4, #8]
 771 057e 0029     		cmp	r1, #0
 772 0580 F0D1     		bne	.L86
 773              	.L88:
 774 0582 5020     		movs	r0, #80
 775 0584 E060     		str	r0, [r4, #12]
 776 0586 EFE7     		b	.L87
 777              	.L90:
 778              		.align	2
 779              	.L89:
 780 0588 00000000 		.word	.LANCHOR0
 781 058c 00000000 		.word	.LC0
 782 0590 00000A40 		.word	1074397184
 784              		.global	__aeabi_f2d
 785              		.global	__aeabi_dadd
 786              		.global	__aeabi_d2f
 787              		.global	__aeabi_dsub
 788              		.global	__aeabi_i2f
 789              		.global	__aeabi_fdiv
 790              		.global	__aeabi_fadd
 791              		.global	__aeabi_dcmpgt
 792              		.global	__aeabi_dcmplt
 793              		.global	__aeabi_fsub
 794              		.align	2
 795              		.global	main
 796              		.thumb
 797              		.thumb_func
 799              	main:
 800              		@ args = 0, pretend = 0, frame = 880
 801              		@ frame_needed = 0, uses_anonymous_args = 0
 802 0594 2DE9F04F 		push	{r4, r5, r6, r7, r8, r9, sl, fp, lr}
 803 0598 AB4E     		ldr	r6, .L185+8
 804 059a AC4F     		ldr	r7, .L185+12
 805 059c 7025     		movs	r5, #112
 806 059e ADF55D7D 		sub	sp, sp, #884
 807 05a2 3760     		str	r7, [r6, #0]
 808 05a4 46F8205C 		str	r5, [r6, #-32]
 809 05a8 FFF7FEFF 		bl	rgb_setup
 810 05ac 0020     		movs	r0, #0
 811 05ae FF21     		movs	r1, #255
 812 05b0 0246     		mov	r2, r0
 813 05b2 FFF7FEFF 		bl	rgb_set
 814 05b6 A64B     		ldr	r3, .L185+16
 815 05b8 A649     		ldr	r1, .L185+20
 816 05ba A748     		ldr	r0, .L185+24
 817 05bc 0022     		movs	r2, #0
 818 05be 0024     		movs	r4, #0
 819 05c0 DB94     		str	r4, [sp, #876]	@ float
 820 05c2 DA94     		str	r4, [sp, #872]	@ float
 821 05c4 D992     		str	r2, [sp, #868]
 822 05c6 D892     		str	r2, [sp, #864]
 823 05c8 D794     		str	r4, [sp, #860]	@ float
 824 05ca D694     		str	r4, [sp, #856]	@ float
 825 05cc D594     		str	r4, [sp, #852]	@ float
 826 05ce D491     		str	r1, [sp, #848]	@ float
 827 05d0 D390     		str	r0, [sp, #844]	@ float
 828 05d2 D293     		str	r3, [sp, #840]	@ float
 829 05d4 FFF7FEFF 		bl	motor_setup
 830 05d8 FFF7FEFF 		bl	mux_setup
 831 05dc FFF7FEFF 		bl	ui_setup
 832 05e0 FFF7FEFF 		bl	uart0_setup
 833 05e4 9D4B     		ldr	r3, .L185+28
 834 05e6 9E4A     		ldr	r2, .L185+32
 835              	.L92:
 836 05e8 13F8017F 		ldrb	r7, [r3, #1]!	@ zero_extendqisi2
 837 05ec 0FB1     		cbz	r7, .L179
 838 05ee 1770     		strb	r7, [r2, #0]
 839 05f0 FAE7     		b	.L92
 840              	.L179:
 841 05f2 FFF7FEFF 		bl	servo_setup
 842 05f6 6420     		movs	r0, #100
 843 05f8 FFF7FEFF 		bl	delay_ms
 844 05fc 3946     		mov	r1, r7
 845 05fe 3A46     		mov	r2, r7
 846 0600 3B46     		mov	r3, r7
 847 0602 0120     		movs	r0, #1
 848 0604 FFF7FEFF 		bl	ui_set
 849 0608 6420     		movs	r0, #100
 850 060a FFF7FEFF 		bl	delay_ms
 851 060e 0120     		movs	r0, #1
 852 0610 0146     		mov	r1, r0
 853 0612 3A46     		mov	r2, r7
 854 0614 3B46     		mov	r3, r7
 855 0616 FFF7FEFF 		bl	ui_set
 856 061a 6420     		movs	r0, #100
 857 061c FFF7FEFF 		bl	delay_ms
 858 0620 0120     		movs	r0, #1
 859 0622 0146     		mov	r1, r0
 860 0624 0246     		mov	r2, r0
 861 0626 3B46     		mov	r3, r7
 862 0628 FFF7FEFF 		bl	ui_set
 863 062c 6420     		movs	r0, #100
 864 062e FFF7FEFF 		bl	delay_ms
 865 0632 0120     		movs	r0, #1
 866 0634 0146     		mov	r1, r0
 867 0636 0246     		mov	r2, r0
 868 0638 0346     		mov	r3, r0
 869 063a FFF7FEFF 		bl	ui_set
 870 063e 6420     		movs	r0, #100
 871 0640 FFF7FEFF 		bl	delay_ms
 872 0644 3B46     		mov	r3, r7
 873 0646 3946     		mov	r1, r7
 874 0648 3A46     		mov	r2, r7
 875 064a 3846     		mov	r0, r7
 876 064c FFF7FEFF 		bl	ui_set
 877 0650 4FF07E50 		mov	r0, #1065353216
 878 0654 FFF7FEFF 		bl	servo_steer
 879 0658 0020     		movs	r0, #0
 880 065a FFF7FEFF 		bl	servo_steer
 881 065e 8148     		ldr	r0, .L185+36
 882 0660 FFF7FEFF 		bl	servo_steer
 883 0664 FFF7FEFF 		bl	ext_adc_setup
 884 0668 FF20     		movs	r0, #255
 885 066a 0146     		mov	r1, r0
 886 066c 3A46     		mov	r2, r7
 887 066e FFF7FEFF 		bl	rgb_set
 888 0672 0020     		movs	r0, #0
 889 0674 FFF7FEFF 		bl	servo_steer
 890 0678 FFF7FEFF 		bl	digipot_setup
 891 067c 7A4B     		ldr	r3, .L185+40
 892 067e 4FF40005 		mov	r5, #8388608
 893 0682 4FF04074 		mov	r4, #50331648
 894 0686 9D61     		str	r5, [r3, #24]
 895 0688 3946     		mov	r1, r7
 896 068a DC61     		str	r4, [r3, #28]
 897 068c 3A46     		mov	r2, r7
 898 068e A020     		movs	r0, #160
 899 0690 FFF7FEFF 		bl	set_pot
 900 0694 0520     		movs	r0, #5
 901 0696 FFF7FEFF 		bl	delay_ms
 902 069a 3946     		mov	r1, r7
 903 069c 0122     		movs	r2, #1
 904 069e E120     		movs	r0, #225
 905 06a0 FFF7FEFF 		bl	set_pot
 906 06a4 0520     		movs	r0, #5
 907 06a6 FFF7FEFF 		bl	delay_ms
 908 06aa 0121     		movs	r1, #1
 909 06ac 3A46     		mov	r2, r7
 910 06ae B420     		movs	r0, #180
 911 06b0 FFF7FEFF 		bl	set_pot
 912 06b4 0520     		movs	r0, #5
 913 06b6 FFF7FEFF 		bl	delay_ms
 914 06ba 0121     		movs	r1, #1
 915 06bc B420     		movs	r0, #180
 916 06be 0A46     		mov	r2, r1
 917 06c0 FFF7FEFF 		bl	set_pot
 918 06c4 DFF8B0A1 		ldr	sl, .L185+56
 919 06c8 684C     		ldr	r4, .L185+44
 920 06ca 3D46     		mov	r5, r7
 921              	.L176:
 922 06cc DAF80460 		ldr	r6, [sl, #4]
 923 06d0 96B1     		cbz	r6, .L180
 924 06d2 6069     		ldr	r0, [r4, #20]
 925 06d4 10F0805F 		tst	r0, #268435456
 926 06d8 00F0D080 		beq	.L95
 927 06dc FF20     		movs	r0, #255
 928 06de 0146     		mov	r1, r0
 929 06e0 0022     		movs	r2, #0
 930 06e2 FFF7FEFF 		bl	rgb_set
 931 06e6 002D     		cmp	r5, #0
 932 06e8 40F0A780 		bne	.L178
 933 06ec 0137     		adds	r7, r7, #1
 934 06ee 0F2F     		cmp	r7, #15
 935 06f0 00F3A280 		bgt	.L164
 936 06f4 0135     		adds	r5, r5, #1
 937 06f6 E9E7     		b	.L176
 938              	.L180:
 939 06f8 3146     		mov	r1, r6
 940 06fa 3246     		mov	r2, r6
 941 06fc FF20     		movs	r0, #255
 942 06fe FFF7FEFF 		bl	rgb_set
 943 0702 5B4B     		ldr	r3, .L185+48
 944 0704 3146     		mov	r1, r6
 945 0706 3222     		movs	r2, #50
 946 0708 3446     		mov	r4, r6
 947 070a 1846     		mov	r0, r3
 948              	.L102:
 949 070c 9C60     		str	r4, [r3, #8]
 950              	.L101:
 951 070e DD68     		ldr	r5, [r3, #12]
 952 0710 05F01408 		and	r8, r5, #20
 953 0714 B8F1040F 		cmp	r8, #4
 954 0718 F9D1     		bne	.L101
 955 071a 8668     		ldr	r6, [r0, #8]
 956 071c 01EB9601 		add	r1, r1, r6, lsr #2
 957 0720 4908     		lsrs	r1, r1, #1
 958 0722 013A     		subs	r2, r2, #1
 959 0724 F2D1     		bne	.L102
 960 0726 5348     		ldr	r0, .L185+52
 961 0728 FFF7FEFF 		bl	printf
 962 072c 504C     		ldr	r4, .L185+48
 963 072e 4E4B     		ldr	r3, .L185+40
 964 0730 4FF02075 		mov	r5, #41943040
 965 0734 0522     		movs	r2, #5
 966 0736 4FF08070 		mov	r0, #16777216
 967 073a 494E     		ldr	r6, .L185+32
 968 073c 9D61     		str	r5, [r3, #24]
 969 073e 4FF0010B 		mov	fp, #1
 970 0742 0392     		str	r2, [sp, #12]
 971 0744 2546     		mov	r5, r4
 972 0746 D861     		str	r0, [r3, #28]
 973              	.L161:
 974 0748 317D     		ldrb	r1, [r6, #20]	@ zero_extendqisi2
 975 074a E1B1     		cbz	r1, .L103
 976 074c 96F80080 		ldrb	r8, [r6, #0]	@ zero_extendqisi2
 977 0750 B8F1730F 		cmp	r8, #115
 978 0754 00F0EC81 		beq	.L181
 979              	.L104:
 980 0758 B8F13D0F 		cmp	r8, #61
 981 075c 00F0C381 		beq	.L182
 982 0760 B8F12D0F 		cmp	r8, #45
 983 0764 00F0BD81 		beq	.L183
 984 0768 B8F1310F 		cmp	r8, #49
 985 076c 40F02482 		bne	.L113
 986 0770 D498     		ldr	r0, [sp, #848]	@ float
 987 0772 FFF7FEFF 		bl	__aeabi_f2d
 988 0776 32A3     		adr	r3, .L185
 989 0778 D3E90023 		ldrd	r2, [r3]
 990 077c FFF7FEFF 		bl	__aeabi_dadd
 991 0780 FFF7FEFF 		bl	__aeabi_d2f
 992 0784 D490     		str	r0, [sp, #848]	@ float
 993              	.L103:
 994 0786 0022     		movs	r2, #0
 995 0788 1146     		mov	r1, r2
 996              	.L119:
 997 078a A160     		str	r1, [r4, #8]
 998              	.L118:
 999 078c E068     		ldr	r0, [r4, #12]
 1000 078e 00F01409 		and	r9, r0, #20
 1001 0792 B9F1040F 		cmp	r9, #4
 1002 0796 F9D1     		bne	.L118
 1003 0798 A868     		ldr	r0, [r5, #8]
 1004 079a 0DF1100C 		add	ip, sp, #16
 1005 079e 8308     		lsrs	r3, r0, #2
 1006 07a0 4CF82230 		str	r3, [ip, r2, lsl #2]
 1007 07a4 0132     		adds	r2, r2, #1
 1008 07a6 0F2A     		cmp	r2, #15
 1009 07a8 EFD1     		bne	.L119
 1010 07aa 049B     		ldr	r3, [sp, #16]
 1011 07ac 002B     		cmp	r3, #0
 1012 07ae C8BF     		it	gt
 1013 07b0 049B     		ldrgt	r3, [sp, #16]
 1014 07b2 059A     		ldr	r2, [sp, #20]
 1015 07b4 D8BF     		it	le
 1016 07b6 0023     		movle	r3, #0
 1017 07b8 9A42     		cmp	r2, r3
 1018 07ba C8BF     		it	gt
 1019 07bc 059B     		ldrgt	r3, [sp, #20]
 1020 07be 0699     		ldr	r1, [sp, #24]
 1021 07c0 8B42     		cmp	r3, r1
 1022 07c2 B8BF     		it	lt
 1023 07c4 069B     		ldrlt	r3, [sp, #24]
 1024 07c6 0798     		ldr	r0, [sp, #28]
 1025 07c8 8342     		cmp	r3, r0
 1026 07ca B8BF     		it	lt
 1027 07cc 079B     		ldrlt	r3, [sp, #28]
 1028 07ce 089A     		ldr	r2, [sp, #32]
 1029 07d0 9342     		cmp	r3, r2
 1030 07d2 B8BF     		it	lt
 1031 07d4 089B     		ldrlt	r3, [sp, #32]
 1032 07d6 0999     		ldr	r1, [sp, #36]
 1033 07d8 8B42     		cmp	r3, r1
 1034 07da B8BF     		it	lt
 1035 07dc 099B     		ldrlt	r3, [sp, #36]
 1036 07de 0A98     		ldr	r0, [sp, #40]
 1037 07e0 8342     		cmp	r3, r0
 1038 07e2 B8BF     		it	lt
 1039 07e4 0A9B     		ldrlt	r3, [sp, #40]
 1040 07e6 0B9A     		ldr	r2, [sp, #44]
 1041 07e8 9342     		cmp	r3, r2
 1042 07ea B8BF     		it	lt
 1043 07ec 0B9B     		ldrlt	r3, [sp, #44]
 1044 07ee 0C99     		ldr	r1, [sp, #48]
 1045 07f0 8B42     		cmp	r3, r1
 1046 07f2 B8BF     		it	lt
 1047 07f4 0C9B     		ldrlt	r3, [sp, #48]
 1048 07f6 0D98     		ldr	r0, [sp, #52]
 1049 07f8 8342     		cmp	r3, r0
 1050 07fa B8BF     		it	lt
 1051 07fc 0D9B     		ldrlt	r3, [sp, #52]
 1052 07fe 0E9A     		ldr	r2, [sp, #56]
 1053 0800 9342     		cmp	r3, r2
 1054 0802 B8BF     		it	lt
 1055 0804 0E9B     		ldrlt	r3, [sp, #56]
 1056 0806 0F99     		ldr	r1, [sp, #60]
 1057 0808 8B42     		cmp	r3, r1
 1058 080a B8BF     		it	lt
 1059 080c 0F9B     		ldrlt	r3, [sp, #60]
 1060 080e 1098     		ldr	r0, [sp, #64]
 1061 0810 8342     		cmp	r3, r0
 1062 0812 B8BF     		it	lt
 1063 0814 109B     		ldrlt	r3, [sp, #64]
 1064 0816 119A     		ldr	r2, [sp, #68]
 1065 0818 9342     		cmp	r3, r2
 1066 081a B8BF     		it	lt
 1067 081c 119B     		ldrlt	r3, [sp, #68]
 1068 081e 1299     		ldr	r1, [sp, #72]
 1069 0820 9942     		cmp	r1, r3
 1070 0822 C8BF     		it	gt
 1071 0824 129B     		ldrgt	r3, [sp, #72]
 1072 0826 BBF1030F 		cmp	fp, #3
 1073 082a 54D8     		bhi	.L162
 1074 082c DFE81BF0 		tbh	[pc, fp, lsl #1]
 1075              	.L140:
 1076 0830 4E00     		.2byte	(.L136-.L140)/2
 1077 0832 0A01     		.2byte	(.L137-.L140)/2
 1078 0834 0401     		.2byte	(.L138-.L140)/2
 1079 0836 FE00     		.2byte	(.L139-.L140)/2
 1080              	.L164:
 1081 0838 2F46     		mov	r7, r5
 1082              	.L178:
 1083 083a 0125     		movs	r5, #1
 1084 083c 46E7     		b	.L176
 1085              	.L186:
 1086 083e 00BF     		.align	3
 1087              	.L185:
 1088 0840 9A999999 		.word	-1717986918
 1089 0844 9999B93F 		.word	1069128089
 1090 0848 20C00920 		.word	537509920
 1091 084c 00000408 		.word	134479872
 1092 0850 0AD7233C 		.word	1008981770
 1093 0854 CDCC8C3F 		.word	1066192077
 1094 0858 3333333F 		.word	1060320051
 1095 085c FFFFFFFF 		.word	.LC1-1
 1096 0860 00C00040 		.word	1073790976
 1097 0864 5C8F023F 		.word	1057132380
 1098 0868 00C00920 		.word	537509888
 1099 086c 80C00920 		.word	537510016
 1100 0870 00800840 		.word	1074298880
 1101 0874 28000000 		.word	.LC2
 1102 0878 00000000 		.word	.LANCHOR1
 1103              	.L95:
 1104 087c A649     		ldr	r1, .L187+40
 1105 087e 7A10     		asrs	r2, r7, #1
 1106 0880 02EA0101 		and	r1, r2, r1
 1107 0884 0029     		cmp	r1, #0
 1108 0886 07F00100 		and	r0, r7, #1
 1109 088a 03DA     		bge	.L97
 1110 088c 4B1E     		subs	r3, r1, #1
 1111 088e 63F00106 		orn	r6, r3, #1
 1112 0892 711C     		adds	r1, r6, #1
 1113              	.L97:
 1114 0894 A04D     		ldr	r5, .L187+40
 1115 0896 BA10     		asrs	r2, r7, #2
 1116 0898 2A40     		ands	r2, r2, r5
 1117 089a 002A     		cmp	r2, #0
 1118 089c 03DA     		bge	.L98
 1119 089e 531E     		subs	r3, r2, #1
 1120 08a0 63F00106 		orn	r6, r3, #1
 1121 08a4 721C     		adds	r2, r6, #1
 1122              	.L98:
 1123 08a6 9C4E     		ldr	r6, .L187+40
 1124 08a8 FD10     		asrs	r5, r7, #3
 1125 08aa 05EA0603 		and	r3, r5, r6
 1126 08ae 002B     		cmp	r3, #0
 1127 08b0 03DA     		bge	.L99
 1128 08b2 5E1E     		subs	r6, r3, #1
 1129 08b4 66F00103 		orn	r3, r6, #1
 1130 08b8 0133     		adds	r3, r3, #1
 1131              	.L99:
 1132 08ba FFF7FEFF 		bl	ui_set
 1133 08be 0020     		movs	r0, #0
 1134 08c0 0146     		mov	r1, r0
 1135 08c2 FF22     		movs	r2, #255
 1136 08c4 FFF7FEFF 		bl	rgb_set
 1137 08c8 0025     		movs	r5, #0
 1138 08ca FFE6     		b	.L176
 1139              	.L136:
 1140 08cc 0522     		movs	r2, #5
 1141 08ce CE93     		str	r3, [sp, #824]
 1142 08d0 0392     		str	r2, [sp, #12]
 1143 08d2 4FF0010B 		mov	fp, #1
 1144              	.L162:
 1145 08d6 0399     		ldr	r1, [sp, #12]
 1146 08d8 904B     		ldr	r3, .L187+44
 1147 08da CA05     		lsls	r2, r1, #23
 1148 08dc D043     		mvns	r0, r2
 1149 08de 00F06071 		and	r1, r0, #58720256
 1150 08e2 9A61     		str	r2, [r3, #24]
 1151 08e4 D961     		str	r1, [r3, #28]
 1152 08e6 CE98     		ldr	r0, [sp, #824]
 1153 08e8 CF9A     		ldr	r2, [sp, #828]
 1154 08ea 40F6B833 		movw	r3, #3000
 1155 08ee 811A     		subs	r1, r0, r2
 1156 08f0 D891     		str	r1, [sp, #864]
 1157 08f2 D098     		ldr	r0, [sp, #832]
 1158 08f4 D19A     		ldr	r2, [sp, #836]
 1159 08f6 811A     		subs	r1, r0, r2
 1160 08f8 D991     		str	r1, [sp, #868]
 1161 08fa CF98     		ldr	r0, [sp, #828]
 1162 08fc 9842     		cmp	r0, r3
 1163 08fe 00F3A780 		bgt	.L143
 1164 0902 CE9A     		ldr	r2, [sp, #824]
 1165 0904 9A42     		cmp	r2, r3
 1166 0906 00F3A380 		bgt	.L143
 1167 090a CC9B     		ldr	r3, [sp, #816]
 1168 090c 33B9     		cbnz	r3, .L146
 1169 090e CF98     		ldr	r0, [sp, #828]
 1170 0910 CE99     		ldr	r1, [sp, #824]
 1171 0912 8842     		cmp	r0, r1
 1172 0914 40F35F81 		ble	.L147
 1173 0918 5A1C     		adds	r2, r3, #1
 1174 091a CD92     		str	r2, [sp, #820]
 1175              	.L146:
 1176 091c 0123     		movs	r3, #1
 1177 091e CC93     		str	r3, [sp, #816]
 1178              	.L145:
 1179 0920 DDF85C93 		ldr	r9, [sp, #860]	@ float
 1180 0924 4FF03F41 		mov	r1, #-1090519040
 1181 0928 D798     		ldr	r0, [sp, #860]	@ float
 1182 092a 4FF00108 		mov	r8, #1
 1183 092e FFF7FEFF 		bl	__aeabi_fcmplt
 1184 0932 08B9     		cbnz	r0, .L149
 1185 0934 4FF00008 		mov	r8, #0
 1186              	.L149:
 1187 0938 18F0FF0F 		tst	r8, #255
 1188 093c 11D0     		beq	.L148
 1189 093e 4846     		mov	r0, r9
 1190 0940 4FF07C51 		mov	r1, #1056964608
 1191 0944 4FF00108 		mov	r8, #1
 1192 0948 FFF7FEFF 		bl	__aeabi_fcmpgt
 1193 094c 08B9     		cbnz	r0, .L150
 1194 094e 4FF00008 		mov	r8, #0
 1195              	.L150:
 1196 0952 18F0FF0F 		tst	r8, #255
 1197 0956 04D0     		beq	.L148
 1198 0958 D698     		ldr	r0, [sp, #856]	@ float
 1199 095a D799     		ldr	r1, [sp, #860]	@ float
 1200 095c FFF7FEFF 		bl	__aeabi_fadd
 1201 0960 D690     		str	r0, [sp, #856]	@ float
 1202              	.L148:
 1203 0962 DDF85C93 		ldr	r9, [sp, #860]	@ float
 1204 0966 D798     		ldr	r0, [sp, #860]	@ float
 1205 0968 FFF7FEFF 		bl	__aeabi_f2d
 1206 096c 60A3     		adr	r3, .L187
 1207 096e D3E90023 		ldrd	r2, [r3]
 1208 0972 4FF00108 		mov	r8, #1
 1209 0976 FFF7FEFF 		bl	__aeabi_dcmpgt
 1210 097a 00B9     		cbnz	r0, .L152
 1211 097c 8046     		mov	r8, r0
 1212              	.L152:
 1213 097e 18F0FF0F 		tst	r8, #255
 1214 0982 6FD0     		beq	.L151
 1215 0984 4846     		mov	r0, r9
 1216 0986 FFF7FEFF 		bl	__aeabi_f2d
 1217 098a 5BA3     		adr	r3, .L187+8
 1218 098c D3E90023 		ldrd	r2, [r3]
 1219 0990 FFF7FEFF 		bl	__aeabi_dcmplt
 1220 0994 0123     		movs	r3, #1
 1221 0996 00B9     		cbnz	r0, .L153
 1222 0998 0346     		mov	r3, r0
 1223              	.L153:
 1224 099a 13F0FF0F 		tst	r3, #255
 1225 099e 61D0     		beq	.L151
 1226 09a0 0020     		movs	r0, #0
 1227 09a2 D690     		str	r0, [sp, #856]	@ float
 1228              	.L154:
 1229 09a4 012F     		cmp	r7, #1
 1230 09a6 2ADD     		ble	.L157
 1231 09a8 3846     		mov	r0, r7
 1232 09aa FFF7FEFF 		bl	__aeabi_i2f
 1233 09ae FFF7FEFF 		bl	__aeabi_f2d
 1234 09b2 53A3     		adr	r3, .L187+16
 1235 09b4 D3E90023 		ldrd	r2, [r3]
 1236 09b8 FFF7FEFF 		bl	__aeabi_dmul
 1237 09bc 52A3     		adr	r3, .L187+24
 1238 09be D3E90023 		ldrd	r2, [r3]
 1239 09c2 FFF7FEFF 		bl	__aeabi_dadd
 1240 09c6 FFF7FEFF 		bl	__aeabi_d2f
 1241 09ca DFF86081 		ldr	r8, .L187+60
 1242 09ce 0021     		movs	r1, #0
 1243 09d0 D8F83430 		ldr	r3, [r8, #52]
 1244 09d4 8146     		mov	r9, r0
 1245 09d6 FFF7FEFF 		bl	__aeabi_fcmplt
 1246 09da 80B9     		cbnz	r0, .L157
 1247 09dc 4846     		mov	r0, r9
 1248 09de 4FF07E51 		mov	r1, #1065353216
 1249 09e2 FFF7FEFF 		bl	__aeabi_fcmpgt
 1250 09e6 50B9     		cbnz	r0, .L157
 1251 09e8 0022     		movs	r2, #0
 1252 09ea 4D49     		ldr	r1, .L187+48
 1253 09ec C8F83420 		str	r2, [r8, #52]
 1254 09f0 4846     		mov	r0, r9
 1255 09f2 FFF7FEFF 		bl	__aeabi_fmul
 1256 09f6 FFF7FEFF 		bl	__aeabi_f2iz
 1257 09fa C8F83800 		str	r0, [r8, #56]
 1258              	.L157:
 1259 09fe D798     		ldr	r0, [sp, #860]	@ float
 1260 0a00 DA99     		ldr	r1, [sp, #872]	@ float
 1261 0a02 FFF7FEFF 		bl	__aeabi_fsub
 1262 0a06 4FF07C51 		mov	r1, #1056964608
 1263 0a0a FFF7FEFF 		bl	__aeabi_fmul
 1264 0a0e DB90     		str	r0, [sp, #876]	@ float
 1265 0a10 CC99     		ldr	r1, [sp, #816]
 1266 0a12 0029     		cmp	r1, #0
 1267 0a14 3FD0     		beq	.L184
 1268 0a16 CD99     		ldr	r1, [sp, #820]
 1269 0a18 0029     		cmp	r1, #0
 1270 0a1a 37D0     		beq	.L160
 1271 0a1c 4148     		ldr	r0, .L187+52
 1272 0a1e FFF7FEFF 		bl	servo_steer
 1273              	.L159:
 1274 0a22 DDF85CE3 		ldr	lr, [sp, #860]	@ float
 1275 0a26 CDF868E3 		str	lr, [sp, #872]	@ float
 1276 0a2a 8DE6     		b	.L161
 1277              	.L139:
 1278 0a2c 0620     		movs	r0, #6
 1279 0a2e D193     		str	r3, [sp, #836]
 1280 0a30 0390     		str	r0, [sp, #12]
 1281 0a32 4FF0020B 		mov	fp, #2
 1282 0a36 4EE7     		b	.L162
 1283              	.L138:
 1284 0a38 0421     		movs	r1, #4
 1285 0a3a CF93     		str	r3, [sp, #828]
 1286 0a3c 0391     		str	r1, [sp, #12]
 1287 0a3e 4FF0000B 		mov	fp, #0
 1288 0a42 48E7     		b	.L162
 1289              	.L137:
 1290 0a44 D093     		str	r3, [sp, #832]
 1291 0a46 0723     		movs	r3, #7
 1292 0a48 0393     		str	r3, [sp, #12]
 1293 0a4a 4FF0030B 		mov	fp, #3
 1294 0a4e 42E7     		b	.L162
 1295              	.L143:
 1296 0a50 D998     		ldr	r0, [sp, #868]
 1297 0a52 FFF7FEFF 		bl	__aeabi_i2f
 1298 0a56 3449     		ldr	r1, .L187+56
 1299 0a58 FFF7FEFF 		bl	__aeabi_fdiv
 1300 0a5c 0023     		movs	r3, #0
 1301 0a5e D790     		str	r0, [sp, #860]	@ float
 1302 0a60 CC93     		str	r3, [sp, #816]
 1303 0a62 5DE7     		b	.L145
 1304              	.L151:
 1305 0a64 4FF00008 		mov	r8, #0
 1306 0a68 D598     		ldr	r0, [sp, #852]	@ float
 1307 0a6a 4146     		mov	r1, r8
 1308 0a6c FFF7FEFF 		bl	__aeabi_fcmpgt
 1309 0a70 0028     		cmp	r0, #0
 1310 0a72 33D0     		beq	.L177
 1311 0a74 D598     		ldr	r0, [sp, #852]	@ float
 1312 0a76 FFF7FEFF 		bl	__aeabi_f2d
 1313 0a7a 25A3     		adr	r3, .L187+32
 1314 0a7c D3E90023 		ldrd	r2, [r3]
 1315 0a80 FFF7FEFF 		bl	__aeabi_dsub
 1316 0a84 FFF7FEFF 		bl	__aeabi_d2f
 1317 0a88 D590     		str	r0, [sp, #852]	@ float
 1318 0a8a 8BE7     		b	.L154
 1319              	.L160:
 1320 0a8c 4FF07E50 		mov	r0, #1065353216
 1321 0a90 FFF7FEFF 		bl	servo_steer
 1322 0a94 C5E7     		b	.L159
 1323              	.L184:
 1324 0a96 D798     		ldr	r0, [sp, #860]	@ float
 1325 0a98 D499     		ldr	r1, [sp, #848]	@ float
 1326 0a9a FFF7FEFF 		bl	__aeabi_fmul
 1327 0a9e DDF86C83 		ldr	r8, [sp, #876]	@ float
 1328 0aa2 DDF84C93 		ldr	r9, [sp, #844]	@ float
 1329 0aa6 D69A     		ldr	r2, [sp, #856]	@ float
 1330 0aa8 0346     		mov	r3, r0
 1331 0aaa 4946     		mov	r1, r9
 1332 0aac 4046     		mov	r0, r8
 1333 0aae 0292     		str	r2, [sp, #8]
 1334 0ab0 0193     		str	r3, [sp, #4]
 1335 0ab2 FFF7FEFF 		bl	__aeabi_fmul
 1336 0ab6 0146     		mov	r1, r0
 1337 0ab8 0198     		ldr	r0, [sp, #4]
 1338 0aba FFF7FEFF 		bl	__aeabi_fadd
 1339 0abe DDF84883 		ldr	r8, [sp, #840]	@ float
 1340 0ac2 029B     		ldr	r3, [sp, #8]
 1341 0ac4 8146     		mov	r9, r0
 1342 0ac6 4146     		mov	r1, r8
 1343 0ac8 1846     		mov	r0, r3
 1344 0aca FFF7FEFF 		bl	__aeabi_fmul
 1345 0ace 0146     		mov	r1, r0
 1346 0ad0 4846     		mov	r0, r9
 1347 0ad2 FFF7FEFF 		bl	__aeabi_fadd
 1348 0ad6 FFF7FEFF 		bl	servo_steer
 1349 0ada A2E7     		b	.L159
 1350              	.L177:
 1351 0adc CDF85483 		str	r8, [sp, #852]	@ float
 1352 0ae0 60E7     		b	.L154
 1353              	.L183:
 1354 0ae2 013F     		subs	r7, r7, #1
 1355 0ae4 4FE6     		b	.L103
 1356              	.L182:
 1357 0ae6 0137     		adds	r7, r7, #1
 1358 0ae8 4DE6     		b	.L103
 1359              	.L188:
 1360 0aea 00BFAFF3 		.align	3
 1360      0080
 1361              	.L187:
 1362 0af0 9A999999 		.word	-1717986918
 1363 0af4 9999B9BF 		.word	-1078355559
 1364 0af8 9A999999 		.word	-1717986918
 1365 0afc 9999B93F 		.word	1069128089
 1366 0b00 7B14AE47 		.word	1202590843
 1367 0b04 E17A843F 		.word	1065646817
 1368 0b08 9A999999 		.word	-1717986918
 1369 0b0c 9999A93F 		.word	1068079513
 1370 0b10 FCA9F1D2 		.word	-755914244
 1371 0b14 4D62503F 		.word	1062232653
 1372 0b18 01000080 		.word	-2147483647
 1373 0b1c 00C00920 		.word	537509888
 1374 0b20 00409C46 		.word	1184645120
 1375 0b24 000080BF 		.word	-1082130432
 1376 0b28 0000FA44 		.word	1157234688
 1377 0b2c 00800B40 		.word	1074495488
 1378              	.L181:
 1379 0b30 0120     		movs	r0, #1
 1380 0b32 4F4B     		ldr	r3, .L189+24
 1381 0b34 CAF80400 		str	r0, [sl, #4]
 1382 0b38 4FF04509 		mov	r9, #69
 1383              	.L105:
 1384 0b3c 86F80090 		strb	r9, [r6, #0]
 1385 0b40 13F8019F 		ldrb	r9, [r3, #1]!	@ zero_extendqisi2
 1386 0b44 B9F1000F 		cmp	r9, #0
 1387 0b48 F8D1     		bne	.L105
 1388 0b4a 4A4B     		ldr	r3, .L189+28
 1389 0b4c 4946     		mov	r1, r9
 1390 0b4e FF22     		movs	r2, #255
 1391 0b50 4846     		mov	r0, r9
 1392 0b52 0193     		str	r3, [sp, #4]
 1393 0b54 FFF7FEFF 		bl	rgb_set
 1394 0b58 0199     		ldr	r1, [sp, #4]
 1395 0b5a 0120     		movs	r0, #1
 1396 0b5c 4A6B     		ldr	r2, [r1, #52]
 1397 0b5e C1F83490 		str	r9, [r1, #52]
 1398 0b62 C1F83890 		str	r9, [r1, #56]
 1399 0b66 FFF7FEFF 		bl	delay_ms
 1400 0b6a 019B     		ldr	r3, [sp, #4]
 1401 0b6c 9A6B     		ldr	r2, [r3, #56]
 1402 0b6e 44F62062 		movw	r2, #20000
 1403 0b72 C3F83890 		str	r9, [r3, #56]
 1404 0b76 5A63     		str	r2, [r3, #52]
 1405              	.L175:
 1406 0b78 DAF80430 		ldr	r3, [sl, #4]
 1407 0b7c 002B     		cmp	r3, #0
 1408 0b7e 3FF4EBAD 		beq	.L104
 1409 0b82 96F80080 		ldrb	r8, [r6, #0]	@ zero_extendqisi2
 1410 0b86 B8F1720F 		cmp	r8, #114
 1411 0b8a F5D1     		bne	.L175
 1412 0b8c 3949     		ldr	r1, .L189+28
 1413 0b8e 0020     		movs	r0, #0
 1414 0b90 394A     		ldr	r2, .L189+32
 1415 0b92 8B6B     		ldr	r3, [r1, #56]
 1416 0b94 8863     		str	r0, [r1, #56]
 1417 0b96 5223     		movs	r3, #82
 1418 0b98 4863     		str	r0, [r1, #52]
 1419              	.L108:
 1420 0b9a 3370     		strb	r3, [r6, #0]
 1421 0b9c 12F8013F 		ldrb	r3, [r2, #1]!	@ zero_extendqisi2
 1422 0ba0 002B     		cmp	r3, #0
 1423 0ba2 FAD1     		bne	.L108
 1424 0ba4 1A46     		mov	r2, r3
 1425 0ba6 FF20     		movs	r0, #255
 1426 0ba8 1946     		mov	r1, r3
 1427 0baa 0193     		str	r3, [sp, #4]
 1428 0bac FFF7FEFF 		bl	rgb_set
 1429 0bb0 019A     		ldr	r2, [sp, #4]
 1430 0bb2 CAF80420 		str	r2, [sl, #4]
 1431 0bb6 DFE7     		b	.L175
 1432              	.L113:
 1433 0bb8 B8F1320F 		cmp	r8, #50
 1434 0bbc 0DD1     		bne	.L115
 1435 0bbe D498     		ldr	r0, [sp, #848]	@ float
 1436 0bc0 FFF7FEFF 		bl	__aeabi_f2d
 1437 0bc4 24A3     		adr	r3, .L189
 1438 0bc6 D3E90023 		ldrd	r2, [r3]
 1439 0bca FFF7FEFF 		bl	__aeabi_dsub
 1440 0bce FFF7FEFF 		bl	__aeabi_d2f
 1441 0bd2 D490     		str	r0, [sp, #848]	@ float
 1442 0bd4 D7E5     		b	.L103
 1443              	.L147:
 1444 0bd6 CD93     		str	r3, [sp, #820]
 1445 0bd8 A0E6     		b	.L146
 1446              	.L115:
 1447 0bda B8F1330F 		cmp	r8, #51
 1448 0bde 0BD1     		bne	.L116
 1449 0be0 D398     		ldr	r0, [sp, #844]	@ float
 1450 0be2 FFF7FEFF 		bl	__aeabi_f2d
 1451 0be6 1EA3     		adr	r3, .L189+8
 1452 0be8 D3E90023 		ldrd	r2, [r3]
 1453 0bec FFF7FEFF 		bl	__aeabi_dadd
 1454 0bf0 FFF7FEFF 		bl	__aeabi_d2f
 1455 0bf4 D390     		str	r0, [sp, #844]	@ float
 1456 0bf6 C6E5     		b	.L103
 1457              	.L116:
 1458 0bf8 B8F1340F 		cmp	r8, #52
 1459 0bfc 0BD1     		bne	.L114
 1460 0bfe D398     		ldr	r0, [sp, #844]	@ float
 1461 0c00 FFF7FEFF 		bl	__aeabi_f2d
 1462 0c04 16A3     		adr	r3, .L189+8
 1463 0c06 D3E90023 		ldrd	r2, [r3]
 1464 0c0a FFF7FEFF 		bl	__aeabi_dsub
 1465 0c0e FFF7FEFF 		bl	__aeabi_d2f
 1466 0c12 D390     		str	r0, [sp, #844]	@ float
 1467 0c14 B7E5     		b	.L103
 1468              	.L114:
 1469 0c16 B8F1350F 		cmp	r8, #53
 1470 0c1a 0BD1     		bne	.L117
 1471 0c1c D298     		ldr	r0, [sp, #840]	@ float
 1472 0c1e FFF7FEFF 		bl	__aeabi_f2d
 1473 0c22 11A3     		adr	r3, .L189+16
 1474 0c24 D3E90023 		ldrd	r2, [r3]
 1475 0c28 FFF7FEFF 		bl	__aeabi_dadd
 1476 0c2c FFF7FEFF 		bl	__aeabi_d2f
 1477 0c30 D290     		str	r0, [sp, #840]	@ float
 1478 0c32 A8E5     		b	.L103
 1479              	.L117:
 1480 0c34 B8F1360F 		cmp	r8, #54
 1481 0c38 7FF4A5AD 		bne	.L103
 1482 0c3c D298     		ldr	r0, [sp, #840]	@ float
 1483 0c3e FFF7FEFF 		bl	__aeabi_f2d
 1484 0c42 09A3     		adr	r3, .L189+16
 1485 0c44 D3E90023 		ldrd	r2, [r3]
 1486 0c48 FFF7FEFF 		bl	__aeabi_dsub
 1487 0c4c FFF7FEFF 		bl	__aeabi_d2f
 1488 0c50 D290     		str	r0, [sp, #840]	@ float
 1489 0c52 98E5     		b	.L103
 1490              	.L190:
 1491 0c54 AFF30080 		.align	3
 1492              	.L189:
 1493 0c58 9A999999 		.word	-1717986918
 1494 0c5c 9999B93F 		.word	1069128089
 1495 0c60 9A999999 		.word	-1717986918
 1496 0c64 9999A93F 		.word	1068079513
 1497 0c68 7B14AE47 		.word	1202590843
 1498 0c6c E17A843F 		.word	1065646817
 1499 0c70 38000000 		.word	.LC3
 1500 0c74 00800B40 		.word	1074495488
 1501 0c78 48000000 		.word	.LC4
 1503              		.align	2
 1504              		.global	I2C2_IRQHandler
 1505              		.thumb
 1506              		.thumb_func
 1508              	I2C2_IRQHandler:
 1509              		@ args = 0, pretend = 0, frame = 0
 1510              		@ frame_needed = 0, uses_anonymous_args = 0
 1511 0c7c 6D4B     		ldr	r3, .L210
 1512 0c7e 10B5     		push	{r4, lr}
 1513 0c80 5C68     		ldr	r4, [r3, #4]
 1514 0c82 6D48     		ldr	r0, .L210+4
 1515 0c84 2146     		mov	r1, r4
 1516 0c86 083C     		subs	r4, r4, #8
 1517 0c88 FFF7FEFF 		bl	printf
 1518 0c8c 502C     		cmp	r4, #80
 1519 0c8e 71D8     		bhi	.L192
 1520 0c90 DFE814F0 		tbh	[pc, r4, lsl #1]
 1521              	.L203:
 1522 0c94 7900     		.2byte	(.L193-.L203)/2
 1523 0c96 7000     		.2byte	(.L192-.L203)/2
 1524 0c98 7000     		.2byte	(.L192-.L203)/2
 1525 0c9a 7000     		.2byte	(.L192-.L203)/2
 1526 0c9c 7000     		.2byte	(.L192-.L203)/2
 1527 0c9e 7000     		.2byte	(.L192-.L203)/2
 1528 0ca0 7000     		.2byte	(.L192-.L203)/2
 1529 0ca2 7000     		.2byte	(.L192-.L203)/2
 1530 0ca4 8600     		.2byte	(.L194-.L203)/2
 1531 0ca6 7000     		.2byte	(.L192-.L203)/2
 1532 0ca8 7000     		.2byte	(.L192-.L203)/2
 1533 0caa 7000     		.2byte	(.L192-.L203)/2
 1534 0cac 7000     		.2byte	(.L192-.L203)/2
 1535 0cae 7000     		.2byte	(.L192-.L203)/2
 1536 0cb0 7000     		.2byte	(.L192-.L203)/2
 1537 0cb2 7000     		.2byte	(.L192-.L203)/2
 1538 0cb4 9300     		.2byte	(.L195-.L203)/2
 1539 0cb6 7000     		.2byte	(.L192-.L203)/2
 1540 0cb8 7000     		.2byte	(.L192-.L203)/2
 1541 0cba 7000     		.2byte	(.L192-.L203)/2
 1542 0cbc 7000     		.2byte	(.L192-.L203)/2
 1543 0cbe 7000     		.2byte	(.L192-.L203)/2
 1544 0cc0 7000     		.2byte	(.L192-.L203)/2
 1545 0cc2 7000     		.2byte	(.L192-.L203)/2
 1546 0cc4 A100     		.2byte	(.L196-.L203)/2
 1547 0cc6 7000     		.2byte	(.L192-.L203)/2
 1548 0cc8 7000     		.2byte	(.L192-.L203)/2
 1549 0cca 7000     		.2byte	(.L192-.L203)/2
 1550 0ccc 7000     		.2byte	(.L192-.L203)/2
 1551 0cce 7000     		.2byte	(.L192-.L203)/2
 1552 0cd0 7000     		.2byte	(.L192-.L203)/2
 1553 0cd2 7000     		.2byte	(.L192-.L203)/2
 1554 0cd4 A500     		.2byte	(.L197-.L203)/2
 1555 0cd6 7000     		.2byte	(.L192-.L203)/2
 1556 0cd8 7000     		.2byte	(.L192-.L203)/2
 1557 0cda 7000     		.2byte	(.L192-.L203)/2
 1558 0cdc 7000     		.2byte	(.L192-.L203)/2
 1559 0cde 7000     		.2byte	(.L192-.L203)/2
 1560 0ce0 7000     		.2byte	(.L192-.L203)/2
 1561 0ce2 7000     		.2byte	(.L192-.L203)/2
 1562 0ce4 7000     		.2byte	(.L192-.L203)/2
 1563 0ce6 7000     		.2byte	(.L192-.L203)/2
 1564 0ce8 7000     		.2byte	(.L192-.L203)/2
 1565 0cea 7000     		.2byte	(.L192-.L203)/2
 1566 0cec 7000     		.2byte	(.L192-.L203)/2
 1567 0cee 7000     		.2byte	(.L192-.L203)/2
 1568 0cf0 7000     		.2byte	(.L192-.L203)/2
 1569 0cf2 7000     		.2byte	(.L192-.L203)/2
 1570 0cf4 B600     		.2byte	(.L198-.L203)/2
 1571 0cf6 7000     		.2byte	(.L192-.L203)/2
 1572 0cf8 7000     		.2byte	(.L192-.L203)/2
 1573 0cfa 7000     		.2byte	(.L192-.L203)/2
 1574 0cfc 7000     		.2byte	(.L192-.L203)/2
 1575 0cfe 7000     		.2byte	(.L192-.L203)/2
 1576 0d00 7000     		.2byte	(.L192-.L203)/2
 1577 0d02 7000     		.2byte	(.L192-.L203)/2
 1578 0d04 5100     		.2byte	(.L200-.L203)/2
 1579 0d06 7000     		.2byte	(.L192-.L203)/2
 1580 0d08 7000     		.2byte	(.L192-.L203)/2
 1581 0d0a 7000     		.2byte	(.L192-.L203)/2
 1582 0d0c 7000     		.2byte	(.L192-.L203)/2
 1583 0d0e 7000     		.2byte	(.L192-.L203)/2
 1584 0d10 7000     		.2byte	(.L192-.L203)/2
 1585 0d12 7000     		.2byte	(.L192-.L203)/2
 1586 0d14 5100     		.2byte	(.L200-.L203)/2
 1587 0d16 7000     		.2byte	(.L192-.L203)/2
 1588 0d18 7000     		.2byte	(.L192-.L203)/2
 1589 0d1a 7000     		.2byte	(.L192-.L203)/2
 1590 0d1c 7000     		.2byte	(.L192-.L203)/2
 1591 0d1e 7000     		.2byte	(.L192-.L203)/2
 1592 0d20 7000     		.2byte	(.L192-.L203)/2
 1593 0d22 7000     		.2byte	(.L192-.L203)/2
 1594 0d24 5B00     		.2byte	(.L201-.L203)/2
 1595 0d26 7000     		.2byte	(.L192-.L203)/2
 1596 0d28 7000     		.2byte	(.L192-.L203)/2
 1597 0d2a 7000     		.2byte	(.L192-.L203)/2
 1598 0d2c 7000     		.2byte	(.L192-.L203)/2
 1599 0d2e 7000     		.2byte	(.L192-.L203)/2
 1600 0d30 7000     		.2byte	(.L192-.L203)/2
 1601 0d32 7000     		.2byte	(.L192-.L203)/2
 1602 0d34 BA00     		.2byte	(.L202-.L203)/2
 1603              	.L200:
 1604 0d36 3F4B     		ldr	r3, .L210
 1605 0d38 4048     		ldr	r0, .L210+8
 1606 0d3a 0422     		movs	r2, #4
 1607              	.L209:
 1608 0d3c 1A60     		str	r2, [r3, #0]
 1609 0d3e 0822     		movs	r2, #8
 1610 0d40 9A61     		str	r2, [r3, #24]
 1611 0d42 BDE81040 		pop	{r4, lr}
 1612 0d46 FFF7FEBF 		b	printf
 1613              	.L201:
 1614 0d4a 3D4C     		ldr	r4, .L210+12
 1615 0d4c 2069     		ldr	r0, [r4, #16]
 1616 0d4e 0028     		cmp	r0, #0
 1617 0d50 40F08280 		bne	.L206
 1618 0d54 3748     		ldr	r0, .L210
 1619 0d56 0823     		movs	r3, #8
 1620 0d58 0421     		movs	r1, #4
 1621 0d5a 0160     		str	r1, [r0, #0]
 1622 0d5c 8361     		str	r3, [r0, #24]
 1623 0d5e 8268     		ldr	r2, [r0, #8]
 1624 0d60 3848     		ldr	r0, .L210+16
 1625 0d62 1101     		lsls	r1, r2, #4
 1626 0d64 48BF     		it	mi
 1627 0d66 0F31     		addmi	r1, r1, #15
 1628 0d68 0911     		asrs	r1, r1, #4
 1629 0d6a FFF7FEFF 		bl	printf
 1630 0d6e 0123     		movs	r3, #1
 1631 0d70 2361     		str	r3, [r4, #16]
 1632 0d72 10BD     		pop	{r4, pc}
 1633              	.L192:
 1634 0d74 3448     		ldr	r0, .L210+20
 1635 0d76 FFF7FEFF 		bl	printf
 1636 0d7a 4FF47A70 		mov	r0, #1000
 1637 0d7e BDE81040 		pop	{r4, lr}
 1638 0d82 FFF7FEBF 		b	delay_ms
 1639              	.L193:
 1640 0d86 2E48     		ldr	r0, .L210+12
 1641 0d88 2A49     		ldr	r1, .L210
 1642 0d8a C268     		ldr	r2, [r0, #12]
 1643 0d8c 2B48     		ldr	r0, .L210+8
 1644 0d8e 8A60     		str	r2, [r1, #8]
 1645 0d90 0423     		movs	r3, #4
 1646 0d92 2822     		movs	r2, #40
 1647 0d94 0B60     		str	r3, [r1, #0]
 1648 0d96 8A61     		str	r2, [r1, #24]
 1649 0d98 BDE81040 		pop	{r4, lr}
 1650 0d9c FFF7FEBF 		b	printf
 1651              	.L194:
 1652 0da0 244B     		ldr	r3, .L210
 1653 0da2 9021     		movs	r1, #144
 1654 0da4 2548     		ldr	r0, .L210+8
 1655 0da6 9960     		str	r1, [r3, #8]
 1656 0da8 0822     		movs	r2, #8
 1657 0daa 0421     		movs	r1, #4
 1658 0dac 1960     		str	r1, [r3, #0]
 1659 0dae 9A61     		str	r2, [r3, #24]
 1660 0db0 9A61     		str	r2, [r3, #24]
 1661 0db2 BDE81040 		pop	{r4, lr}
 1662 0db6 FFF7FEBF 		b	printf
 1663              	.L195:
 1664 0dba 214B     		ldr	r3, .L210+12
 1665 0dbc 1D49     		ldr	r1, .L210
 1666 0dbe 9868     		ldr	r0, [r3, #8]
 1667 0dc0 0422     		movs	r2, #4
 1668 0dc2 0823     		movs	r3, #8
 1669 0dc4 8860     		str	r0, [r1, #8]
 1670 0dc6 0A60     		str	r2, [r1, #0]
 1671 0dc8 8B61     		str	r3, [r1, #24]
 1672 0dca 8968     		ldr	r1, [r1, #8]
 1673 0dcc 1F48     		ldr	r0, .L210+24
 1674 0dce BDE81040 		pop	{r4, lr}
 1675 0dd2 FFF7FEBF 		b	printf
 1676              	.L196:
 1677 0dd6 174B     		ldr	r3, .L210
 1678 0dd8 1848     		ldr	r0, .L210+8
 1679 0dda 1422     		movs	r2, #20
 1680 0ddc AEE7     		b	.L209
 1681              	.L197:
 1682 0dde 184C     		ldr	r4, .L210+12
 1683 0de0 2169     		ldr	r1, [r4, #16]
 1684 0de2 D9B9     		cbnz	r1, .L204
 1685 0de4 1348     		ldr	r0, .L210
 1686 0de6 6268     		ldr	r2, [r4, #4]
 1687 0de8 0421     		movs	r1, #4
 1688 0dea 0823     		movs	r3, #8
 1689 0dec 8260     		str	r2, [r0, #8]
 1690 0dee 0160     		str	r1, [r0, #0]
 1691 0df0 8361     		str	r3, [r0, #24]
 1692 0df2 8168     		ldr	r1, [r0, #8]
 1693 0df4 1548     		ldr	r0, .L210+24
 1694 0df6 FFF7FEFF 		bl	printf
 1695 0dfa 0122     		movs	r2, #1
 1696 0dfc 2261     		str	r2, [r4, #16]
 1697 0dfe 10BD     		pop	{r4, pc}
 1698              	.L198:
 1699 0e00 0C4B     		ldr	r3, .L210
 1700 0e02 0E48     		ldr	r0, .L210+8
 1701 0e04 2422     		movs	r2, #36
 1702 0e06 99E7     		b	.L209
 1703              	.L202:
 1704 0e08 0A4C     		ldr	r4, .L210
 1705 0e0a 1148     		ldr	r0, .L210+28
 1706 0e0c A168     		ldr	r1, [r4, #8]
 1707 0e0e FFF7FEFF 		bl	printf
 1708 0e12 1420     		movs	r0, #20
 1709 0e14 0823     		movs	r3, #8
 1710 0e16 2060     		str	r0, [r4, #0]
 1711 0e18 A361     		str	r3, [r4, #24]
 1712 0e1a 10BD     		pop	{r4, pc}
 1713              	.L204:
 1714 0e1c 054B     		ldr	r3, .L210
 1715 0e1e 1422     		movs	r2, #20
 1716 0e20 0821     		movs	r1, #8
 1717 0e22 1A60     		str	r2, [r3, #0]
 1718 0e24 0B48     		ldr	r0, .L210+32
 1719 0e26 9961     		str	r1, [r3, #24]
 1720 0e28 FFF7FEFF 		bl	printf
 1721 0e2c 0020     		movs	r0, #0
 1722 0e2e 2061     		str	r0, [r4, #16]
 1723 0e30 10BD     		pop	{r4, pc}
 1724              	.L211:
 1725 0e32 00BF     		.align	2
 1726              	.L210:
 1727 0e34 00000A40 		.word	1074397184
 1728 0e38 60000000 		.word	.LC5
 1729 0e3c 70000000 		.word	.LC6
 1730 0e40 00000000 		.word	.LANCHOR0
 1731 0e44 A8000000 		.word	.LC9
 1732 0e48 D0000000 		.word	.LC11
 1733 0e4c 7C000000 		.word	.LC7
 1734 0e50 BC000000 		.word	.LC10
 1735 0e54 94000000 		.word	.LC8
 1736              	.L206:
 1737 0e58 0749     		ldr	r1, .L212
 1738 0e5a 0C22     		movs	r2, #12
 1739 0e5c 8A61     		str	r2, [r1, #24]
 1740 0e5e 8868     		ldr	r0, [r1, #8]
 1741 0e60 10EB8003 		adds	r3, r0, r0, lsl #2
 1742 0e64 48BF     		it	mi
 1743 0e66 7F33     		addmi	r3, r3, #127
 1744 0e68 0448     		ldr	r0, .L212+4
 1745 0e6a D911     		asrs	r1, r3, #7
 1746 0e6c FFF7FEFF 		bl	printf
 1747 0e70 0022     		movs	r2, #0
 1748 0e72 2261     		str	r2, [r4, #16]
 1749 0e74 10BD     		pop	{r4, pc}
 1750              	.L213:
 1751 0e76 00BF     		.align	2
 1752              	.L212:
 1753 0e78 00000A40 		.word	1074397184
 1754 0e7c A8000000 		.word	.LC9
 1756              		.global	pause
 1757              		.global	debounce
 1758              		.global	catch
 1759              		.global	state
 1760              		.global	i2c_resistor
 1761              		.global	i2c_address
 1762              		.global	i2c_wiper
 1763              		.data
 1764              		.align	2
 1765              		.set	.LANCHOR1,. + 0
 1768              	pause:
 1769 0000 01000000 		.word	1
 1772              	catch:
 1773 0004 01000000 		.word	1
 1774              		.section	.rodata.str1.4,"aMS",%progbits,1
 1775              		.align	2
 1776              	.LC0:
 1777 0000 53656E64 		.ascii	"Sending Start Bit\012\015\000"
 1777      696E6720 
 1777      53746172 
 1777      74204269 
 1777      740A0D00 
 1778              	.LC1:
 1779 0014 0A0D2048 		.ascii	"\012\015 Hello World \012\015\000"
 1779      656C6C6F 
 1779      20576F72 
 1779      6C64200A 
 1779      0D00
 1780 0026 0000     		.space	2
 1781              	.LC2:
 1782 0028 41766572 		.ascii	"Average: %d \012\015\000"
 1782      6167653A 
 1782      20256420 
 1782      0A0D00
 1783 0037 00       		.space	1
 1784              	.LC3:
 1785 0038 456E7465 		.ascii	"Enter Command:\000"
 1785      7220436F 
 1785      6D6D616E 
 1785      643A00
 1786 0047 00       		.space	1
 1787              	.LC4:
 1788 0048 52657475 		.ascii	"Returning to loop...\000"
 1788      726E696E 
 1788      6720746F 
 1788      206C6F6F 
 1788      702E2E2E 
 1789 005d 000000   		.space	3
 1790              	.LC5:
 1791 0060 53746174 		.ascii	"Status: 0x%x\000"
 1791      75733A20 
 1791      30782578 
 1791      00
 1792 006d 000000   		.space	3
 1793              	.LC6:
 1794 0070 3A20446F 		.ascii	": Done \012\015\000"
 1794      6E65200A 
 1794      0D00
 1795 007a 0000     		.space	2
 1796              	.LC7:
 1797 007c 3A57726F 		.ascii	":Wrote: %x Ack Done \012\015\000"
 1797      74653A20 
 1797      25782041 
 1797      636B2044 
 1797      6F6E6520 
 1798 0093 00       		.space	1
 1799              	.LC8:
 1800 0094 3A53746F 		.ascii	":Stop and Done \012\015\000"
 1800      7020616E 
 1800      6420446F 
 1800      6E65200A 
 1800      0D00
 1801 00a6 0000     		.space	2
 1802              	.LC9:
 1803 00a8 3A526561 		.ascii	":Read: %d  Done \012\015\000"
 1803      643A2025 
 1803      64202044 
 1803      6F6E6520 
 1803      0A0D00
 1804 00bb 00       		.space	1
 1805              	.LC10:
 1806 00bc 3A526561 		.ascii	":Read: %x  Done \012\015\000"
 1806      643A2025 
 1806      78202044 
 1806      6F6E6520 
 1806      0A0D00
 1807 00cf 00       		.space	1
 1808              	.LC11:
 1809 00d0 536F6D65 		.ascii	"Something went wrong...\000"
 1809      7468696E 
 1809      67207765 
 1809      6E742077 
 1809      726F6E67 
 1810              		.bss
 1811              		.align	2
 1812              		.set	.LANCHOR0,. + 0
 1815              	debounce:
 1816 0000 00000000 		.space	4
 1819              	i2c_resistor:
 1820 0004 00000000 		.space	4
 1823              	i2c_wiper:
 1824 0008 00000000 		.space	4
 1827              	i2c_address:
 1828 000c 00000000 		.space	4
 1831              	state:
 1832 0010 00000000 		.space	4
 1833              		.ident	"GCC: (Sourcery G++ Lite 2011.03-42) 4.5.2"
DEFINED SYMBOLS
                            *ABS*:00000000 main.c
/var/tmp//ccxHcsqU.s:15     .text:00000000 $t
/var/tmp//ccxHcsqU.s:20     .text:00000000 ext_adc_setup
/var/tmp//ccxHcsqU.s:59     .text:0000005c $d
/var/tmp//ccxHcsqU.s:64     .text:0000006c $t
/var/tmp//ccxHcsqU.s:69     .text:0000006c ui_setup
/var/tmp//ccxHcsqU.s:102    .text:000000b0 $d
/var/tmp//ccxHcsqU.s:108    .text:000000c4 $t
/var/tmp//ccxHcsqU.s:113    .text:000000c4 ui_set
/var/tmp//ccxHcsqU.s:178    .text:00000138 $d
/var/tmp//ccxHcsqU.s:185    .text:00000140 $t
/var/tmp//ccxHcsqU.s:190    .text:00000140 servo_steer
/var/tmp//ccxHcsqU.s:224    .text:00000188 $d
/var/tmp//ccxHcsqU.s:228    .text:00000194 $t
/var/tmp//ccxHcsqU.s:233    .text:00000194 uart0_setup
/var/tmp//ccxHcsqU.s:271    .text:000001f0 $d
/var/tmp//ccxHcsqU.s:275    .text:000001fc $t
/var/tmp//ccxHcsqU.s:280    .text:000001fc uart0_printc
/var/tmp//ccxHcsqU.s:290    .text:00000204 $d
/var/tmp//ccxHcsqU.s:292    .text:00000208 $t
/var/tmp//ccxHcsqU.s:297    .text:00000208 uart0_string
/var/tmp//ccxHcsqU.s:314    .text:0000021c $d
/var/tmp//ccxHcsqU.s:316    .text:00000220 $t
/var/tmp//ccxHcsqU.s:321    .text:00000220 servo_setup
/var/tmp//ccxHcsqU.s:353    .text:00000268 $d
/var/tmp//ccxHcsqU.s:357    .text:00000274 $t
/var/tmp//ccxHcsqU.s:362    .text:00000274 motor_speed
/var/tmp//ccxHcsqU.s:394    .text:000002b4 $d
/var/tmp//ccxHcsqU.s:397    .text:000002bc $t
/var/tmp//ccxHcsqU.s:402    .text:000002bc digipot_setup
/var/tmp//ccxHcsqU.s:456    .text:0000033c $d
/var/tmp//ccxHcsqU.s:462    .text:00000350 $t
/var/tmp//ccxHcsqU.s:467    .text:00000350 motor_brake
/var/tmp//ccxHcsqU.s:499    .text:00000390 $d
/var/tmp//ccxHcsqU.s:505    .text:00000398 $t
/var/tmp//ccxHcsqU.s:510    .text:00000398 rgb_set
/var/tmp//ccxHcsqU.s:548    .text:000003f8 $d
/var/tmp//ccxHcsqU.s:552    .text:00000404 $t
/var/tmp//ccxHcsqU.s:557    .text:00000404 rgb_setup
/var/tmp//ccxHcsqU.s:586    .text:00000440 $d
/var/tmp//ccxHcsqU.s:590    .text:0000044c $t
/var/tmp//ccxHcsqU.s:595    .text:0000044c mux_setup
/var/tmp//ccxHcsqU.s:617    .text:00000474 $d
/var/tmp//ccxHcsqU.s:620    .text:0000047c $t
/var/tmp//ccxHcsqU.s:625    .text:0000047c mux_set
/var/tmp//ccxHcsqU.s:645    .text:00000498 $d
/var/tmp//ccxHcsqU.s:647    .text:0000049c $t
/var/tmp//ccxHcsqU.s:652    .text:0000049c motor_setup
/var/tmp//ccxHcsqU.s:703    .text:00000510 $d
/var/tmp//ccxHcsqU.s:710    .text:00000528 $t
/var/tmp//ccxHcsqU.s:715    .text:00000528 EINT3_IRQHandler
/var/tmp//ccxHcsqU.s:738    .text:0000054c $d
/var/tmp//ccxHcsqU.s:742    .text:00000558 $t
/var/tmp//ccxHcsqU.s:747    .text:00000558 set_pot
/var/tmp//ccxHcsqU.s:780    .text:00000588 $d
/var/tmp//ccxHcsqU.s:794    .text:00000594 $t
/var/tmp//ccxHcsqU.s:799    .text:00000594 main
/var/tmp//ccxHcsqU.s:1076   .text:00000830 $d
/var/tmp//ccxHcsqU.s:1081   .text:00000838 $t
/var/tmp//ccxHcsqU.s:1088   .text:00000840 $d
/var/tmp//ccxHcsqU.s:1104   .text:0000087c $t
/var/tmp//ccxHcsqU.s:1362   .text:00000af0 $d
/var/tmp//ccxHcsqU.s:1379   .text:00000b30 $t
/var/tmp//ccxHcsqU.s:1493   .text:00000c58 $d
/var/tmp//ccxHcsqU.s:1503   .text:00000c7c $t
/var/tmp//ccxHcsqU.s:1508   .text:00000c7c I2C2_IRQHandler
/var/tmp//ccxHcsqU.s:1522   .text:00000c94 $d
/var/tmp//ccxHcsqU.s:1604   .text:00000d36 $t
/var/tmp//ccxHcsqU.s:1727   .text:00000e34 $d
/var/tmp//ccxHcsqU.s:1737   .text:00000e58 $t
/var/tmp//ccxHcsqU.s:1753   .text:00000e78 $d
/var/tmp//ccxHcsqU.s:1768   .data:00000000 pause
/var/tmp//ccxHcsqU.s:1815   .bss:00000000 debounce
/var/tmp//ccxHcsqU.s:1772   .data:00000004 catch
/var/tmp//ccxHcsqU.s:1831   .bss:00000010 state
/var/tmp//ccxHcsqU.s:1819   .bss:00000004 i2c_resistor
/var/tmp//ccxHcsqU.s:1827   .bss:0000000c i2c_address
/var/tmp//ccxHcsqU.s:1823   .bss:00000008 i2c_wiper
/var/tmp//ccxHcsqU.s:1764   .data:00000000 $d
/var/tmp//ccxHcsqU.s:1775   .rodata.str1.4:00000000 $d
/var/tmp//ccxHcsqU.s:1778   .rodata.str1.4:00000014 .LC1
/var/tmp//ccxHcsqU.s:1811   .bss:00000000 $d

UNDEFINED SYMBOLS
__aeabi_fcmplt
__aeabi_fcmpgt
__aeabi_fmul
__aeabi_f2iz
__aeabi_i2d
__aeabi_dmul
__aeabi_d2uiz
printf
__aeabi_f2d
__aeabi_dadd
__aeabi_d2f
__aeabi_dsub
__aeabi_i2f
__aeabi_fdiv
__aeabi_fadd
__aeabi_dcmpgt
__aeabi_dcmplt
__aeabi_fsub
delay_ms
