
viacar.lpc17xx.elf:     file format elf32-littlearm

Sections:
Idx Name          Size      VMA       LMA       File off  Algn
  0 .text         0000affc  00006000  00006000  00006000  2**3
                  CONTENTS, ALLOC, LOAD, READONLY, CODE
  1 .ARM.exidx    00000008  00010ffc  00010ffc  00010ffc  2**2
                  CONTENTS, ALLOC, LOAD, READONLY, DATA
  2 .rodata       000003e0  00011008  00011008  00011008  2**3
                  CONTENTS, ALLOC, LOAD, READONLY, DATA
  3 .data         000005c0  10000000  000113e8  00018000  2**3
                  CONTENTS, ALLOC, LOAD, DATA
  4 .bss          00000170  100005c0  000119a8  000185c0  2**2
                  ALLOC
  5 .comment      0000003c  00000000  00000000  000185c0  2**0
                  CONTENTS, READONLY
  6 .debug_aranges 00000200  00000000  00000000  00018600  2**3
                  CONTENTS, READONLY, DEBUGGING
  7 .debug_pubnames 00000084  00000000  00000000  00018800  2**0
                  CONTENTS, READONLY, DEBUGGING
  8 .debug_info   000016c2  00000000  00000000  00018884  2**0
                  CONTENTS, READONLY, DEBUGGING
  9 .debug_abbrev 00000427  00000000  00000000  00019f46  2**0
                  CONTENTS, READONLY, DEBUGGING
 10 .debug_line   00000d23  00000000  00000000  0001a36d  2**0
                  CONTENTS, READONLY, DEBUGGING
 11 .debug_frame  00000100  00000000  00000000  0001b090  2**2
                  CONTENTS, READONLY, DEBUGGING
 12 .debug_str    000001e9  00000000  00000000  0001b190  2**0
                  CONTENTS, READONLY, DEBUGGING
 13 .debug_loc    000015fd  00000000  00000000  0001b379  2**0
                  CONTENTS, READONLY, DEBUGGING
 14 .debug_ranges 00000188  00000000  00000000  0001c976  2**0
                  CONTENTS, READONLY, DEBUGGING
 15 .ARM.attributes 0000002f  00000000  00000000  0001cafe  2**0
                  CONTENTS, READONLY
 16 .debug_pubtypes 000000b2  00000000  00000000  0001cb2d  2**0
                  CONTENTS, READONLY, DEBUGGING

Disassembly of section .text:

00006000 <__cs3_region_start_rom>:
    6000:	10007ffc 	.word	0x10007ffc
    6004:	000060cd 	.word	0x000060cd
	...
    603c:	0000f39d 	.word	0x0000f39d
    6040:	0000f39f 	.word	0x0000f39f
    6044:	0000f39f 	.word	0x0000f39f
    6048:	0000f39f 	.word	0x0000f39f
    604c:	0000f39f 	.word	0x0000f39f
    6050:	0000f609 	.word	0x0000f609
    6054:	0000f39f 	.word	0x0000f39f
    6058:	0000f39f 	.word	0x0000f39f
    605c:	0000f39f 	.word	0x0000f39f
    6060:	0000f39f 	.word	0x0000f39f
    6064:	0000f39f 	.word	0x0000f39f
    6068:	0000f39f 	.word	0x0000f39f
    606c:	0000f39f 	.word	0x0000f39f
    6070:	0000f39f 	.word	0x0000f39f
    6074:	0000f39f 	.word	0x0000f39f
    6078:	0000f39f 	.word	0x0000f39f
    607c:	0000f39f 	.word	0x0000f39f
    6080:	0000f39f 	.word	0x0000f39f
    6084:	0000f39f 	.word	0x0000f39f
    6088:	0000f39f 	.word	0x0000f39f
    608c:	0000f39f 	.word	0x0000f39f
    6090:	0000f39f 	.word	0x0000f39f
    6094:	0000f39f 	.word	0x0000f39f
    6098:	0000f39f 	.word	0x0000f39f
    609c:	0000f39f 	.word	0x0000f39f
    60a0:	00000000 	.word	0x00000000
    60a4:	0000f39f 	.word	0x0000f39f
    60a8:	0000f39f 	.word	0x0000f39f
    60ac:	0000f39f 	.word	0x0000f39f
    60b0:	0000f39f 	.word	0x0000f39f
    60b4:	0000f39f 	.word	0x0000f39f
    60b8:	0000f39f 	.word	0x0000f39f
    60bc:	0000f39f 	.word	0x0000f39f
    60c0:	0000f39f 	.word	0x0000f39f
    60c4:	0000f39f 	.word	0x0000f39f
    60c8:	0000f39f 	.word	0x0000f39f

000060cc <Reset_Handler>:
    60cc:	490b      	ldr	r1, [pc, #44]	; (60fc <Reset_Handler+0x30>)
    60ce:	4a0c      	ldr	r2, [pc, #48]	; (6100 <Reset_Handler+0x34>)
    60d0:	4b0c      	ldr	r3, [pc, #48]	; (6104 <Reset_Handler+0x38>)
    60d2:	429a      	cmp	r2, r3
    60d4:	bf3e      	ittt	cc
    60d6:	f851 0b04 	ldrcc.w	r0, [r1], #4
    60da:	f842 0b04 	strcc.w	r0, [r2], #4
    60de:	e7f8      	bcc.n	60d2 <Reset_Handler+0x6>
    60e0:	f04f 0000 	mov.w	r0, #0
    60e4:	4908      	ldr	r1, [pc, #32]	; (6108 <Reset_Handler+0x3c>)
    60e6:	4a09      	ldr	r2, [pc, #36]	; (610c <Reset_Handler+0x40>)
    60e8:	4291      	cmp	r1, r2
    60ea:	bf3c      	itt	cc
    60ec:	f841 0b04 	strcc.w	r0, [r1], #4
    60f0:	e7fa      	bcc.n	60e8 <Reset_Handler+0x1c>
    60f2:	f009 f967 	bl	f3c4 <SystemInit>
    60f6:	f000 f8d7 	bl	62a8 <main>
    60fa:	0000      	.short	0x0000
    60fc:	000113e8 	.word	0x000113e8
    6100:	10000000 	.word	0x10000000
    6104:	100005c0 	.word	0x100005c0
    6108:	100005c0 	.word	0x100005c0
    610c:	10000730 	.word	0x10000730

00006110 <servo_steer>:
    6110:	b510      	push	{r4, lr}
    6112:	2100      	movs	r1, #0
    6114:	4604      	mov	r4, r0
    6116:	f00a fba9 	bl	1086c <__aeabi_fcmplt>
    611a:	b110      	cbz	r0, 6122 <servo_steer+0x12>
    611c:	f04f 30ff 	mov.w	r0, #4294967295
    6120:	bd10      	pop	{r4, pc}
    6122:	4620      	mov	r0, r4
    6124:	f04f 517e 	mov.w	r1, #1065353216	; 0x3f800000
    6128:	f00a fbbe 	bl	108a8 <__aeabi_fcmpgt>
    612c:	b980      	cbnz	r0, 6150 <servo_steer+0x40>
    612e:	490a      	ldr	r1, [pc, #40]	; (6158 <servo_steer+0x48>)
    6130:	4620      	mov	r0, r4
    6132:	f00a f9fd 	bl	10530 <__aeabi_fmul>
    6136:	f00a fbc1 	bl	108bc <__aeabi_f2iz>
    613a:	4b08      	ldr	r3, [pc, #32]	; (615c <servo_steer+0x4c>)
    613c:	f500 508c 	add.w	r0, r0, #4480	; 0x1180
    6140:	3038      	adds	r0, #56	; 0x38
    6142:	61d8      	str	r0, [r3, #28]
    6144:	6d19      	ldr	r1, [r3, #80]	; 0x50
    6146:	2000      	movs	r0, #0
    6148:	f041 0202 	orr.w	r2, r1, #2
    614c:	651a      	str	r2, [r3, #80]	; 0x50
    614e:	bd10      	pop	{r4, pc}
    6150:	f04f 30ff 	mov.w	r0, #4294967295
    6154:	bd10      	pop	{r4, pc}
    6156:	bf00      	nop
    6158:	43620000 	.word	0x43620000
    615c:	40018000 	.word	0x40018000

00006160 <servo_setup>:
    6160:	4a11      	ldr	r2, [pc, #68]	; (61a8 <servo_setup+0x48>)
    6162:	4912      	ldr	r1, [pc, #72]	; (61ac <servo_setup+0x4c>)
    6164:	f8d2 00c4 	ldr.w	r0, [r2, #196]	; 0xc4
    6168:	4b11      	ldr	r3, [pc, #68]	; (61b0 <servo_setup+0x50>)
    616a:	f040 0040 	orr.w	r0, r0, #64	; 0x40
    616e:	f8c2 00c4 	str.w	r0, [r2, #196]	; 0xc4
    6172:	f8d2 01a8 	ldr.w	r0, [r2, #424]	; 0x1a8
    6176:	f440 5040 	orr.w	r0, r0, #12288	; 0x3000
    617a:	f8c2 01a8 	str.w	r0, [r2, #424]	; 0x1a8
    617e:	690a      	ldr	r2, [r1, #16]
    6180:	f042 0001 	orr.w	r0, r2, #1
    6184:	6108      	str	r0, [r1, #16]
    6186:	6cda      	ldr	r2, [r3, #76]	; 0x4c
    6188:	2028      	movs	r0, #40	; 0x28
    618a:	f442 7100 	orr.w	r1, r2, #512	; 0x200
    618e:	64d9      	str	r1, [r3, #76]	; 0x4c
    6190:	f241 3288 	movw	r2, #5000	; 0x1388
    6194:	f241 11e4 	movw	r1, #4580	; 0x11e4
    6198:	60d8      	str	r0, [r3, #12]
    619a:	619a      	str	r2, [r3, #24]
    619c:	61d9      	str	r1, [r3, #28]
    619e:	6858      	ldr	r0, [r3, #4]
    61a0:	f040 0209 	orr.w	r2, r0, #9
    61a4:	605a      	str	r2, [r3, #4]
    61a6:	4770      	bx	lr
    61a8:	400fc000 	.word	0x400fc000
    61ac:	4002c000 	.word	0x4002c000
    61b0:	40018000 	.word	0x40018000

000061b4 <motor_speed>:
    61b4:	b570      	push	{r4, r5, r6, lr}
    61b6:	4c0f      	ldr	r4, [pc, #60]	; (61f4 <motor_speed+0x40>)
    61b8:	2100      	movs	r1, #0
    61ba:	6b63      	ldr	r3, [r4, #52]	; 0x34
    61bc:	4605      	mov	r5, r0
    61be:	f00a fb55 	bl	1086c <__aeabi_fcmplt>
    61c2:	b110      	cbz	r0, 61ca <motor_speed+0x16>
    61c4:	f04f 30ff 	mov.w	r0, #4294967295
    61c8:	bd70      	pop	{r4, r5, r6, pc}
    61ca:	4628      	mov	r0, r5
    61cc:	f04f 517e 	mov.w	r1, #1065353216	; 0x3f800000
    61d0:	f00a fb6a 	bl	108a8 <__aeabi_fcmpgt>
    61d4:	b950      	cbnz	r0, 61ec <motor_speed+0x38>
    61d6:	2600      	movs	r6, #0
    61d8:	4907      	ldr	r1, [pc, #28]	; (61f8 <motor_speed+0x44>)
    61da:	4628      	mov	r0, r5
    61dc:	6366      	str	r6, [r4, #52]	; 0x34
    61de:	f00a f9a7 	bl	10530 <__aeabi_fmul>
    61e2:	f00a fb6b 	bl	108bc <__aeabi_f2iz>
    61e6:	6320      	str	r0, [r4, #48]	; 0x30
    61e8:	4630      	mov	r0, r6
    61ea:	bd70      	pop	{r4, r5, r6, pc}
    61ec:	f04f 30ff 	mov.w	r0, #4294967295
    61f0:	bd70      	pop	{r4, r5, r6, pc}
    61f2:	bf00      	nop
    61f4:	400b8000 	.word	0x400b8000
    61f8:	469c4000 	.word	0x469c4000

000061fc <motor_brake>:
    61fc:	b570      	push	{r4, r5, r6, lr}
    61fe:	4c0f      	ldr	r4, [pc, #60]	; (623c <motor_brake+0x40>)
    6200:	2100      	movs	r1, #0
    6202:	6b23      	ldr	r3, [r4, #48]	; 0x30
    6204:	4605      	mov	r5, r0
    6206:	f00a fb31 	bl	1086c <__aeabi_fcmplt>
    620a:	b110      	cbz	r0, 6212 <motor_brake+0x16>
    620c:	f04f 30ff 	mov.w	r0, #4294967295
    6210:	bd70      	pop	{r4, r5, r6, pc}
    6212:	4628      	mov	r0, r5
    6214:	f04f 517e 	mov.w	r1, #1065353216	; 0x3f800000
    6218:	f00a fb46 	bl	108a8 <__aeabi_fcmpgt>
    621c:	b950      	cbnz	r0, 6234 <motor_brake+0x38>
    621e:	2600      	movs	r6, #0
    6220:	4907      	ldr	r1, [pc, #28]	; (6240 <motor_brake+0x44>)
    6222:	4628      	mov	r0, r5
    6224:	6326      	str	r6, [r4, #48]	; 0x30
    6226:	f00a f983 	bl	10530 <__aeabi_fmul>
    622a:	f00a fb47 	bl	108bc <__aeabi_f2iz>
    622e:	6360      	str	r0, [r4, #52]	; 0x34
    6230:	4630      	mov	r0, r6
    6232:	bd70      	pop	{r4, r5, r6, pc}
    6234:	f04f 30ff 	mov.w	r0, #4294967295
    6238:	bd70      	pop	{r4, r5, r6, pc}
    623a:	bf00      	nop
    623c:	400b8000 	.word	0x400b8000
    6240:	469c4000 	.word	0x469c4000

00006244 <motor_setup>:
    6244:	b410      	push	{r4}
    6246:	4c14      	ldr	r4, [pc, #80]	; (6298 <motor_setup+0x54>)
    6248:	4a14      	ldr	r2, [pc, #80]	; (629c <motor_setup+0x58>)
    624a:	f8d4 10c4 	ldr.w	r1, [r4, #196]	; 0xc4
    624e:	4b14      	ldr	r3, [pc, #80]	; (62a0 <motor_setup+0x5c>)
    6250:	f441 3000 	orr.w	r0, r1, #131072	; 0x20000
    6254:	f8c4 00c4 	str.w	r0, [r4, #196]	; 0xc4
    6258:	f8d4 11ac 	ldr.w	r1, [r4, #428]	; 0x1ac
    625c:	f041 4040 	orr.w	r0, r1, #3221225472	; 0xc0000000
    6260:	f8c4 01ac 	str.w	r0, [r4, #428]	; 0x1ac
    6264:	6cd1      	ldr	r1, [r2, #76]	; 0x4c
    6266:	f644 6020 	movw	r0, #20000	; 0x4e20
    626a:	f441 2400 	orr.w	r4, r1, #524288	; 0x80000
    626e:	f044 0480 	orr.w	r4, r4, #128	; 0x80
    6272:	2100      	movs	r1, #0
    6274:	64d4      	str	r4, [r2, #76]	; 0x4c
    6276:	6258      	str	r0, [r3, #36]	; 0x24
    6278:	6319      	str	r1, [r3, #48]	; 0x30
    627a:	6298      	str	r0, [r3, #40]	; 0x28
    627c:	6359      	str	r1, [r3, #52]	; 0x34
    627e:	4909      	ldr	r1, [pc, #36]	; (62a4 <motor_setup+0x60>)
    6280:	f240 5005 	movw	r0, #1285	; 0x505
    6284:	63d9      	str	r1, [r3, #60]	; 0x3c
    6286:	6058      	str	r0, [r3, #4]
    6288:	68d1      	ldr	r1, [r2, #12]
    628a:	f441 2080 	orr.w	r0, r1, #262144	; 0x40000
    628e:	f040 0340 	orr.w	r3, r0, #64	; 0x40
    6292:	60d3      	str	r3, [r2, #12]
    6294:	bc10      	pop	{r4}
    6296:	4770      	bx	lr
    6298:	400fc000 	.word	0x400fc000
    629c:	4002c000 	.word	0x4002c000
    62a0:	400b8000 	.word	0x400b8000
    62a4:	00100400 	.word	0x00100400

000062a8 <main>:
    62a8:	b530      	push	{r4, r5, lr}
    62aa:	4919      	ldr	r1, [pc, #100]	; (6310 <main+0x68>)
    62ac:	4819      	ldr	r0, [pc, #100]	; (6314 <main+0x6c>)
    62ae:	2270      	movs	r2, #112	; 0x70
    62b0:	6001      	str	r1, [r0, #0]
    62b2:	b083      	sub	sp, #12
    62b4:	f840 2c20 	str.w	r2, [r0, #-32]
    62b8:	f7ff ff52 	bl	6160 <servo_setup>
    62bc:	f04f 507c 	mov.w	r0, #1056964608	; 0x3f000000
    62c0:	f7ff ff26 	bl	6110 <servo_steer>
    62c4:	ac02      	add	r4, sp, #8
    62c6:	f7ff ffbd 	bl	6244 <motor_setup>
    62ca:	2300      	movs	r3, #0
    62cc:	f844 3d04 	str.w	r3, [r4, #-4]!
    62d0:	4621      	mov	r1, r4
    62d2:	4811      	ldr	r0, [pc, #68]	; (6318 <main+0x70>)
    62d4:	f000 f850 	bl	6378 <scanf>
    62d8:	9801      	ldr	r0, [sp, #4]
    62da:	f009 fd91 	bl	fe00 <__aeabi_i2d>
    62de:	a30a      	add	r3, pc, #40	; (adr r3, 6308 <main+0x60>)
    62e0:	e9d3 2300 	ldrd	r2, r3, [r3]
    62e4:	f009 ff1c 	bl	10120 <__aeabi_ddiv>
    62e8:	f00a f8d2 	bl	10490 <__aeabi_d2f>
    62ec:	4605      	mov	r5, r0
    62ee:	f7ff ff0f 	bl	6110 <servo_steer>
    62f2:	4628      	mov	r0, r5
    62f4:	f009 fd96 	bl	fe24 <__aeabi_f2d>
    62f8:	4602      	mov	r2, r0
    62fa:	460b      	mov	r3, r1
    62fc:	4807      	ldr	r0, [pc, #28]	; (631c <main+0x74>)
    62fe:	9901      	ldr	r1, [sp, #4]
    6300:	f000 f822 	bl	6348 <printf>
    6304:	e7e4      	b.n	62d0 <main+0x28>
    6306:	bf00      	nop
    6308:	00000000 	.word	0x00000000
    630c:	406fe000 	.word	0x406fe000
    6310:	08040000 	.word	0x08040000
    6314:	2009c020 	.word	0x2009c020
    6318:	00011008 	.word	0x00011008
    631c:	0001100c 	.word	0x0001100c

00006320 <_printf_r>:
    6320:	b40e      	push	{r1, r2, r3}
    6322:	b517      	push	{r0, r1, r2, r4, lr}
    6324:	4604      	mov	r4, r0
    6326:	b118      	cbz	r0, 6330 <_printf_r+0x10>
    6328:	6983      	ldr	r3, [r0, #24]
    632a:	b90b      	cbnz	r3, 6330 <_printf_r+0x10>
    632c:	f002 ffb0 	bl	9290 <__sinit>
    6330:	ab06      	add	r3, sp, #24
    6332:	4620      	mov	r0, r4
    6334:	68a1      	ldr	r1, [r4, #8]
    6336:	9a05      	ldr	r2, [sp, #20]
    6338:	9301      	str	r3, [sp, #4]
    633a:	f000 f847 	bl	63cc <_vfprintf_r>
    633e:	e8bd 401e 	ldmia.w	sp!, {r1, r2, r3, r4, lr}
    6342:	b003      	add	sp, #12
    6344:	4770      	bx	lr
	...

00006348 <printf>:
    6348:	b40f      	push	{r0, r1, r2, r3}
    634a:	4b0a      	ldr	r3, [pc, #40]	; (6374 <printf+0x2c>)
    634c:	b513      	push	{r0, r1, r4, lr}
    634e:	681c      	ldr	r4, [r3, #0]
    6350:	b124      	cbz	r4, 635c <printf+0x14>
    6352:	69a3      	ldr	r3, [r4, #24]
    6354:	b913      	cbnz	r3, 635c <printf+0x14>
    6356:	4620      	mov	r0, r4
    6358:	f002 ff9a 	bl	9290 <__sinit>
    635c:	ab05      	add	r3, sp, #20
    635e:	4620      	mov	r0, r4
    6360:	68a1      	ldr	r1, [r4, #8]
    6362:	9a04      	ldr	r2, [sp, #16]
    6364:	9301      	str	r3, [sp, #4]
    6366:	f000 f831 	bl	63cc <_vfprintf_r>
    636a:	e8bd 401c 	ldmia.w	sp!, {r2, r3, r4, lr}
    636e:	b004      	add	sp, #16
    6370:	4770      	bx	lr
    6372:	bf00      	nop
    6374:	100000f4 	.word	0x100000f4

00006378 <scanf>:
    6378:	b40f      	push	{r0, r1, r2, r3}
    637a:	b513      	push	{r0, r1, r4, lr}
    637c:	4c08      	ldr	r4, [pc, #32]	; (63a0 <scanf+0x28>)
    637e:	6820      	ldr	r0, [r4, #0]
    6380:	b118      	cbz	r0, 638a <scanf+0x12>
    6382:	6983      	ldr	r3, [r0, #24]
    6384:	b90b      	cbnz	r3, 638a <scanf+0x12>
    6386:	f002 ff83 	bl	9290 <__sinit>
    638a:	6820      	ldr	r0, [r4, #0]
    638c:	ab05      	add	r3, sp, #20
    638e:	9a04      	ldr	r2, [sp, #16]
    6390:	9301      	str	r3, [sp, #4]
    6392:	6841      	ldr	r1, [r0, #4]
    6394:	f001 f912 	bl	75bc <__svfscanf_r>
    6398:	e8bd 401c 	ldmia.w	sp!, {r2, r3, r4, lr}
    639c:	b004      	add	sp, #16
    639e:	4770      	bx	lr
    63a0:	100000f4 	.word	0x100000f4

000063a4 <_scanf_r>:
    63a4:	b40e      	push	{r1, r2, r3}
    63a6:	b517      	push	{r0, r1, r2, r4, lr}
    63a8:	4604      	mov	r4, r0
    63aa:	b118      	cbz	r0, 63b4 <_scanf_r+0x10>
    63ac:	6983      	ldr	r3, [r0, #24]
    63ae:	b90b      	cbnz	r3, 63b4 <_scanf_r+0x10>
    63b0:	f002 ff6e 	bl	9290 <__sinit>
    63b4:	ab06      	add	r3, sp, #24
    63b6:	4620      	mov	r0, r4
    63b8:	6861      	ldr	r1, [r4, #4]
    63ba:	9a05      	ldr	r2, [sp, #20]
    63bc:	9301      	str	r3, [sp, #4]
    63be:	f001 f8fd 	bl	75bc <__svfscanf_r>
    63c2:	e8bd 401e 	ldmia.w	sp!, {r1, r2, r3, r4, lr}
    63c6:	b003      	add	sp, #12
    63c8:	4770      	bx	lr
	...

000063cc <_vfprintf_r>:
    63cc:	e92d 4ff0 	stmdb	sp!, {r4, r5, r6, r7, r8, r9, sl, fp, lr}
    63d0:	f5ad 7d17 	sub.w	sp, sp, #604	; 0x25c
    63d4:	460f      	mov	r7, r1
    63d6:	4615      	mov	r5, r2
    63d8:	461e      	mov	r6, r3
    63da:	4680      	mov	r8, r0
    63dc:	f003 f9e4 	bl	97a8 <_localeconv_r>
    63e0:	6800      	ldr	r0, [r0, #0]
    63e2:	9013      	str	r0, [sp, #76]	; 0x4c
    63e4:	f004 fac4 	bl	a970 <strlen>
    63e8:	9012      	str	r0, [sp, #72]	; 0x48
    63ea:	f1b8 0f00 	cmp.w	r8, #0
    63ee:	d005      	beq.n	63fc <_vfprintf_r+0x30>
    63f0:	f8d8 3018 	ldr.w	r3, [r8, #24]
    63f4:	b913      	cbnz	r3, 63fc <_vfprintf_r+0x30>
    63f6:	4640      	mov	r0, r8
    63f8:	f002 ff4a 	bl	9290 <__sinit>
    63fc:	4b8f      	ldr	r3, [pc, #572]	; (663c <_vfprintf_r+0x270>)
    63fe:	429f      	cmp	r7, r3
    6400:	d102      	bne.n	6408 <_vfprintf_r+0x3c>
    6402:	f8d8 7004 	ldr.w	r7, [r8, #4]
    6406:	e00a      	b.n	641e <_vfprintf_r+0x52>
    6408:	4b8d      	ldr	r3, [pc, #564]	; (6640 <_vfprintf_r+0x274>)
    640a:	429f      	cmp	r7, r3
    640c:	d102      	bne.n	6414 <_vfprintf_r+0x48>
    640e:	f8d8 7008 	ldr.w	r7, [r8, #8]
    6412:	e004      	b.n	641e <_vfprintf_r+0x52>
    6414:	4b8b      	ldr	r3, [pc, #556]	; (6644 <_vfprintf_r+0x278>)
    6416:	429f      	cmp	r7, r3
    6418:	bf08      	it	eq
    641a:	f8d8 700c 	ldreq.w	r7, [r8, #12]
    641e:	89bb      	ldrh	r3, [r7, #12]
    6420:	f413 5f00 	tst.w	r3, #8192	; 0x2000
    6424:	d106      	bne.n	6434 <_vfprintf_r+0x68>
    6426:	f443 5300 	orr.w	r3, r3, #8192	; 0x2000
    642a:	81bb      	strh	r3, [r7, #12]
    642c:	6e7b      	ldr	r3, [r7, #100]	; 0x64
    642e:	f423 5300 	bic.w	r3, r3, #8192	; 0x2000
    6432:	667b      	str	r3, [r7, #100]	; 0x64
    6434:	89bb      	ldrh	r3, [r7, #12]
    6436:	f013 0f08 	tst.w	r3, #8
    643a:	d001      	beq.n	6440 <_vfprintf_r+0x74>
    643c:	693b      	ldr	r3, [r7, #16]
    643e:	b933      	cbnz	r3, 644e <_vfprintf_r+0x82>
    6440:	4640      	mov	r0, r8
    6442:	4639      	mov	r1, r7
    6444:	f001 ff0a 	bl	825c <__swsetup_r>
    6448:	2800      	cmp	r0, #0
    644a:	f041 809c 	bne.w	7586 <_vfprintf_r+0x11ba>
    644e:	89ba      	ldrh	r2, [r7, #12]
    6450:	f002 031a 	and.w	r3, r2, #26
    6454:	2b0a      	cmp	r3, #10
    6456:	d137      	bne.n	64c8 <_vfprintf_r+0xfc>
    6458:	89fb      	ldrh	r3, [r7, #14]
    645a:	f413 4f00 	tst.w	r3, #32768	; 0x8000
    645e:	d133      	bne.n	64c8 <_vfprintf_r+0xfc>
    6460:	f8ad 3172 	strh.w	r3, [sp, #370]	; 0x172
    6464:	f022 0202 	bic.w	r2, r2, #2
    6468:	6a3b      	ldr	r3, [r7, #32]
    646a:	4640      	mov	r0, r8
    646c:	f8ad 2170 	strh.w	r2, [sp, #368]	; 0x170
    6470:	a959      	add	r1, sp, #356	; 0x164
    6472:	6e7a      	ldr	r2, [r7, #100]	; 0x64
    6474:	9361      	str	r3, [sp, #388]	; 0x184
    6476:	6abb      	ldr	r3, [r7, #40]	; 0x28
    6478:	9272      	str	r2, [sp, #456]	; 0x1c8
    647a:	462a      	mov	r2, r5
    647c:	9363      	str	r3, [sp, #396]	; 0x18c
    647e:	ab19      	add	r3, sp, #100	; 0x64
    6480:	9359      	str	r3, [sp, #356]	; 0x164
    6482:	935d      	str	r3, [sp, #372]	; 0x174
    6484:	f44f 7380 	mov.w	r3, #256	; 0x100
    6488:	935b      	str	r3, [sp, #364]	; 0x16c
    648a:	935e      	str	r3, [sp, #376]	; 0x178
    648c:	2300      	movs	r3, #0
    648e:	935f      	str	r3, [sp, #380]	; 0x17c
    6490:	4633      	mov	r3, r6
    6492:	f7ff ff9b 	bl	63cc <_vfprintf_r>
    6496:	2800      	cmp	r0, #0
    6498:	900e      	str	r0, [sp, #56]	; 0x38
    649a:	db09      	blt.n	64b0 <_vfprintf_r+0xe4>
    649c:	a959      	add	r1, sp, #356	; 0x164
    649e:	4640      	mov	r0, r8
    64a0:	f002 fde2 	bl	9068 <_fflush_r>
    64a4:	990e      	ldr	r1, [sp, #56]	; 0x38
    64a6:	2800      	cmp	r0, #0
    64a8:	bf18      	it	ne
    64aa:	f04f 31ff 	movne.w	r1, #4294967295
    64ae:	910e      	str	r1, [sp, #56]	; 0x38
    64b0:	f8bd 3170 	ldrh.w	r3, [sp, #368]	; 0x170
    64b4:	f013 0f40 	tst.w	r3, #64	; 0x40
    64b8:	f001 8068 	beq.w	758c <_vfprintf_r+0x11c0>
    64bc:	89bb      	ldrh	r3, [r7, #12]
    64be:	f043 0340 	orr.w	r3, r3, #64	; 0x40
    64c2:	81bb      	strh	r3, [r7, #12]
    64c4:	f001 b862 	b.w	758c <_vfprintf_r+0x11c0>
    64c8:	2300      	movs	r3, #0
    64ca:	ac73      	add	r4, sp, #460	; 0x1cc
    64cc:	938f      	str	r3, [sp, #572]	; 0x23c
    64ce:	948d      	str	r4, [sp, #564]	; 0x234
    64d0:	938e      	str	r3, [sp, #568]	; 0x238
    64d2:	950c      	str	r5, [sp, #48]	; 0x30
    64d4:	930b      	str	r3, [sp, #44]	; 0x2c
    64d6:	9310      	str	r3, [sp, #64]	; 0x40
    64d8:	9311      	str	r3, [sp, #68]	; 0x44
    64da:	9316      	str	r3, [sp, #88]	; 0x58
    64dc:	9315      	str	r3, [sp, #84]	; 0x54
    64de:	930e      	str	r3, [sp, #56]	; 0x38
    64e0:	9b0c      	ldr	r3, [sp, #48]	; 0x30
    64e2:	461d      	mov	r5, r3
    64e4:	f813 2b01 	ldrb.w	r2, [r3], #1
    64e8:	b10a      	cbz	r2, 64ee <_vfprintf_r+0x122>
    64ea:	2a25      	cmp	r2, #37	; 0x25
    64ec:	d1f9      	bne.n	64e2 <_vfprintf_r+0x116>
    64ee:	9a0c      	ldr	r2, [sp, #48]	; 0x30
    64f0:	ebb5 0902 	subs.w	r9, r5, r2
    64f4:	d018      	beq.n	6528 <_vfprintf_r+0x15c>
    64f6:	9b8f      	ldr	r3, [sp, #572]	; 0x23c
    64f8:	6022      	str	r2, [r4, #0]
    64fa:	f8c4 9004 	str.w	r9, [r4, #4]
    64fe:	444b      	add	r3, r9
    6500:	938f      	str	r3, [sp, #572]	; 0x23c
    6502:	9b8e      	ldr	r3, [sp, #568]	; 0x238
    6504:	3301      	adds	r3, #1
    6506:	938e      	str	r3, [sp, #568]	; 0x238
    6508:	2b07      	cmp	r3, #7
    650a:	dc01      	bgt.n	6510 <_vfprintf_r+0x144>
    650c:	3408      	adds	r4, #8
    650e:	e008      	b.n	6522 <_vfprintf_r+0x156>
    6510:	4640      	mov	r0, r8
    6512:	4639      	mov	r1, r7
    6514:	aa8d      	add	r2, sp, #564	; 0x234
    6516:	f006 fc69 	bl	cdec <__sprint_r>
    651a:	2800      	cmp	r0, #0
    651c:	f041 8029 	bne.w	7572 <_vfprintf_r+0x11a6>
    6520:	ac73      	add	r4, sp, #460	; 0x1cc
    6522:	9b0e      	ldr	r3, [sp, #56]	; 0x38
    6524:	444b      	add	r3, r9
    6526:	930e      	str	r3, [sp, #56]	; 0x38
    6528:	782b      	ldrb	r3, [r5, #0]
    652a:	2b00      	cmp	r3, #0
    652c:	f001 801a 	beq.w	7564 <_vfprintf_r+0x1198>
    6530:	2300      	movs	r3, #0
    6532:	3501      	adds	r5, #1
    6534:	950c      	str	r5, [sp, #48]	; 0x30
    6536:	461d      	mov	r5, r3
    6538:	f88d 3257 	strb.w	r3, [sp, #599]	; 0x257
    653c:	f04f 3cff 	mov.w	ip, #4294967295
    6540:	930d      	str	r3, [sp, #52]	; 0x34
    6542:	462a      	mov	r2, r5
    6544:	9b0c      	ldr	r3, [sp, #48]	; 0x30
    6546:	e005      	b.n	6554 <_vfprintf_r+0x188>
    6548:	460e      	mov	r6, r1
    654a:	e003      	b.n	6554 <_vfprintf_r+0x188>
    654c:	461e      	mov	r6, r3
    654e:	f04f 3cff 	mov.w	ip, #4294967295
    6552:	460b      	mov	r3, r1
    6554:	f813 9b01 	ldrb.w	r9, [r3], #1
    6558:	f1a9 0120 	sub.w	r1, r9, #32
    655c:	2958      	cmp	r1, #88	; 0x58
    655e:	f200 841c 	bhi.w	6d9a <_vfprintf_r+0x9ce>
    6562:	e8df f011 	tbh	[pc, r1, lsl #1]
    6566:	0059      	.short	0x0059
    6568:	041a041a 	.word	0x041a041a
    656c:	041a005f 	.word	0x041a005f
    6570:	041a041a 	.word	0x041a041a
    6574:	041a041a 	.word	0x041a041a
    6578:	0062041a 	.word	0x0062041a
    657c:	041a0071 	.word	0x041a0071
    6580:	00750068 	.word	0x00750068
    6584:	0098041a 	.word	0x0098041a
    6588:	009b009b 	.word	0x009b009b
    658c:	009b009b 	.word	0x009b009b
    6590:	009b009b 	.word	0x009b009b
    6594:	009b009b 	.word	0x009b009b
    6598:	041a009b 	.word	0x041a009b
    659c:	041a041a 	.word	0x041a041a
    65a0:	041a041a 	.word	0x041a041a
    65a4:	041a041a 	.word	0x041a041a
    65a8:	041a041a 	.word	0x041a041a
    65ac:	00c6041a 	.word	0x00c6041a
    65b0:	041a0103 	.word	0x041a0103
    65b4:	041a0103 	.word	0x041a0103
    65b8:	041a041a 	.word	0x041a041a
    65bc:	00aa041a 	.word	0x00aa041a
    65c0:	041a041a 	.word	0x041a041a
    65c4:	041a02ae 	.word	0x041a02ae
    65c8:	041a041a 	.word	0x041a041a
    65cc:	041a041a 	.word	0x041a041a
    65d0:	041a0319 	.word	0x041a0319
    65d4:	034b041a 	.word	0x034b041a
    65d8:	041a041a 	.word	0x041a041a
    65dc:	041a041a 	.word	0x041a041a
    65e0:	041a041a 	.word	0x041a041a
    65e4:	041a041a 	.word	0x041a041a
    65e8:	041a041a 	.word	0x041a041a
    65ec:	00cb00bb 	.word	0x00cb00bb
    65f0:	01030103 	.word	0x01030103
    65f4:	00ad0103 	.word	0x00ad0103
    65f8:	041a00cb 	.word	0x041a00cb
    65fc:	00b0041a 	.word	0x00b0041a
    6600:	0290041a 	.word	0x0290041a
    6604:	02df02b3 	.word	0x02df02b3
    6608:	041a00b8 	.word	0x041a00b8
    660c:	041a02f3 	.word	0x041a02f3
    6610:	041a031e 	.word	0x041a031e
    6614:	0346041a 	.word	0x0346041a
    6618:	f89d 1257 	ldrb.w	r1, [sp, #599]	; 0x257
    661c:	2900      	cmp	r1, #0
    661e:	d199      	bne.n	6554 <_vfprintf_r+0x188>
    6620:	3120      	adds	r1, #32
    6622:	e012      	b.n	664a <_vfprintf_r+0x27e>
    6624:	f045 0501 	orr.w	r5, r5, #1
    6628:	e794      	b.n	6554 <_vfprintf_r+0x188>
    662a:	6832      	ldr	r2, [r6, #0]
    662c:	1d31      	adds	r1, r6, #4
    662e:	2a00      	cmp	r2, #0
    6630:	da8a      	bge.n	6548 <_vfprintf_r+0x17c>
    6632:	4252      	negs	r2, r2
    6634:	460e      	mov	r6, r1
    6636:	f045 0504 	orr.w	r5, r5, #4
    663a:	e78b      	b.n	6554 <_vfprintf_r+0x188>
    663c:	000111a8 	.word	0x000111a8
    6640:	000111c8 	.word	0x000111c8
    6644:	000111e8 	.word	0x000111e8
    6648:	212b      	movs	r1, #43	; 0x2b
    664a:	f88d 1257 	strb.w	r1, [sp, #599]	; 0x257
    664e:	e781      	b.n	6554 <_vfprintf_r+0x188>
    6650:	4619      	mov	r1, r3
    6652:	f811 9b01 	ldrb.w	r9, [r1], #1
    6656:	f1b9 0f2a 	cmp.w	r9, #42	; 0x2a
    665a:	d003      	beq.n	6664 <_vfprintf_r+0x298>
    665c:	4619      	mov	r1, r3
    665e:	f04f 0c00 	mov.w	ip, #0
    6662:	e010      	b.n	6686 <_vfprintf_r+0x2ba>
    6664:	f8d6 c000 	ldr.w	ip, [r6]
    6668:	1d33      	adds	r3, r6, #4
    666a:	f1bc 0f00 	cmp.w	ip, #0
    666e:	f6ff af6d 	blt.w	654c <_vfprintf_r+0x180>
    6672:	461e      	mov	r6, r3
    6674:	460b      	mov	r3, r1
    6676:	e76d      	b.n	6554 <_vfprintf_r+0x188>
    6678:	f04f 090a 	mov.w	r9, #10
    667c:	fb09 0c0c 	mla	ip, r9, ip, r0
    6680:	f891 9001 	ldrb.w	r9, [r1, #1]
    6684:	4619      	mov	r1, r3
    6686:	f1a9 0030 	sub.w	r0, r9, #48	; 0x30
    668a:	3301      	adds	r3, #1
    668c:	2809      	cmp	r0, #9
    668e:	d9f3      	bls.n	6678 <_vfprintf_r+0x2ac>
    6690:	ea4c 7cec 	orr.w	ip, ip, ip, asr #31
    6694:	e760      	b.n	6558 <_vfprintf_r+0x18c>
    6696:	f045 0580 	orr.w	r5, r5, #128	; 0x80
    669a:	e75b      	b.n	6554 <_vfprintf_r+0x188>
    669c:	4619      	mov	r1, r3
    669e:	2200      	movs	r2, #0
    66a0:	230a      	movs	r3, #10
    66a2:	f1a9 0930 	sub.w	r9, r9, #48	; 0x30
    66a6:	fb03 9202 	mla	r2, r3, r2, r9
    66aa:	f811 9b01 	ldrb.w	r9, [r1], #1
    66ae:	f1a9 0030 	sub.w	r0, r9, #48	; 0x30
    66b2:	460b      	mov	r3, r1
    66b4:	2809      	cmp	r0, #9
    66b6:	d9f3      	bls.n	66a0 <_vfprintf_r+0x2d4>
    66b8:	e74e      	b.n	6558 <_vfprintf_r+0x18c>
    66ba:	f045 0508 	orr.w	r5, r5, #8
    66be:	e749      	b.n	6554 <_vfprintf_r+0x188>
    66c0:	f045 0540 	orr.w	r5, r5, #64	; 0x40
    66c4:	e746      	b.n	6554 <_vfprintf_r+0x188>
    66c6:	7819      	ldrb	r1, [r3, #0]
    66c8:	296c      	cmp	r1, #108	; 0x6c
    66ca:	d101      	bne.n	66d0 <_vfprintf_r+0x304>
    66cc:	3301      	adds	r3, #1
    66ce:	e002      	b.n	66d6 <_vfprintf_r+0x30a>
    66d0:	f045 0510 	orr.w	r5, r5, #16
    66d4:	e73e      	b.n	6554 <_vfprintf_r+0x188>
    66d6:	f045 0520 	orr.w	r5, r5, #32
    66da:	e73b      	b.n	6554 <_vfprintf_r+0x188>
    66dc:	930c      	str	r3, [sp, #48]	; 0x30
    66de:	f04f 0c00 	mov.w	ip, #0
    66e2:	6833      	ldr	r3, [r6, #0]
    66e4:	3604      	adds	r6, #4
    66e6:	920d      	str	r2, [sp, #52]	; 0x34
    66e8:	f88d c257 	strb.w	ip, [sp, #599]	; 0x257
    66ec:	f88d 320c 	strb.w	r3, [sp, #524]	; 0x20c
    66f0:	e35f      	b.n	6db2 <_vfprintf_r+0x9e6>
    66f2:	930c      	str	r3, [sp, #48]	; 0x30
    66f4:	f045 0510 	orr.w	r5, r5, #16
    66f8:	920d      	str	r2, [sp, #52]	; 0x34
    66fa:	e001      	b.n	6700 <_vfprintf_r+0x334>
    66fc:	930c      	str	r3, [sp, #48]	; 0x30
    66fe:	920d      	str	r2, [sp, #52]	; 0x34
    6700:	f015 0f20 	tst.w	r5, #32
    6704:	d009      	beq.n	671a <_vfprintf_r+0x34e>
    6706:	3607      	adds	r6, #7
    6708:	f026 0307 	bic.w	r3, r6, #7
    670c:	f103 0608 	add.w	r6, r3, #8
    6710:	e9d3 0100 	ldrd	r0, r1, [r3]
    6714:	e9cd 0108 	strd	r0, r1, [sp, #32]
    6718:	e016      	b.n	6748 <_vfprintf_r+0x37c>
    671a:	f015 0f10 	tst.w	r5, #16
    671e:	f106 0304 	add.w	r3, r6, #4
    6722:	d001      	beq.n	6728 <_vfprintf_r+0x35c>
    6724:	6832      	ldr	r2, [r6, #0]
    6726:	e009      	b.n	673c <_vfprintf_r+0x370>
    6728:	f015 0f40 	tst.w	r5, #64	; 0x40
    672c:	6832      	ldr	r2, [r6, #0]
    672e:	d005      	beq.n	673c <_vfprintf_r+0x370>
    6730:	b212      	sxth	r2, r2
    6732:	4610      	mov	r0, r2
    6734:	17d1      	asrs	r1, r2, #31
    6736:	e9cd 0108 	strd	r0, r1, [sp, #32]
    673a:	e004      	b.n	6746 <_vfprintf_r+0x37a>
    673c:	4692      	mov	sl, r2
    673e:	ea4f 7be2 	mov.w	fp, r2, asr #31
    6742:	e9cd ab08 	strd	sl, fp, [sp, #32]
    6746:	461e      	mov	r6, r3
    6748:	e9dd 0108 	ldrd	r0, r1, [sp, #32]
    674c:	2800      	cmp	r0, #0
    674e:	f171 0100 	sbcs.w	r1, r1, #0
    6752:	f280 828e 	bge.w	6c72 <_vfprintf_r+0x8a6>
    6756:	e9dd 2308 	ldrd	r2, r3, [sp, #32]
    675a:	4252      	negs	r2, r2
    675c:	eb63 0343 	sbc.w	r3, r3, r3, lsl #1
    6760:	e9cd 2308 	strd	r2, r3, [sp, #32]
    6764:	232d      	movs	r3, #45	; 0x2d
    6766:	f88d 3257 	strb.w	r3, [sp, #599]	; 0x257
    676a:	e282      	b.n	6c72 <_vfprintf_r+0x8a6>
    676c:	930c      	str	r3, [sp, #48]	; 0x30
    676e:	1df3      	adds	r3, r6, #7
    6770:	f015 0f08 	tst.w	r5, #8
    6774:	f023 0307 	bic.w	r3, r3, #7
    6778:	920d      	str	r2, [sp, #52]	; 0x34
    677a:	f103 0608 	add.w	r6, r3, #8
    677e:	bf14      	ite	ne
    6780:	6818      	ldrne	r0, [r3, #0]
    6782:	6819      	ldreq	r1, [r3, #0]
    6784:	f8cd 903c 	str.w	r9, [sp, #60]	; 0x3c
    6788:	bf14      	ite	ne
    678a:	9010      	strne	r0, [sp, #64]	; 0x40
    678c:	9110      	streq	r1, [sp, #64]	; 0x40
    678e:	685b      	ldr	r3, [r3, #4]
    6790:	9810      	ldr	r0, [sp, #64]	; 0x40
    6792:	f8cd c018 	str.w	ip, [sp, #24]
    6796:	9311      	str	r3, [sp, #68]	; 0x44
    6798:	9911      	ldr	r1, [sp, #68]	; 0x44
    679a:	f003 ffd9 	bl	a750 <__fpclassifyd>
    679e:	f8dd c018 	ldr.w	ip, [sp, #24]
    67a2:	2801      	cmp	r0, #1
    67a4:	d119      	bne.n	67da <_vfprintf_r+0x40e>
    67a6:	9810      	ldr	r0, [sp, #64]	; 0x40
    67a8:	2200      	movs	r2, #0
    67aa:	9911      	ldr	r1, [sp, #68]	; 0x44
    67ac:	2300      	movs	r3, #0
    67ae:	f009 fdff 	bl	103b0 <__aeabi_dcmplt>
    67b2:	b110      	cbz	r0, 67ba <_vfprintf_r+0x3ee>
    67b4:	232d      	movs	r3, #45	; 0x2d
    67b6:	f88d 3257 	strb.w	r3, [sp, #599]	; 0x257
    67ba:	4ba9      	ldr	r3, [pc, #676]	; (6a60 <_vfprintf_r+0x694>)
    67bc:	f04f 0c00 	mov.w	ip, #0
    67c0:	4aa8      	ldr	r2, [pc, #672]	; (6a64 <_vfprintf_r+0x698>)
    67c2:	f025 0580 	bic.w	r5, r5, #128	; 0x80
    67c6:	f04f 0b03 	mov.w	fp, #3
    67ca:	f8cd c020 	str.w	ip, [sp, #32]
    67ce:	f1b9 0f47 	cmp.w	r9, #71	; 0x47
    67d2:	bfcc      	ite	gt
    67d4:	4692      	movgt	sl, r2
    67d6:	469a      	movle	sl, r3
    67d8:	e301      	b.n	6dde <_vfprintf_r+0xa12>
    67da:	9810      	ldr	r0, [sp, #64]	; 0x40
    67dc:	9911      	ldr	r1, [sp, #68]	; 0x44
    67de:	f8cd c018 	str.w	ip, [sp, #24]
    67e2:	f003 ffb5 	bl	a750 <__fpclassifyd>
    67e6:	f8dd c018 	ldr.w	ip, [sp, #24]
    67ea:	b958      	cbnz	r0, 6804 <_vfprintf_r+0x438>
    67ec:	4b9e      	ldr	r3, [pc, #632]	; (6a68 <_vfprintf_r+0x69c>)
    67ee:	f025 0580 	bic.w	r5, r5, #128	; 0x80
    67f2:	4a9e      	ldr	r2, [pc, #632]	; (6a6c <_vfprintf_r+0x6a0>)
    67f4:	f04f 0b03 	mov.w	fp, #3
    67f8:	f1b9 0f47 	cmp.w	r9, #71	; 0x47
    67fc:	bfcc      	ite	gt
    67fe:	4692      	movgt	sl, r2
    6800:	469a      	movle	sl, r3
    6802:	e2e1      	b.n	6dc8 <_vfprintf_r+0x9fc>
    6804:	f1bc 3fff 	cmp.w	ip, #4294967295
    6808:	d00b      	beq.n	6822 <_vfprintf_r+0x456>
    680a:	f1b9 0f67 	cmp.w	r9, #103	; 0x67
    680e:	d002      	beq.n	6816 <_vfprintf_r+0x44a>
    6810:	f1b9 0f47 	cmp.w	r9, #71	; 0x47
    6814:	d107      	bne.n	6826 <_vfprintf_r+0x45a>
    6816:	f1bc 0f00 	cmp.w	ip, #0
    681a:	bf08      	it	eq
    681c:	f04f 0c01 	moveq.w	ip, #1
    6820:	e001      	b.n	6826 <_vfprintf_r+0x45a>
    6822:	f04f 0c06 	mov.w	ip, #6
    6826:	9b11      	ldr	r3, [sp, #68]	; 0x44
    6828:	f445 7580 	orr.w	r5, r5, #256	; 0x100
    682c:	2b00      	cmp	r3, #0
    682e:	da05      	bge.n	683c <_vfprintf_r+0x470>
    6830:	f103 4200 	add.w	r2, r3, #2147483648	; 0x80000000
    6834:	232d      	movs	r3, #45	; 0x2d
    6836:	920b      	str	r2, [sp, #44]	; 0x2c
    6838:	9314      	str	r3, [sp, #80]	; 0x50
    683a:	e003      	b.n	6844 <_vfprintf_r+0x478>
    683c:	9811      	ldr	r0, [sp, #68]	; 0x44
    683e:	2100      	movs	r1, #0
    6840:	9114      	str	r1, [sp, #80]	; 0x50
    6842:	900b      	str	r0, [sp, #44]	; 0x2c
    6844:	f1b9 0f66 	cmp.w	r9, #102	; 0x66
    6848:	d00b      	beq.n	6862 <_vfprintf_r+0x496>
    684a:	f1b9 0f46 	cmp.w	r9, #70	; 0x46
    684e:	d008      	beq.n	6862 <_vfprintf_r+0x496>
    6850:	f1b9 0f65 	cmp.w	r9, #101	; 0x65
    6854:	d002      	beq.n	685c <_vfprintf_r+0x490>
    6856:	f1b9 0f45 	cmp.w	r9, #69	; 0x45
    685a:	d105      	bne.n	6868 <_vfprintf_r+0x49c>
    685c:	f10c 0b01 	add.w	fp, ip, #1
    6860:	e003      	b.n	686a <_vfprintf_r+0x49e>
    6862:	46e3      	mov	fp, ip
    6864:	2303      	movs	r3, #3
    6866:	e001      	b.n	686c <_vfprintf_r+0x4a0>
    6868:	46e3      	mov	fp, ip
    686a:	2302      	movs	r3, #2
    686c:	9300      	str	r3, [sp, #0]
    686e:	4640      	mov	r0, r8
    6870:	ab94      	add	r3, sp, #592	; 0x250
    6872:	9a10      	ldr	r2, [sp, #64]	; 0x40
    6874:	9302      	str	r3, [sp, #8]
    6876:	ab93      	add	r3, sp, #588	; 0x24c
    6878:	9303      	str	r3, [sp, #12]
    687a:	ab92      	add	r3, sp, #584	; 0x248
    687c:	9304      	str	r3, [sp, #16]
    687e:	9b0b      	ldr	r3, [sp, #44]	; 0x2c
    6880:	f8cd c018 	str.w	ip, [sp, #24]
    6884:	f8cd b004 	str.w	fp, [sp, #4]
    6888:	f001 fdea 	bl	8460 <_dtoa_r>
    688c:	f1b9 0f67 	cmp.w	r9, #103	; 0x67
    6890:	f8dd c018 	ldr.w	ip, [sp, #24]
    6894:	4682      	mov	sl, r0
    6896:	d002      	beq.n	689e <_vfprintf_r+0x4d2>
    6898:	f1b9 0f47 	cmp.w	r9, #71	; 0x47
    689c:	d102      	bne.n	68a4 <_vfprintf_r+0x4d8>
    689e:	f015 0f01 	tst.w	r5, #1
    68a2:	d034      	beq.n	690e <_vfprintf_r+0x542>
    68a4:	f1b9 0f66 	cmp.w	r9, #102	; 0x66
    68a8:	eb0a 020b 	add.w	r2, sl, fp
    68ac:	9208      	str	r2, [sp, #32]
    68ae:	d002      	beq.n	68b6 <_vfprintf_r+0x4ea>
    68b0:	f1b9 0f46 	cmp.w	r9, #70	; 0x46
    68b4:	d115      	bne.n	68e2 <_vfprintf_r+0x516>
    68b6:	f89a 3000 	ldrb.w	r3, [sl]
    68ba:	2b30      	cmp	r3, #48	; 0x30
    68bc:	d10d      	bne.n	68da <_vfprintf_r+0x50e>
    68be:	9810      	ldr	r0, [sp, #64]	; 0x40
    68c0:	2200      	movs	r2, #0
    68c2:	990b      	ldr	r1, [sp, #44]	; 0x2c
    68c4:	2300      	movs	r3, #0
    68c6:	f8cd c018 	str.w	ip, [sp, #24]
    68ca:	f009 fd67 	bl	1039c <__aeabi_dcmpeq>
    68ce:	f8dd c018 	ldr.w	ip, [sp, #24]
    68d2:	b910      	cbnz	r0, 68da <_vfprintf_r+0x50e>
    68d4:	f1cb 0301 	rsb	r3, fp, #1
    68d8:	9394      	str	r3, [sp, #592]	; 0x250
    68da:	9808      	ldr	r0, [sp, #32]
    68dc:	9b94      	ldr	r3, [sp, #592]	; 0x250
    68de:	18c0      	adds	r0, r0, r3
    68e0:	9008      	str	r0, [sp, #32]
    68e2:	9810      	ldr	r0, [sp, #64]	; 0x40
    68e4:	2200      	movs	r2, #0
    68e6:	990b      	ldr	r1, [sp, #44]	; 0x2c
    68e8:	2300      	movs	r3, #0
    68ea:	f8cd c018 	str.w	ip, [sp, #24]
    68ee:	f009 fd55 	bl	1039c <__aeabi_dcmpeq>
    68f2:	f8dd c018 	ldr.w	ip, [sp, #24]
    68f6:	b130      	cbz	r0, 6906 <_vfprintf_r+0x53a>
    68f8:	9908      	ldr	r1, [sp, #32]
    68fa:	9192      	str	r1, [sp, #584]	; 0x248
    68fc:	e003      	b.n	6906 <_vfprintf_r+0x53a>
    68fe:	2230      	movs	r2, #48	; 0x30
    6900:	f803 2b01 	strb.w	r2, [r3], #1
    6904:	9392      	str	r3, [sp, #584]	; 0x248
    6906:	9b92      	ldr	r3, [sp, #584]	; 0x248
    6908:	9a08      	ldr	r2, [sp, #32]
    690a:	4293      	cmp	r3, r2
    690c:	d3f7      	bcc.n	68fe <_vfprintf_r+0x532>
    690e:	9b92      	ldr	r3, [sp, #584]	; 0x248
    6910:	f1b9 0f67 	cmp.w	r9, #103	; 0x67
    6914:	ebca 0303 	rsb	r3, sl, r3
    6918:	930b      	str	r3, [sp, #44]	; 0x2c
    691a:	9b94      	ldr	r3, [sp, #592]	; 0x250
    691c:	d002      	beq.n	6924 <_vfprintf_r+0x558>
    691e:	f1b9 0f47 	cmp.w	r9, #71	; 0x47
    6922:	d108      	bne.n	6936 <_vfprintf_r+0x56a>
    6924:	f113 0f03 	cmn.w	r3, #3
    6928:	469b      	mov	fp, r3
    692a:	db01      	blt.n	6930 <_vfprintf_r+0x564>
    692c:	4563      	cmp	r3, ip
    692e:	dd75      	ble.n	6a1c <_vfprintf_r+0x650>
    6930:	f1a9 0902 	sub.w	r9, r9, #2
    6934:	e002      	b.n	693c <_vfprintf_r+0x570>
    6936:	f1b9 0f66 	cmp.w	r9, #102	; 0x66
    693a:	d059      	beq.n	69f0 <_vfprintf_r+0x624>
    693c:	f103 3bff 	add.w	fp, r3, #4294967295
    6940:	f88d 9240 	strb.w	r9, [sp, #576]	; 0x240
    6944:	f1bb 0f00 	cmp.w	fp, #0
    6948:	f8cd b250 	str.w	fp, [sp, #592]	; 0x250
    694c:	da03      	bge.n	6956 <_vfprintf_r+0x58a>
    694e:	f1cb 0b00 	rsb	fp, fp, #0
    6952:	232d      	movs	r3, #45	; 0x2d
    6954:	e000      	b.n	6958 <_vfprintf_r+0x58c>
    6956:	232b      	movs	r3, #43	; 0x2b
    6958:	f1bb 0f09 	cmp.w	fp, #9
    695c:	f88d 3241 	strb.w	r3, [sp, #577]	; 0x241
    6960:	dd2f      	ble.n	69c2 <_vfprintf_r+0x5f6>
    6962:	f10d 036a 	add.w	r3, sp, #106	; 0x6a
    6966:	4652      	mov	r2, sl
    6968:	46cc      	mov	ip, r9
    696a:	46a2      	mov	sl, r4
    696c:	461c      	mov	r4, r3
    696e:	4658      	mov	r0, fp
    6970:	210a      	movs	r1, #10
    6972:	9207      	str	r2, [sp, #28]
    6974:	46a1      	mov	r9, r4
    6976:	f8cd c018 	str.w	ip, [sp, #24]
    697a:	f009 f8df 	bl	fb3c <__aeabi_idivmod>
    697e:	4658      	mov	r0, fp
    6980:	3130      	adds	r1, #48	; 0x30
    6982:	f804 1901 	strb.w	r1, [r4], #-1
    6986:	210a      	movs	r1, #10
    6988:	f008 ff8e 	bl	f8a8 <__aeabi_idiv>
    698c:	9a07      	ldr	r2, [sp, #28]
    698e:	f8dd c018 	ldr.w	ip, [sp, #24]
    6992:	2809      	cmp	r0, #9
    6994:	4683      	mov	fp, r0
    6996:	dcea      	bgt.n	696e <_vfprintf_r+0x5a2>
    6998:	4654      	mov	r4, sl
    699a:	4692      	mov	sl, r2
    699c:	464a      	mov	r2, r9
    699e:	ab90      	add	r3, sp, #576	; 0x240
    69a0:	f100 0b30 	add.w	fp, r0, #48	; 0x30
    69a4:	46e1      	mov	r9, ip
    69a6:	f802 bc01 	strb.w	fp, [r2, #-1]
    69aa:	3302      	adds	r3, #2
    69ac:	3a01      	subs	r2, #1
    69ae:	e003      	b.n	69b8 <_vfprintf_r+0x5ec>
    69b0:	f812 1b01 	ldrb.w	r1, [r2], #1
    69b4:	f803 1b01 	strb.w	r1, [r3], #1
    69b8:	f10d 016b 	add.w	r1, sp, #107	; 0x6b
    69bc:	428a      	cmp	r2, r1
    69be:	d3f7      	bcc.n	69b0 <_vfprintf_r+0x5e4>
    69c0:	e006      	b.n	69d0 <_vfprintf_r+0x604>
    69c2:	2330      	movs	r3, #48	; 0x30
    69c4:	f88d 3242 	strb.w	r3, [sp, #578]	; 0x242
    69c8:	449b      	add	fp, r3
    69ca:	ab91      	add	r3, sp, #580	; 0x244
    69cc:	f88d b243 	strb.w	fp, [sp, #579]	; 0x243
    69d0:	aa90      	add	r2, sp, #576	; 0x240
    69d2:	1a9a      	subs	r2, r3, r2
    69d4:	9b0b      	ldr	r3, [sp, #44]	; 0x2c
    69d6:	9215      	str	r2, [sp, #84]	; 0x54
    69d8:	2b01      	cmp	r3, #1
    69da:	eb02 0b03 	add.w	fp, r2, r3
    69de:	dc02      	bgt.n	69e6 <_vfprintf_r+0x61a>
    69e0:	f015 0301 	ands.w	r3, r5, #1
    69e4:	d044      	beq.n	6a70 <_vfprintf_r+0x6a4>
    69e6:	2000      	movs	r0, #0
    69e8:	f10b 0b01 	add.w	fp, fp, #1
    69ec:	9008      	str	r0, [sp, #32]
    69ee:	e040      	b.n	6a72 <_vfprintf_r+0x6a6>
    69f0:	2b00      	cmp	r3, #0
    69f2:	469b      	mov	fp, r3
    69f4:	dd09      	ble.n	6a0a <_vfprintf_r+0x63e>
    69f6:	f1bc 0f00 	cmp.w	ip, #0
    69fa:	d102      	bne.n	6a02 <_vfprintf_r+0x636>
    69fc:	f015 0f01 	tst.w	r5, #1
    6a00:	d028      	beq.n	6a54 <_vfprintf_r+0x688>
    6a02:	f103 0b01 	add.w	fp, r3, #1
    6a06:	44e3      	add	fp, ip
    6a08:	e024      	b.n	6a54 <_vfprintf_r+0x688>
    6a0a:	f1bc 0f00 	cmp.w	ip, #0
    6a0e:	d102      	bne.n	6a16 <_vfprintf_r+0x64a>
    6a10:	f015 0f01 	tst.w	r5, #1
    6a14:	d019      	beq.n	6a4a <_vfprintf_r+0x67e>
    6a16:	f10c 0b02 	add.w	fp, ip, #2
    6a1a:	e01b      	b.n	6a54 <_vfprintf_r+0x688>
    6a1c:	990b      	ldr	r1, [sp, #44]	; 0x2c
    6a1e:	428b      	cmp	r3, r1
    6a20:	db07      	blt.n	6a32 <_vfprintf_r+0x666>
    6a22:	f015 0f01 	tst.w	r5, #1
    6a26:	d013      	beq.n	6a50 <_vfprintf_r+0x684>
    6a28:	2267      	movs	r2, #103	; 0x67
    6a2a:	f103 0b01 	add.w	fp, r3, #1
    6a2e:	920f      	str	r2, [sp, #60]	; 0x3c
    6a30:	e010      	b.n	6a54 <_vfprintf_r+0x688>
    6a32:	2b00      	cmp	r3, #0
    6a34:	bfd8      	it	le
    6a36:	f1c3 0b02 	rsble	fp, r3, #2
    6a3a:	9b0b      	ldr	r3, [sp, #44]	; 0x2c
    6a3c:	bfc8      	it	gt
    6a3e:	f04f 0b01 	movgt.w	fp, #1
    6a42:	2067      	movs	r0, #103	; 0x67
    6a44:	449b      	add	fp, r3
    6a46:	900f      	str	r0, [sp, #60]	; 0x3c
    6a48:	e004      	b.n	6a54 <_vfprintf_r+0x688>
    6a4a:	f04f 0b01 	mov.w	fp, #1
    6a4e:	e001      	b.n	6a54 <_vfprintf_r+0x688>
    6a50:	2167      	movs	r1, #103	; 0x67
    6a52:	910f      	str	r1, [sp, #60]	; 0x3c
    6a54:	9a94      	ldr	r2, [sp, #592]	; 0x250
    6a56:	f8dd 903c 	ldr.w	r9, [sp, #60]	; 0x3c
    6a5a:	9208      	str	r2, [sp, #32]
    6a5c:	e009      	b.n	6a72 <_vfprintf_r+0x6a6>
    6a5e:	bf00      	nop
    6a60:	0001102c 	.word	0x0001102c
    6a64:	00011030 	.word	0x00011030
    6a68:	00011034 	.word	0x00011034
    6a6c:	00011038 	.word	0x00011038
    6a70:	9308      	str	r3, [sp, #32]
    6a72:	9b14      	ldr	r3, [sp, #80]	; 0x50
    6a74:	2b00      	cmp	r3, #0
    6a76:	f000 81a3 	beq.w	6dc0 <_vfprintf_r+0x9f4>
    6a7a:	232d      	movs	r3, #45	; 0x2d
    6a7c:	f04f 0c00 	mov.w	ip, #0
    6a80:	f88d 3257 	strb.w	r3, [sp, #599]	; 0x257
    6a84:	e1ab      	b.n	6dde <_vfprintf_r+0xa12>
    6a86:	f015 0f20 	tst.w	r5, #32
    6a8a:	930c      	str	r3, [sp, #48]	; 0x30
    6a8c:	f106 0104 	add.w	r1, r6, #4
    6a90:	d006      	beq.n	6aa0 <_vfprintf_r+0x6d4>
    6a92:	9d0e      	ldr	r5, [sp, #56]	; 0x38
    6a94:	6830      	ldr	r0, [r6, #0]
    6a96:	462a      	mov	r2, r5
    6a98:	17eb      	asrs	r3, r5, #31
    6a9a:	e9c0 2300 	strd	r2, r3, [r0]
    6a9e:	e00e      	b.n	6abe <_vfprintf_r+0x6f2>
    6aa0:	f015 0f10 	tst.w	r5, #16
    6aa4:	d003      	beq.n	6aae <_vfprintf_r+0x6e2>
    6aa6:	6833      	ldr	r3, [r6, #0]
    6aa8:	980e      	ldr	r0, [sp, #56]	; 0x38
    6aaa:	6018      	str	r0, [r3, #0]
    6aac:	e007      	b.n	6abe <_vfprintf_r+0x6f2>
    6aae:	f015 0f40 	tst.w	r5, #64	; 0x40
    6ab2:	6833      	ldr	r3, [r6, #0]
    6ab4:	bf15      	itete	ne
    6ab6:	9a0e      	ldrne	r2, [sp, #56]	; 0x38
    6ab8:	9d0e      	ldreq	r5, [sp, #56]	; 0x38
    6aba:	801a      	strhne	r2, [r3, #0]
    6abc:	601d      	streq	r5, [r3, #0]
    6abe:	460e      	mov	r6, r1
    6ac0:	e50e      	b.n	64e0 <_vfprintf_r+0x114>
    6ac2:	930c      	str	r3, [sp, #48]	; 0x30
    6ac4:	f045 0510 	orr.w	r5, r5, #16
    6ac8:	920d      	str	r2, [sp, #52]	; 0x34
    6aca:	e001      	b.n	6ad0 <_vfprintf_r+0x704>
    6acc:	930c      	str	r3, [sp, #48]	; 0x30
    6ace:	920d      	str	r2, [sp, #52]	; 0x34
    6ad0:	f015 0220 	ands.w	r2, r5, #32
    6ad4:	d00a      	beq.n	6aec <_vfprintf_r+0x720>
    6ad6:	3607      	adds	r6, #7
    6ad8:	2200      	movs	r2, #0
    6ada:	f026 0307 	bic.w	r3, r6, #7
    6ade:	f103 0608 	add.w	r6, r3, #8
    6ae2:	e9d3 ab00 	ldrd	sl, fp, [r3]
    6ae6:	e9cd ab08 	strd	sl, fp, [sp, #32]
    6aea:	e0be      	b.n	6c6a <_vfprintf_r+0x89e>
    6aec:	f015 0110 	ands.w	r1, r5, #16
    6af0:	f106 0304 	add.w	r3, r6, #4
    6af4:	d002      	beq.n	6afc <_vfprintf_r+0x730>
    6af6:	6831      	ldr	r1, [r6, #0]
    6af8:	468a      	mov	sl, r1
    6afa:	e00d      	b.n	6b18 <_vfprintf_r+0x74c>
    6afc:	f015 0240 	ands.w	r2, r5, #64	; 0x40
    6b00:	6830      	ldr	r0, [r6, #0]
    6b02:	d008      	beq.n	6b16 <_vfprintf_r+0x74a>
    6b04:	b280      	uxth	r0, r0
    6b06:	f04f 0b00 	mov.w	fp, #0
    6b0a:	4682      	mov	sl, r0
    6b0c:	461e      	mov	r6, r3
    6b0e:	e9cd ab08 	strd	sl, fp, [sp, #32]
    6b12:	460a      	mov	r2, r1
    6b14:	e0a9      	b.n	6c6a <_vfprintf_r+0x89e>
    6b16:	4682      	mov	sl, r0
    6b18:	f04f 0b00 	mov.w	fp, #0
    6b1c:	461e      	mov	r6, r3
    6b1e:	e9cd ab08 	strd	sl, fp, [sp, #32]
    6b22:	e0a2      	b.n	6c6a <_vfprintf_r+0x89e>
    6b24:	930c      	str	r3, [sp, #48]	; 0x30
    6b26:	2100      	movs	r1, #0
    6b28:	6833      	ldr	r3, [r6, #0]
    6b2a:	f04f 0978 	mov.w	r9, #120	; 0x78
    6b2e:	920d      	str	r2, [sp, #52]	; 0x34
    6b30:	f045 0502 	orr.w	r5, r5, #2
    6b34:	4618      	mov	r0, r3
    6b36:	e9cd 0108 	strd	r0, r1, [sp, #32]
    6b3a:	49a5      	ldr	r1, [pc, #660]	; (6dd0 <_vfprintf_r+0xa04>)
    6b3c:	2330      	movs	r3, #48	; 0x30
    6b3e:	f88d 9255 	strb.w	r9, [sp, #597]	; 0x255
    6b42:	3604      	adds	r6, #4
    6b44:	f88d 3254 	strb.w	r3, [sp, #596]	; 0x254
    6b48:	9116      	str	r1, [sp, #88]	; 0x58
    6b4a:	e08d      	b.n	6c68 <_vfprintf_r+0x89c>
    6b4c:	930c      	str	r3, [sp, #48]	; 0x30
    6b4e:	2300      	movs	r3, #0
    6b50:	920d      	str	r2, [sp, #52]	; 0x34
    6b52:	4632      	mov	r2, r6
    6b54:	3604      	adds	r6, #4
    6b56:	459c      	cmp	ip, r3
    6b58:	f88d 3257 	strb.w	r3, [sp, #599]	; 0x257
    6b5c:	f8d2 a000 	ldr.w	sl, [r2]
    6b60:	db13      	blt.n	6b8a <_vfprintf_r+0x7be>
    6b62:	4619      	mov	r1, r3
    6b64:	4662      	mov	r2, ip
    6b66:	4650      	mov	r0, sl
    6b68:	9307      	str	r3, [sp, #28]
    6b6a:	f8cd c018 	str.w	ip, [sp, #24]
    6b6e:	f003 f91b 	bl	9da8 <memchr>
    6b72:	9b07      	ldr	r3, [sp, #28]
    6b74:	f8dd c018 	ldr.w	ip, [sp, #24]
    6b78:	2800      	cmp	r0, #0
    6b7a:	f000 8124 	beq.w	6dc6 <_vfprintf_r+0x9fa>
    6b7e:	ebca 0b00 	rsb	fp, sl, r0
    6b82:	45e3      	cmp	fp, ip
    6b84:	f300 8128 	bgt.w	6dd8 <_vfprintf_r+0xa0c>
    6b88:	e127      	b.n	6dda <_vfprintf_r+0xa0e>
    6b8a:	4650      	mov	r0, sl
    6b8c:	9307      	str	r3, [sp, #28]
    6b8e:	f003 feef 	bl	a970 <strlen>
    6b92:	9b07      	ldr	r3, [sp, #28]
    6b94:	4683      	mov	fp, r0
    6b96:	e120      	b.n	6dda <_vfprintf_r+0xa0e>
    6b98:	930c      	str	r3, [sp, #48]	; 0x30
    6b9a:	f045 0510 	orr.w	r5, r5, #16
    6b9e:	920d      	str	r2, [sp, #52]	; 0x34
    6ba0:	e001      	b.n	6ba6 <_vfprintf_r+0x7da>
    6ba2:	930c      	str	r3, [sp, #48]	; 0x30
    6ba4:	920d      	str	r2, [sp, #52]	; 0x34
    6ba6:	f015 0f20 	tst.w	r5, #32
    6baa:	d009      	beq.n	6bc0 <_vfprintf_r+0x7f4>
    6bac:	3607      	adds	r6, #7
    6bae:	f026 0307 	bic.w	r3, r6, #7
    6bb2:	f103 0608 	add.w	r6, r3, #8
    6bb6:	e9d3 ab00 	ldrd	sl, fp, [r3]
    6bba:	e9cd ab08 	strd	sl, fp, [sp, #32]
    6bbe:	e016      	b.n	6bee <_vfprintf_r+0x822>
    6bc0:	f015 0f10 	tst.w	r5, #16
    6bc4:	f106 0304 	add.w	r3, r6, #4
    6bc8:	d001      	beq.n	6bce <_vfprintf_r+0x802>
    6bca:	6832      	ldr	r2, [r6, #0]
    6bcc:	e00a      	b.n	6be4 <_vfprintf_r+0x818>
    6bce:	f015 0f40 	tst.w	r5, #64	; 0x40
    6bd2:	6832      	ldr	r2, [r6, #0]
    6bd4:	d006      	beq.n	6be4 <_vfprintf_r+0x818>
    6bd6:	b292      	uxth	r2, r2
    6bd8:	f04f 0b00 	mov.w	fp, #0
    6bdc:	4692      	mov	sl, r2
    6bde:	e9cd ab08 	strd	sl, fp, [sp, #32]
    6be2:	e003      	b.n	6bec <_vfprintf_r+0x820>
    6be4:	4610      	mov	r0, r2
    6be6:	2100      	movs	r1, #0
    6be8:	e9cd 0108 	strd	r0, r1, [sp, #32]
    6bec:	461e      	mov	r6, r3
    6bee:	2201      	movs	r2, #1
    6bf0:	e03b      	b.n	6c6a <_vfprintf_r+0x89e>
    6bf2:	4977      	ldr	r1, [pc, #476]	; (6dd0 <_vfprintf_r+0xa04>)
    6bf4:	930c      	str	r3, [sp, #48]	; 0x30
    6bf6:	920d      	str	r2, [sp, #52]	; 0x34
    6bf8:	9116      	str	r1, [sp, #88]	; 0x58
    6bfa:	e003      	b.n	6c04 <_vfprintf_r+0x838>
    6bfc:	920d      	str	r2, [sp, #52]	; 0x34
    6bfe:	4a75      	ldr	r2, [pc, #468]	; (6dd4 <_vfprintf_r+0xa08>)
    6c00:	930c      	str	r3, [sp, #48]	; 0x30
    6c02:	9216      	str	r2, [sp, #88]	; 0x58
    6c04:	f015 0f20 	tst.w	r5, #32
    6c08:	d009      	beq.n	6c1e <_vfprintf_r+0x852>
    6c0a:	3607      	adds	r6, #7
    6c0c:	f026 0307 	bic.w	r3, r6, #7
    6c10:	f103 0608 	add.w	r6, r3, #8
    6c14:	e9d3 ab00 	ldrd	sl, fp, [r3]
    6c18:	e9cd ab08 	strd	sl, fp, [sp, #32]
    6c1c:	e016      	b.n	6c4c <_vfprintf_r+0x880>
    6c1e:	f015 0f10 	tst.w	r5, #16
    6c22:	f106 0304 	add.w	r3, r6, #4
    6c26:	d001      	beq.n	6c2c <_vfprintf_r+0x860>
    6c28:	6832      	ldr	r2, [r6, #0]
    6c2a:	e00a      	b.n	6c42 <_vfprintf_r+0x876>
    6c2c:	f015 0f40 	tst.w	r5, #64	; 0x40
    6c30:	6832      	ldr	r2, [r6, #0]
    6c32:	d006      	beq.n	6c42 <_vfprintf_r+0x876>
    6c34:	b292      	uxth	r2, r2
    6c36:	f04f 0b00 	mov.w	fp, #0
    6c3a:	4692      	mov	sl, r2
    6c3c:	e9cd ab08 	strd	sl, fp, [sp, #32]
    6c40:	e003      	b.n	6c4a <_vfprintf_r+0x87e>
    6c42:	4610      	mov	r0, r2
    6c44:	2100      	movs	r1, #0
    6c46:	e9cd 0108 	strd	r0, r1, [sp, #32]
    6c4a:	461e      	mov	r6, r3
    6c4c:	f015 0f01 	tst.w	r5, #1
    6c50:	d00a      	beq.n	6c68 <_vfprintf_r+0x89c>
    6c52:	e9dd 2308 	ldrd	r2, r3, [sp, #32]
    6c56:	4313      	orrs	r3, r2
    6c58:	d006      	beq.n	6c68 <_vfprintf_r+0x89c>
    6c5a:	f045 0502 	orr.w	r5, r5, #2
    6c5e:	2330      	movs	r3, #48	; 0x30
    6c60:	f88d 9255 	strb.w	r9, [sp, #597]	; 0x255
    6c64:	f88d 3254 	strb.w	r3, [sp, #596]	; 0x254
    6c68:	2202      	movs	r2, #2
    6c6a:	2300      	movs	r3, #0
    6c6c:	f88d 3257 	strb.w	r3, [sp, #599]	; 0x257
    6c70:	e000      	b.n	6c74 <_vfprintf_r+0x8a8>
    6c72:	2201      	movs	r2, #1
    6c74:	e9dd ab08 	ldrd	sl, fp, [sp, #32]
    6c78:	f1bc 0f00 	cmp.w	ip, #0
    6c7c:	bfa8      	it	ge
    6c7e:	f025 0580 	bicge.w	r5, r5, #128	; 0x80
    6c82:	ea5a 0b0b 	orrs.w	fp, sl, fp
    6c86:	d102      	bne.n	6c8e <_vfprintf_r+0x8c2>
    6c88:	f1bc 0f00 	cmp.w	ip, #0
    6c8c:	d072      	beq.n	6d74 <_vfprintf_r+0x9a8>
    6c8e:	2a01      	cmp	r2, #1
    6c90:	d023      	beq.n	6cda <_vfprintf_r+0x90e>
    6c92:	2a02      	cmp	r2, #2
    6c94:	d055      	beq.n	6d42 <_vfprintf_r+0x976>
    6c96:	ab8c      	add	r3, sp, #560	; 0x230
    6c98:	3303      	adds	r3, #3
    6c9a:	9808      	ldr	r0, [sp, #32]
    6c9c:	469a      	mov	sl, r3
    6c9e:	f000 0207 	and.w	r2, r0, #7
    6ca2:	3230      	adds	r2, #48	; 0x30
    6ca4:	701a      	strb	r2, [r3, #0]
    6ca6:	9908      	ldr	r1, [sp, #32]
    6ca8:	3b01      	subs	r3, #1
    6caa:	f8dd b024 	ldr.w	fp, [sp, #36]	; 0x24
    6cae:	08c8      	lsrs	r0, r1, #3
    6cb0:	ea40 714b 	orr.w	r1, r0, fp, lsl #29
    6cb4:	ea4f 0bdb 	mov.w	fp, fp, lsr #3
    6cb8:	9108      	str	r1, [sp, #32]
    6cba:	f8cd b024 	str.w	fp, [sp, #36]	; 0x24
    6cbe:	e9dd 0108 	ldrd	r0, r1, [sp, #32]
    6cc2:	4301      	orrs	r1, r0
    6cc4:	d1e9      	bne.n	6c9a <_vfprintf_r+0x8ce>
    6cc6:	f015 0f01 	tst.w	r5, #1
    6cca:	d05f      	beq.n	6d8c <_vfprintf_r+0x9c0>
    6ccc:	2a30      	cmp	r2, #48	; 0x30
    6cce:	d05d      	beq.n	6d8c <_vfprintf_r+0x9c0>
    6cd0:	469a      	mov	sl, r3
    6cd2:	2330      	movs	r3, #48	; 0x30
    6cd4:	f88a 3000 	strb.w	r3, [sl]
    6cd8:	e058      	b.n	6d8c <_vfprintf_r+0x9c0>
    6cda:	e9dd 2308 	ldrd	r2, r3, [sp, #32]
    6cde:	2a0a      	cmp	r2, #10
    6ce0:	f173 0300 	sbcs.w	r3, r3, #0
    6ce4:	d20a      	bcs.n	6cfc <_vfprintf_r+0x930>
    6ce6:	f8dd a020 	ldr.w	sl, [sp, #32]
    6cea:	f10a 0330 	add.w	r3, sl, #48	; 0x30
    6cee:	f50d 7a0c 	add.w	sl, sp, #560	; 0x230
    6cf2:	f88d 3233 	strb.w	r3, [sp, #563]	; 0x233
    6cf6:	f10a 0a03 	add.w	sl, sl, #3
    6cfa:	e047      	b.n	6d8c <_vfprintf_r+0x9c0>
    6cfc:	f50d 7b0c 	add.w	fp, sp, #560	; 0x230
    6d00:	4623      	mov	r3, r4
    6d02:	f10b 0b03 	add.w	fp, fp, #3
    6d06:	465c      	mov	r4, fp
    6d08:	46cb      	mov	fp, r9
    6d0a:	4699      	mov	r9, r3
    6d0c:	e9dd 0108 	ldrd	r0, r1, [sp, #32]
    6d10:	220a      	movs	r2, #10
    6d12:	2300      	movs	r3, #0
    6d14:	f8cd c018 	str.w	ip, [sp, #24]
    6d18:	f009 fdf6 	bl	10908 <__aeabi_uldivmod>
    6d1c:	46a2      	mov	sl, r4
    6d1e:	2300      	movs	r3, #0
    6d20:	3230      	adds	r2, #48	; 0x30
    6d22:	f804 2901 	strb.w	r2, [r4], #-1
    6d26:	e9dd 0108 	ldrd	r0, r1, [sp, #32]
    6d2a:	220a      	movs	r2, #10
    6d2c:	f009 fdec 	bl	10908 <__aeabi_uldivmod>
    6d30:	f8dd c018 	ldr.w	ip, [sp, #24]
    6d34:	e9cd 0108 	strd	r0, r1, [sp, #32]
    6d38:	4308      	orrs	r0, r1
    6d3a:	d1e7      	bne.n	6d0c <_vfprintf_r+0x940>
    6d3c:	464c      	mov	r4, r9
    6d3e:	46d9      	mov	r9, fp
    6d40:	e024      	b.n	6d8c <_vfprintf_r+0x9c0>
    6d42:	ab8c      	add	r3, sp, #560	; 0x230
    6d44:	3303      	adds	r3, #3
    6d46:	9908      	ldr	r1, [sp, #32]
    6d48:	469a      	mov	sl, r3
    6d4a:	f8dd b058 	ldr.w	fp, [sp, #88]	; 0x58
    6d4e:	f001 020f 	and.w	r2, r1, #15
    6d52:	f81b 2002 	ldrb.w	r2, [fp, r2]
    6d56:	f803 2901 	strb.w	r2, [r3], #-1
    6d5a:	9908      	ldr	r1, [sp, #32]
    6d5c:	9a09      	ldr	r2, [sp, #36]	; 0x24
    6d5e:	0908      	lsrs	r0, r1, #4
    6d60:	ea40 7102 	orr.w	r1, r0, r2, lsl #28
    6d64:	0912      	lsrs	r2, r2, #4
    6d66:	9108      	str	r1, [sp, #32]
    6d68:	9209      	str	r2, [sp, #36]	; 0x24
    6d6a:	e9dd 0108 	ldrd	r0, r1, [sp, #32]
    6d6e:	4301      	orrs	r1, r0
    6d70:	d1e9      	bne.n	6d46 <_vfprintf_r+0x97a>
    6d72:	e00b      	b.n	6d8c <_vfprintf_r+0x9c0>
    6d74:	b942      	cbnz	r2, 6d88 <_vfprintf_r+0x9bc>
    6d76:	f015 0f01 	tst.w	r5, #1
    6d7a:	d005      	beq.n	6d88 <_vfprintf_r+0x9bc>
    6d7c:	f50d 7a16 	add.w	sl, sp, #600	; 0x258
    6d80:	2330      	movs	r3, #48	; 0x30
    6d82:	f80a 3d25 	strb.w	r3, [sl, #-37]!
    6d86:	e001      	b.n	6d8c <_vfprintf_r+0x9c0>
    6d88:	f50d 7a0d 	add.w	sl, sp, #564	; 0x234
    6d8c:	f50d 7b0d 	add.w	fp, sp, #564	; 0x234
    6d90:	2200      	movs	r2, #0
    6d92:	ebca 0b0b 	rsb	fp, sl, fp
    6d96:	9208      	str	r2, [sp, #32]
    6d98:	e021      	b.n	6dde <_vfprintf_r+0xa12>
    6d9a:	930c      	str	r3, [sp, #48]	; 0x30
    6d9c:	920d      	str	r2, [sp, #52]	; 0x34
    6d9e:	f1b9 0f00 	cmp.w	r9, #0
    6da2:	f000 83df 	beq.w	7564 <_vfprintf_r+0x1198>
    6da6:	f04f 0c00 	mov.w	ip, #0
    6daa:	f88d 920c 	strb.w	r9, [sp, #524]	; 0x20c
    6dae:	f88d c257 	strb.w	ip, [sp, #599]	; 0x257
    6db2:	f04f 0b01 	mov.w	fp, #1
    6db6:	f8cd c020 	str.w	ip, [sp, #32]
    6dba:	f50d 7a03 	add.w	sl, sp, #524	; 0x20c
    6dbe:	e00e      	b.n	6dde <_vfprintf_r+0xa12>
    6dc0:	f8dd c050 	ldr.w	ip, [sp, #80]	; 0x50
    6dc4:	e00b      	b.n	6dde <_vfprintf_r+0xa12>
    6dc6:	46e3      	mov	fp, ip
    6dc8:	4684      	mov	ip, r0
    6dca:	9008      	str	r0, [sp, #32]
    6dcc:	e007      	b.n	6dde <_vfprintf_r+0xa12>
    6dce:	bf00      	nop
    6dd0:	0001104d 	.word	0x0001104d
    6dd4:	0001103c 	.word	0x0001103c
    6dd8:	46e3      	mov	fp, ip
    6dda:	469c      	mov	ip, r3
    6ddc:	9308      	str	r3, [sp, #32]
    6dde:	45e3      	cmp	fp, ip
    6de0:	bfac      	ite	ge
    6de2:	465b      	movge	r3, fp
    6de4:	4663      	movlt	r3, ip
    6de6:	930f      	str	r3, [sp, #60]	; 0x3c
    6de8:	f89d 3257 	ldrb.w	r3, [sp, #599]	; 0x257
    6dec:	b113      	cbz	r3, 6df4 <_vfprintf_r+0xa28>
    6dee:	980f      	ldr	r0, [sp, #60]	; 0x3c
    6df0:	3001      	adds	r0, #1
    6df2:	900f      	str	r0, [sp, #60]	; 0x3c
    6df4:	f015 0102 	ands.w	r1, r5, #2
    6df8:	9114      	str	r1, [sp, #80]	; 0x50
    6dfa:	d002      	beq.n	6e02 <_vfprintf_r+0xa36>
    6dfc:	9a0f      	ldr	r2, [sp, #60]	; 0x3c
    6dfe:	3202      	adds	r2, #2
    6e00:	920f      	str	r2, [sp, #60]	; 0x3c
    6e02:	f015 0384 	ands.w	r3, r5, #132	; 0x84
    6e06:	9317      	str	r3, [sp, #92]	; 0x5c
    6e08:	d146      	bne.n	6e98 <_vfprintf_r+0xacc>
    6e0a:	980d      	ldr	r0, [sp, #52]	; 0x34
    6e0c:	990f      	ldr	r1, [sp, #60]	; 0x3c
    6e0e:	1a43      	subs	r3, r0, r1
    6e10:	2b00      	cmp	r3, #0
    6e12:	dc1b      	bgt.n	6e4c <_vfprintf_r+0xa80>
    6e14:	e040      	b.n	6e98 <_vfprintf_r+0xacc>
    6e16:	601a      	str	r2, [r3, #0]
    6e18:	2210      	movs	r2, #16
    6e1a:	1889      	adds	r1, r1, r2
    6e1c:	605a      	str	r2, [r3, #4]
    6e1e:	9a8e      	ldr	r2, [sp, #568]	; 0x238
    6e20:	918f      	str	r1, [sp, #572]	; 0x23c
    6e22:	3201      	adds	r2, #1
    6e24:	928e      	str	r2, [sp, #568]	; 0x238
    6e26:	2a07      	cmp	r2, #7
    6e28:	dc01      	bgt.n	6e2e <_vfprintf_r+0xa62>
    6e2a:	3308      	adds	r3, #8
    6e2c:	e00c      	b.n	6e48 <_vfprintf_r+0xa7c>
    6e2e:	4640      	mov	r0, r8
    6e30:	4639      	mov	r1, r7
    6e32:	aa8d      	add	r2, sp, #564	; 0x234
    6e34:	f8cd c018 	str.w	ip, [sp, #24]
    6e38:	f005 ffd8 	bl	cdec <__sprint_r>
    6e3c:	f8dd c018 	ldr.w	ip, [sp, #24]
    6e40:	2800      	cmp	r0, #0
    6e42:	f040 8396 	bne.w	7572 <_vfprintf_r+0x11a6>
    6e46:	ab73      	add	r3, sp, #460	; 0x1cc
    6e48:	3d10      	subs	r5, #16
    6e4a:	e004      	b.n	6e56 <_vfprintf_r+0xa8a>
    6e4c:	462a      	mov	r2, r5
    6e4e:	461d      	mov	r5, r3
    6e50:	4623      	mov	r3, r4
    6e52:	464c      	mov	r4, r9
    6e54:	4691      	mov	r9, r2
    6e56:	2d10      	cmp	r5, #16
    6e58:	998f      	ldr	r1, [sp, #572]	; 0x23c
    6e5a:	4a93      	ldr	r2, [pc, #588]	; (70a8 <_vfprintf_r+0xcdc>)
    6e5c:	dcdb      	bgt.n	6e16 <_vfprintf_r+0xa4a>
    6e5e:	4648      	mov	r0, r9
    6e60:	46a1      	mov	r9, r4
    6e62:	461c      	mov	r4, r3
    6e64:	462b      	mov	r3, r5
    6e66:	4605      	mov	r5, r0
    6e68:	6063      	str	r3, [r4, #4]
    6e6a:	18cb      	adds	r3, r1, r3
    6e6c:	6022      	str	r2, [r4, #0]
    6e6e:	938f      	str	r3, [sp, #572]	; 0x23c
    6e70:	9b8e      	ldr	r3, [sp, #568]	; 0x238
    6e72:	3301      	adds	r3, #1
    6e74:	938e      	str	r3, [sp, #568]	; 0x238
    6e76:	2b07      	cmp	r3, #7
    6e78:	dc01      	bgt.n	6e7e <_vfprintf_r+0xab2>
    6e7a:	3408      	adds	r4, #8
    6e7c:	e00c      	b.n	6e98 <_vfprintf_r+0xacc>
    6e7e:	4640      	mov	r0, r8
    6e80:	4639      	mov	r1, r7
    6e82:	aa8d      	add	r2, sp, #564	; 0x234
    6e84:	f8cd c018 	str.w	ip, [sp, #24]
    6e88:	f005 ffb0 	bl	cdec <__sprint_r>
    6e8c:	f8dd c018 	ldr.w	ip, [sp, #24]
    6e90:	2800      	cmp	r0, #0
    6e92:	f040 836e 	bne.w	7572 <_vfprintf_r+0x11a6>
    6e96:	ac73      	add	r4, sp, #460	; 0x1cc
    6e98:	f89d 3257 	ldrb.w	r3, [sp, #599]	; 0x257
    6e9c:	b1db      	cbz	r3, 6ed6 <_vfprintf_r+0xb0a>
    6e9e:	ab94      	add	r3, sp, #592	; 0x250
    6ea0:	3307      	adds	r3, #7
    6ea2:	6023      	str	r3, [r4, #0]
    6ea4:	2301      	movs	r3, #1
    6ea6:	6063      	str	r3, [r4, #4]
    6ea8:	9b8f      	ldr	r3, [sp, #572]	; 0x23c
    6eaa:	3301      	adds	r3, #1
    6eac:	938f      	str	r3, [sp, #572]	; 0x23c
    6eae:	9b8e      	ldr	r3, [sp, #568]	; 0x238
    6eb0:	3301      	adds	r3, #1
    6eb2:	938e      	str	r3, [sp, #568]	; 0x238
    6eb4:	2b07      	cmp	r3, #7
    6eb6:	dc01      	bgt.n	6ebc <_vfprintf_r+0xaf0>
    6eb8:	3408      	adds	r4, #8
    6eba:	e00c      	b.n	6ed6 <_vfprintf_r+0xb0a>
    6ebc:	4640      	mov	r0, r8
    6ebe:	4639      	mov	r1, r7
    6ec0:	aa8d      	add	r2, sp, #564	; 0x234
    6ec2:	f8cd c018 	str.w	ip, [sp, #24]
    6ec6:	f005 ff91 	bl	cdec <__sprint_r>
    6eca:	f8dd c018 	ldr.w	ip, [sp, #24]
    6ece:	2800      	cmp	r0, #0
    6ed0:	f040 834f 	bne.w	7572 <_vfprintf_r+0x11a6>
    6ed4:	ac73      	add	r4, sp, #460	; 0x1cc
    6ed6:	9a14      	ldr	r2, [sp, #80]	; 0x50
    6ed8:	b1d2      	cbz	r2, 6f10 <_vfprintf_r+0xb44>
    6eda:	ab95      	add	r3, sp, #596	; 0x254
    6edc:	6023      	str	r3, [r4, #0]
    6ede:	2302      	movs	r3, #2
    6ee0:	6063      	str	r3, [r4, #4]
    6ee2:	9b8f      	ldr	r3, [sp, #572]	; 0x23c
    6ee4:	3302      	adds	r3, #2
    6ee6:	938f      	str	r3, [sp, #572]	; 0x23c
    6ee8:	9b8e      	ldr	r3, [sp, #568]	; 0x238
    6eea:	3301      	adds	r3, #1
    6eec:	938e      	str	r3, [sp, #568]	; 0x238
    6eee:	2b07      	cmp	r3, #7
    6ef0:	dc01      	bgt.n	6ef6 <_vfprintf_r+0xb2a>
    6ef2:	3408      	adds	r4, #8
    6ef4:	e00c      	b.n	6f10 <_vfprintf_r+0xb44>
    6ef6:	4640      	mov	r0, r8
    6ef8:	4639      	mov	r1, r7
    6efa:	aa8d      	add	r2, sp, #564	; 0x234
    6efc:	f8cd c018 	str.w	ip, [sp, #24]
    6f00:	f005 ff74 	bl	cdec <__sprint_r>
    6f04:	f8dd c018 	ldr.w	ip, [sp, #24]
    6f08:	2800      	cmp	r0, #0
    6f0a:	f040 8332 	bne.w	7572 <_vfprintf_r+0x11a6>
    6f0e:	ac73      	add	r4, sp, #460	; 0x1cc
    6f10:	9b17      	ldr	r3, [sp, #92]	; 0x5c
    6f12:	2b80      	cmp	r3, #128	; 0x80
    6f14:	d146      	bne.n	6fa4 <_vfprintf_r+0xbd8>
    6f16:	980d      	ldr	r0, [sp, #52]	; 0x34
    6f18:	990f      	ldr	r1, [sp, #60]	; 0x3c
    6f1a:	1a43      	subs	r3, r0, r1
    6f1c:	2b00      	cmp	r3, #0
    6f1e:	dc1b      	bgt.n	6f58 <_vfprintf_r+0xb8c>
    6f20:	e040      	b.n	6fa4 <_vfprintf_r+0xbd8>
    6f22:	601a      	str	r2, [r3, #0]
    6f24:	2210      	movs	r2, #16
    6f26:	1889      	adds	r1, r1, r2
    6f28:	605a      	str	r2, [r3, #4]
    6f2a:	9a8e      	ldr	r2, [sp, #568]	; 0x238
    6f2c:	918f      	str	r1, [sp, #572]	; 0x23c
    6f2e:	3201      	adds	r2, #1
    6f30:	928e      	str	r2, [sp, #568]	; 0x238
    6f32:	2a07      	cmp	r2, #7
    6f34:	dc01      	bgt.n	6f3a <_vfprintf_r+0xb6e>
    6f36:	3308      	adds	r3, #8
    6f38:	e00c      	b.n	6f54 <_vfprintf_r+0xb88>
    6f3a:	4640      	mov	r0, r8
    6f3c:	4639      	mov	r1, r7
    6f3e:	aa8d      	add	r2, sp, #564	; 0x234
    6f40:	f8cd c018 	str.w	ip, [sp, #24]
    6f44:	f005 ff52 	bl	cdec <__sprint_r>
    6f48:	f8dd c018 	ldr.w	ip, [sp, #24]
    6f4c:	2800      	cmp	r0, #0
    6f4e:	f040 8310 	bne.w	7572 <_vfprintf_r+0x11a6>
    6f52:	ab73      	add	r3, sp, #460	; 0x1cc
    6f54:	3d10      	subs	r5, #16
    6f56:	e004      	b.n	6f62 <_vfprintf_r+0xb96>
    6f58:	462a      	mov	r2, r5
    6f5a:	461d      	mov	r5, r3
    6f5c:	4623      	mov	r3, r4
    6f5e:	464c      	mov	r4, r9
    6f60:	4691      	mov	r9, r2
    6f62:	2d10      	cmp	r5, #16
    6f64:	998f      	ldr	r1, [sp, #572]	; 0x23c
    6f66:	4a51      	ldr	r2, [pc, #324]	; (70ac <_vfprintf_r+0xce0>)
    6f68:	dcdb      	bgt.n	6f22 <_vfprintf_r+0xb56>
    6f6a:	4648      	mov	r0, r9
    6f6c:	46a1      	mov	r9, r4
    6f6e:	461c      	mov	r4, r3
    6f70:	462b      	mov	r3, r5
    6f72:	4605      	mov	r5, r0
    6f74:	6063      	str	r3, [r4, #4]
    6f76:	18cb      	adds	r3, r1, r3
    6f78:	6022      	str	r2, [r4, #0]
    6f7a:	938f      	str	r3, [sp, #572]	; 0x23c
    6f7c:	9b8e      	ldr	r3, [sp, #568]	; 0x238
    6f7e:	3301      	adds	r3, #1
    6f80:	938e      	str	r3, [sp, #568]	; 0x238
    6f82:	2b07      	cmp	r3, #7
    6f84:	dc01      	bgt.n	6f8a <_vfprintf_r+0xbbe>
    6f86:	3408      	adds	r4, #8
    6f88:	e00c      	b.n	6fa4 <_vfprintf_r+0xbd8>
    6f8a:	4640      	mov	r0, r8
    6f8c:	4639      	mov	r1, r7
    6f8e:	aa8d      	add	r2, sp, #564	; 0x234
    6f90:	f8cd c018 	str.w	ip, [sp, #24]
    6f94:	f005 ff2a 	bl	cdec <__sprint_r>
    6f98:	f8dd c018 	ldr.w	ip, [sp, #24]
    6f9c:	2800      	cmp	r0, #0
    6f9e:	f040 82e8 	bne.w	7572 <_vfprintf_r+0x11a6>
    6fa2:	ac73      	add	r4, sp, #460	; 0x1cc
    6fa4:	ebcb 030c 	rsb	r3, fp, ip
    6fa8:	2b00      	cmp	r3, #0
    6faa:	dc17      	bgt.n	6fdc <_vfprintf_r+0xc10>
    6fac:	e038      	b.n	7020 <_vfprintf_r+0xc54>
    6fae:	601a      	str	r2, [r3, #0]
    6fb0:	2210      	movs	r2, #16
    6fb2:	1889      	adds	r1, r1, r2
    6fb4:	605a      	str	r2, [r3, #4]
    6fb6:	9a8e      	ldr	r2, [sp, #568]	; 0x238
    6fb8:	918f      	str	r1, [sp, #572]	; 0x23c
    6fba:	3201      	adds	r2, #1
    6fbc:	928e      	str	r2, [sp, #568]	; 0x238
    6fbe:	2a07      	cmp	r2, #7
    6fc0:	dc01      	bgt.n	6fc6 <_vfprintf_r+0xbfa>
    6fc2:	3308      	adds	r3, #8
    6fc4:	e008      	b.n	6fd8 <_vfprintf_r+0xc0c>
    6fc6:	4640      	mov	r0, r8
    6fc8:	4639      	mov	r1, r7
    6fca:	aa8d      	add	r2, sp, #564	; 0x234
    6fcc:	f005 ff0e 	bl	cdec <__sprint_r>
    6fd0:	2800      	cmp	r0, #0
    6fd2:	f040 82ce 	bne.w	7572 <_vfprintf_r+0x11a6>
    6fd6:	ab73      	add	r3, sp, #460	; 0x1cc
    6fd8:	3d10      	subs	r5, #16
    6fda:	e004      	b.n	6fe6 <_vfprintf_r+0xc1a>
    6fdc:	462a      	mov	r2, r5
    6fde:	461d      	mov	r5, r3
    6fe0:	4623      	mov	r3, r4
    6fe2:	464c      	mov	r4, r9
    6fe4:	4691      	mov	r9, r2
    6fe6:	2d10      	cmp	r5, #16
    6fe8:	998f      	ldr	r1, [sp, #572]	; 0x23c
    6fea:	4a30      	ldr	r2, [pc, #192]	; (70ac <_vfprintf_r+0xce0>)
    6fec:	dcdf      	bgt.n	6fae <_vfprintf_r+0xbe2>
    6fee:	4648      	mov	r0, r9
    6ff0:	46a1      	mov	r9, r4
    6ff2:	461c      	mov	r4, r3
    6ff4:	462b      	mov	r3, r5
    6ff6:	4605      	mov	r5, r0
    6ff8:	6063      	str	r3, [r4, #4]
    6ffa:	18cb      	adds	r3, r1, r3
    6ffc:	6022      	str	r2, [r4, #0]
    6ffe:	938f      	str	r3, [sp, #572]	; 0x23c
    7000:	9b8e      	ldr	r3, [sp, #568]	; 0x238
    7002:	3301      	adds	r3, #1
    7004:	938e      	str	r3, [sp, #568]	; 0x238
    7006:	2b07      	cmp	r3, #7
    7008:	dc01      	bgt.n	700e <_vfprintf_r+0xc42>
    700a:	3408      	adds	r4, #8
    700c:	e008      	b.n	7020 <_vfprintf_r+0xc54>
    700e:	4640      	mov	r0, r8
    7010:	4639      	mov	r1, r7
    7012:	aa8d      	add	r2, sp, #564	; 0x234
    7014:	f005 feea 	bl	cdec <__sprint_r>
    7018:	2800      	cmp	r0, #0
    701a:	f040 82aa 	bne.w	7572 <_vfprintf_r+0x11a6>
    701e:	ac73      	add	r4, sp, #460	; 0x1cc
    7020:	f415 7f80 	tst.w	r5, #256	; 0x100
    7024:	d106      	bne.n	7034 <_vfprintf_r+0xc68>
    7026:	9b8f      	ldr	r3, [sp, #572]	; 0x23c
    7028:	f8c4 a000 	str.w	sl, [r4]
    702c:	f8c4 b004 	str.w	fp, [r4, #4]
    7030:	445b      	add	r3, fp
    7032:	e23f      	b.n	74b4 <_vfprintf_r+0x10e8>
    7034:	f1b9 0f65 	cmp.w	r9, #101	; 0x65
    7038:	f340 81b7 	ble.w	73aa <_vfprintf_r+0xfde>
    703c:	9810      	ldr	r0, [sp, #64]	; 0x40
    703e:	2200      	movs	r2, #0
    7040:	9911      	ldr	r1, [sp, #68]	; 0x44
    7042:	2300      	movs	r3, #0
    7044:	f009 f9aa 	bl	1039c <__aeabi_dcmpeq>
    7048:	2800      	cmp	r0, #0
    704a:	d060      	beq.n	710e <_vfprintf_r+0xd42>
    704c:	4b18      	ldr	r3, [pc, #96]	; (70b0 <_vfprintf_r+0xce4>)
    704e:	6023      	str	r3, [r4, #0]
    7050:	2301      	movs	r3, #1
    7052:	6063      	str	r3, [r4, #4]
    7054:	9b8f      	ldr	r3, [sp, #572]	; 0x23c
    7056:	3301      	adds	r3, #1
    7058:	938f      	str	r3, [sp, #572]	; 0x23c
    705a:	9b8e      	ldr	r3, [sp, #568]	; 0x238
    705c:	3301      	adds	r3, #1
    705e:	938e      	str	r3, [sp, #568]	; 0x238
    7060:	2b07      	cmp	r3, #7
    7062:	dc01      	bgt.n	7068 <_vfprintf_r+0xc9c>
    7064:	3408      	adds	r4, #8
    7066:	e008      	b.n	707a <_vfprintf_r+0xcae>
    7068:	4640      	mov	r0, r8
    706a:	4639      	mov	r1, r7
    706c:	aa8d      	add	r2, sp, #564	; 0x234
    706e:	f005 febd 	bl	cdec <__sprint_r>
    7072:	2800      	cmp	r0, #0
    7074:	f040 827d 	bne.w	7572 <_vfprintf_r+0x11a6>
    7078:	ac73      	add	r4, sp, #460	; 0x1cc
    707a:	9b94      	ldr	r3, [sp, #592]	; 0x250
    707c:	9a0b      	ldr	r2, [sp, #44]	; 0x2c
    707e:	4293      	cmp	r3, r2
    7080:	db03      	blt.n	708a <_vfprintf_r+0xcbe>
    7082:	f015 0f01 	tst.w	r5, #1
    7086:	f000 8225 	beq.w	74d4 <_vfprintf_r+0x1108>
    708a:	9b13      	ldr	r3, [sp, #76]	; 0x4c
    708c:	9812      	ldr	r0, [sp, #72]	; 0x48
    708e:	6023      	str	r3, [r4, #0]
    7090:	9b8f      	ldr	r3, [sp, #572]	; 0x23c
    7092:	6060      	str	r0, [r4, #4]
    7094:	181b      	adds	r3, r3, r0
    7096:	938f      	str	r3, [sp, #572]	; 0x23c
    7098:	9b8e      	ldr	r3, [sp, #568]	; 0x238
    709a:	3301      	adds	r3, #1
    709c:	938e      	str	r3, [sp, #568]	; 0x238
    709e:	2b07      	cmp	r3, #7
    70a0:	dc08      	bgt.n	70b4 <_vfprintf_r+0xce8>
    70a2:	3408      	adds	r4, #8
    70a4:	e00f      	b.n	70c6 <_vfprintf_r+0xcfa>
    70a6:	bf00      	nop
    70a8:	0001101c 	.word	0x0001101c
    70ac:	00011060 	.word	0x00011060
    70b0:	0001105e 	.word	0x0001105e
    70b4:	4640      	mov	r0, r8
    70b6:	4639      	mov	r1, r7
    70b8:	aa8d      	add	r2, sp, #564	; 0x234
    70ba:	f005 fe97 	bl	cdec <__sprint_r>
    70be:	2800      	cmp	r0, #0
    70c0:	f040 8257 	bne.w	7572 <_vfprintf_r+0x11a6>
    70c4:	ac73      	add	r4, sp, #460	; 0x1cc
    70c6:	990b      	ldr	r1, [sp, #44]	; 0x2c
    70c8:	f101 39ff 	add.w	r9, r1, #4294967295
    70cc:	f1b9 0f00 	cmp.w	r9, #0
    70d0:	dc17      	bgt.n	7102 <_vfprintf_r+0xd36>
    70d2:	e1ff      	b.n	74d4 <_vfprintf_r+0x1108>
    70d4:	6022      	str	r2, [r4, #0]
    70d6:	2210      	movs	r2, #16
    70d8:	189b      	adds	r3, r3, r2
    70da:	6062      	str	r2, [r4, #4]
    70dc:	938f      	str	r3, [sp, #572]	; 0x23c
    70de:	9b8e      	ldr	r3, [sp, #568]	; 0x238
    70e0:	3301      	adds	r3, #1
    70e2:	938e      	str	r3, [sp, #568]	; 0x238
    70e4:	2b07      	cmp	r3, #7
    70e6:	dc01      	bgt.n	70ec <_vfprintf_r+0xd20>
    70e8:	3408      	adds	r4, #8
    70ea:	e008      	b.n	70fe <_vfprintf_r+0xd32>
    70ec:	4640      	mov	r0, r8
    70ee:	4639      	mov	r1, r7
    70f0:	aa8d      	add	r2, sp, #564	; 0x234
    70f2:	f005 fe7b 	bl	cdec <__sprint_r>
    70f6:	2800      	cmp	r0, #0
    70f8:	f040 823b 	bne.w	7572 <_vfprintf_r+0x11a6>
    70fc:	ac73      	add	r4, sp, #460	; 0x1cc
    70fe:	f1a9 0910 	sub.w	r9, r9, #16
    7102:	f1b9 0f10 	cmp.w	r9, #16
    7106:	9b8f      	ldr	r3, [sp, #572]	; 0x23c
    7108:	4a95      	ldr	r2, [pc, #596]	; (7360 <_vfprintf_r+0xf94>)
    710a:	dce3      	bgt.n	70d4 <_vfprintf_r+0xd08>
    710c:	e148      	b.n	73a0 <_vfprintf_r+0xfd4>
    710e:	9b94      	ldr	r3, [sp, #592]	; 0x250
    7110:	2b00      	cmp	r3, #0
    7112:	dc79      	bgt.n	7208 <_vfprintf_r+0xe3c>
    7114:	4b93      	ldr	r3, [pc, #588]	; (7364 <_vfprintf_r+0xf98>)
    7116:	6023      	str	r3, [r4, #0]
    7118:	2301      	movs	r3, #1
    711a:	6063      	str	r3, [r4, #4]
    711c:	9b8f      	ldr	r3, [sp, #572]	; 0x23c
    711e:	3301      	adds	r3, #1
    7120:	938f      	str	r3, [sp, #572]	; 0x23c
    7122:	9b8e      	ldr	r3, [sp, #568]	; 0x238
    7124:	3301      	adds	r3, #1
    7126:	938e      	str	r3, [sp, #568]	; 0x238
    7128:	2b07      	cmp	r3, #7
    712a:	dc01      	bgt.n	7130 <_vfprintf_r+0xd64>
    712c:	3408      	adds	r4, #8
    712e:	e008      	b.n	7142 <_vfprintf_r+0xd76>
    7130:	4640      	mov	r0, r8
    7132:	4639      	mov	r1, r7
    7134:	aa8d      	add	r2, sp, #564	; 0x234
    7136:	f005 fe59 	bl	cdec <__sprint_r>
    713a:	2800      	cmp	r0, #0
    713c:	f040 8219 	bne.w	7572 <_vfprintf_r+0x11a6>
    7140:	ac73      	add	r4, sp, #460	; 0x1cc
    7142:	9b94      	ldr	r3, [sp, #592]	; 0x250
    7144:	b92b      	cbnz	r3, 7152 <_vfprintf_r+0xd86>
    7146:	9a0b      	ldr	r2, [sp, #44]	; 0x2c
    7148:	b91a      	cbnz	r2, 7152 <_vfprintf_r+0xd86>
    714a:	f015 0f01 	tst.w	r5, #1
    714e:	f000 81c1 	beq.w	74d4 <_vfprintf_r+0x1108>
    7152:	9b13      	ldr	r3, [sp, #76]	; 0x4c
    7154:	9812      	ldr	r0, [sp, #72]	; 0x48
    7156:	6023      	str	r3, [r4, #0]
    7158:	9b8f      	ldr	r3, [sp, #572]	; 0x23c
    715a:	6060      	str	r0, [r4, #4]
    715c:	181b      	adds	r3, r3, r0
    715e:	938f      	str	r3, [sp, #572]	; 0x23c
    7160:	9b8e      	ldr	r3, [sp, #568]	; 0x238
    7162:	3301      	adds	r3, #1
    7164:	938e      	str	r3, [sp, #568]	; 0x238
    7166:	2b07      	cmp	r3, #7
    7168:	dc02      	bgt.n	7170 <_vfprintf_r+0xda4>
    716a:	f104 0308 	add.w	r3, r4, #8
    716e:	e008      	b.n	7182 <_vfprintf_r+0xdb6>
    7170:	4640      	mov	r0, r8
    7172:	4639      	mov	r1, r7
    7174:	aa8d      	add	r2, sp, #564	; 0x234
    7176:	f005 fe39 	bl	cdec <__sprint_r>
    717a:	2800      	cmp	r0, #0
    717c:	f040 81f9 	bne.w	7572 <_vfprintf_r+0x11a6>
    7180:	ab73      	add	r3, sp, #460	; 0x1cc
    7182:	9c94      	ldr	r4, [sp, #592]	; 0x250
    7184:	4264      	negs	r4, r4
    7186:	2c00      	cmp	r4, #0
    7188:	dc16      	bgt.n	71b8 <_vfprintf_r+0xdec>
    718a:	e02d      	b.n	71e8 <_vfprintf_r+0xe1c>
    718c:	6019      	str	r1, [r3, #0]
    718e:	2110      	movs	r1, #16
    7190:	1852      	adds	r2, r2, r1
    7192:	6059      	str	r1, [r3, #4]
    7194:	928f      	str	r2, [sp, #572]	; 0x23c
    7196:	9a8e      	ldr	r2, [sp, #568]	; 0x238
    7198:	3201      	adds	r2, #1
    719a:	928e      	str	r2, [sp, #568]	; 0x238
    719c:	2a07      	cmp	r2, #7
    719e:	dc01      	bgt.n	71a4 <_vfprintf_r+0xdd8>
    71a0:	3308      	adds	r3, #8
    71a2:	e008      	b.n	71b6 <_vfprintf_r+0xdea>
    71a4:	4640      	mov	r0, r8
    71a6:	4639      	mov	r1, r7
    71a8:	aa8d      	add	r2, sp, #564	; 0x234
    71aa:	f005 fe1f 	bl	cdec <__sprint_r>
    71ae:	2800      	cmp	r0, #0
    71b0:	f040 81df 	bne.w	7572 <_vfprintf_r+0x11a6>
    71b4:	ab73      	add	r3, sp, #460	; 0x1cc
    71b6:	3c10      	subs	r4, #16
    71b8:	2c10      	cmp	r4, #16
    71ba:	9a8f      	ldr	r2, [sp, #572]	; 0x23c
    71bc:	4968      	ldr	r1, [pc, #416]	; (7360 <_vfprintf_r+0xf94>)
    71be:	dce5      	bgt.n	718c <_vfprintf_r+0xdc0>
    71c0:	605c      	str	r4, [r3, #4]
    71c2:	1914      	adds	r4, r2, r4
    71c4:	9a8e      	ldr	r2, [sp, #568]	; 0x238
    71c6:	6019      	str	r1, [r3, #0]
    71c8:	3201      	adds	r2, #1
    71ca:	948f      	str	r4, [sp, #572]	; 0x23c
    71cc:	2a07      	cmp	r2, #7
    71ce:	928e      	str	r2, [sp, #568]	; 0x238
    71d0:	dc01      	bgt.n	71d6 <_vfprintf_r+0xe0a>
    71d2:	3308      	adds	r3, #8
    71d4:	e008      	b.n	71e8 <_vfprintf_r+0xe1c>
    71d6:	4640      	mov	r0, r8
    71d8:	4639      	mov	r1, r7
    71da:	aa8d      	add	r2, sp, #564	; 0x234
    71dc:	f005 fe06 	bl	cdec <__sprint_r>
    71e0:	2800      	cmp	r0, #0
    71e2:	f040 81c6 	bne.w	7572 <_vfprintf_r+0x11a6>
    71e6:	ab73      	add	r3, sp, #460	; 0x1cc
    71e8:	990b      	ldr	r1, [sp, #44]	; 0x2c
    71ea:	9a8f      	ldr	r2, [sp, #572]	; 0x23c
    71ec:	f8c3 a000 	str.w	sl, [r3]
    71f0:	6059      	str	r1, [r3, #4]
    71f2:	1852      	adds	r2, r2, r1
    71f4:	928f      	str	r2, [sp, #572]	; 0x23c
    71f6:	9a8e      	ldr	r2, [sp, #568]	; 0x238
    71f8:	3201      	adds	r2, #1
    71fa:	928e      	str	r2, [sp, #568]	; 0x238
    71fc:	2a07      	cmp	r2, #7
    71fe:	f300 8161 	bgt.w	74c4 <_vfprintf_r+0x10f8>
    7202:	f103 0408 	add.w	r4, r3, #8
    7206:	e165      	b.n	74d4 <_vfprintf_r+0x1108>
    7208:	9a0b      	ldr	r2, [sp, #44]	; 0x2c
    720a:	9b08      	ldr	r3, [sp, #32]
    720c:	4691      	mov	r9, r2
    720e:	eb0a 0b02 	add.w	fp, sl, r2
    7212:	4599      	cmp	r9, r3
    7214:	bfa8      	it	ge
    7216:	4699      	movge	r9, r3
    7218:	f1b9 0f00 	cmp.w	r9, #0
    721c:	dd16      	ble.n	724c <_vfprintf_r+0xe80>
    721e:	9b8f      	ldr	r3, [sp, #572]	; 0x23c
    7220:	f8c4 a000 	str.w	sl, [r4]
    7224:	f8c4 9004 	str.w	r9, [r4, #4]
    7228:	444b      	add	r3, r9
    722a:	938f      	str	r3, [sp, #572]	; 0x23c
    722c:	9b8e      	ldr	r3, [sp, #568]	; 0x238
    722e:	3301      	adds	r3, #1
    7230:	938e      	str	r3, [sp, #568]	; 0x238
    7232:	2b07      	cmp	r3, #7
    7234:	dc01      	bgt.n	723a <_vfprintf_r+0xe6e>
    7236:	3408      	adds	r4, #8
    7238:	e008      	b.n	724c <_vfprintf_r+0xe80>
    723a:	4640      	mov	r0, r8
    723c:	4639      	mov	r1, r7
    723e:	aa8d      	add	r2, sp, #564	; 0x234
    7240:	f005 fdd4 	bl	cdec <__sprint_r>
    7244:	2800      	cmp	r0, #0
    7246:	f040 8194 	bne.w	7572 <_vfprintf_r+0x11a6>
    724a:	ac73      	add	r4, sp, #460	; 0x1cc
    724c:	9808      	ldr	r0, [sp, #32]
    724e:	ea29 79e9 	bic.w	r9, r9, r9, asr #31
    7252:	ebc9 0900 	rsb	r9, r9, r0
    7256:	f1b9 0f00 	cmp.w	r9, #0
    725a:	dc17      	bgt.n	728c <_vfprintf_r+0xec0>
    725c:	e030      	b.n	72c0 <_vfprintf_r+0xef4>
    725e:	6022      	str	r2, [r4, #0]
    7260:	2210      	movs	r2, #16
    7262:	189b      	adds	r3, r3, r2
    7264:	6062      	str	r2, [r4, #4]
    7266:	938f      	str	r3, [sp, #572]	; 0x23c
    7268:	9b8e      	ldr	r3, [sp, #568]	; 0x238
    726a:	3301      	adds	r3, #1
    726c:	938e      	str	r3, [sp, #568]	; 0x238
    726e:	2b07      	cmp	r3, #7
    7270:	dc01      	bgt.n	7276 <_vfprintf_r+0xeaa>
    7272:	3408      	adds	r4, #8
    7274:	e008      	b.n	7288 <_vfprintf_r+0xebc>
    7276:	4640      	mov	r0, r8
    7278:	4639      	mov	r1, r7
    727a:	aa8d      	add	r2, sp, #564	; 0x234
    727c:	f005 fdb6 	bl	cdec <__sprint_r>
    7280:	2800      	cmp	r0, #0
    7282:	f040 8176 	bne.w	7572 <_vfprintf_r+0x11a6>
    7286:	ac73      	add	r4, sp, #460	; 0x1cc
    7288:	f1a9 0910 	sub.w	r9, r9, #16
    728c:	f1b9 0f10 	cmp.w	r9, #16
    7290:	9b8f      	ldr	r3, [sp, #572]	; 0x23c
    7292:	4a33      	ldr	r2, [pc, #204]	; (7360 <_vfprintf_r+0xf94>)
    7294:	dce3      	bgt.n	725e <_vfprintf_r+0xe92>
    7296:	6022      	str	r2, [r4, #0]
    7298:	444b      	add	r3, r9
    729a:	f8c4 9004 	str.w	r9, [r4, #4]
    729e:	938f      	str	r3, [sp, #572]	; 0x23c
    72a0:	9b8e      	ldr	r3, [sp, #568]	; 0x238
    72a2:	3301      	adds	r3, #1
    72a4:	938e      	str	r3, [sp, #568]	; 0x238
    72a6:	2b07      	cmp	r3, #7
    72a8:	dc01      	bgt.n	72ae <_vfprintf_r+0xee2>
    72aa:	3408      	adds	r4, #8
    72ac:	e008      	b.n	72c0 <_vfprintf_r+0xef4>
    72ae:	4640      	mov	r0, r8
    72b0:	4639      	mov	r1, r7
    72b2:	aa8d      	add	r2, sp, #564	; 0x234
    72b4:	f005 fd9a 	bl	cdec <__sprint_r>
    72b8:	2800      	cmp	r0, #0
    72ba:	f040 815a 	bne.w	7572 <_vfprintf_r+0x11a6>
    72be:	ac73      	add	r4, sp, #460	; 0x1cc
    72c0:	9b94      	ldr	r3, [sp, #592]	; 0x250
    72c2:	990b      	ldr	r1, [sp, #44]	; 0x2c
    72c4:	428b      	cmp	r3, r1
    72c6:	db02      	blt.n	72ce <_vfprintf_r+0xf02>
    72c8:	f015 0f01 	tst.w	r5, #1
    72cc:	d017      	beq.n	72fe <_vfprintf_r+0xf32>
    72ce:	9b12      	ldr	r3, [sp, #72]	; 0x48
    72d0:	9a13      	ldr	r2, [sp, #76]	; 0x4c
    72d2:	9812      	ldr	r0, [sp, #72]	; 0x48
    72d4:	6063      	str	r3, [r4, #4]
    72d6:	9b8f      	ldr	r3, [sp, #572]	; 0x23c
    72d8:	6022      	str	r2, [r4, #0]
    72da:	181b      	adds	r3, r3, r0
    72dc:	938f      	str	r3, [sp, #572]	; 0x23c
    72de:	9b8e      	ldr	r3, [sp, #568]	; 0x238
    72e0:	3301      	adds	r3, #1
    72e2:	938e      	str	r3, [sp, #568]	; 0x238
    72e4:	2b07      	cmp	r3, #7
    72e6:	dc01      	bgt.n	72ec <_vfprintf_r+0xf20>
    72e8:	3408      	adds	r4, #8
    72ea:	e008      	b.n	72fe <_vfprintf_r+0xf32>
    72ec:	4640      	mov	r0, r8
    72ee:	4639      	mov	r1, r7
    72f0:	aa8d      	add	r2, sp, #564	; 0x234
    72f2:	f005 fd7b 	bl	cdec <__sprint_r>
    72f6:	2800      	cmp	r0, #0
    72f8:	f040 813b 	bne.w	7572 <_vfprintf_r+0x11a6>
    72fc:	ac73      	add	r4, sp, #460	; 0x1cc
    72fe:	9908      	ldr	r1, [sp, #32]
    7300:	9a94      	ldr	r2, [sp, #592]	; 0x250
    7302:	980b      	ldr	r0, [sp, #44]	; 0x2c
    7304:	eb0a 0301 	add.w	r3, sl, r1
    7308:	ebc3 0b0b 	rsb	fp, r3, fp
    730c:	ebc2 0900 	rsb	r9, r2, r0
    7310:	45cb      	cmp	fp, r9
    7312:	bfb8      	it	lt
    7314:	46d9      	movlt	r9, fp
    7316:	f1b9 0f00 	cmp.w	r9, #0
    731a:	dd15      	ble.n	7348 <_vfprintf_r+0xf7c>
    731c:	6023      	str	r3, [r4, #0]
    731e:	9b8f      	ldr	r3, [sp, #572]	; 0x23c
    7320:	f8c4 9004 	str.w	r9, [r4, #4]
    7324:	444b      	add	r3, r9
    7326:	938f      	str	r3, [sp, #572]	; 0x23c
    7328:	9b8e      	ldr	r3, [sp, #568]	; 0x238
    732a:	3301      	adds	r3, #1
    732c:	938e      	str	r3, [sp, #568]	; 0x238
    732e:	2b07      	cmp	r3, #7
    7330:	dc01      	bgt.n	7336 <_vfprintf_r+0xf6a>
    7332:	3408      	adds	r4, #8
    7334:	e008      	b.n	7348 <_vfprintf_r+0xf7c>
    7336:	4640      	mov	r0, r8
    7338:	4639      	mov	r1, r7
    733a:	aa8d      	add	r2, sp, #564	; 0x234
    733c:	f005 fd56 	bl	cdec <__sprint_r>
    7340:	2800      	cmp	r0, #0
    7342:	f040 8116 	bne.w	7572 <_vfprintf_r+0x11a6>
    7346:	ac73      	add	r4, sp, #460	; 0x1cc
    7348:	9b94      	ldr	r3, [sp, #592]	; 0x250
    734a:	ea29 79e9 	bic.w	r9, r9, r9, asr #31
    734e:	990b      	ldr	r1, [sp, #44]	; 0x2c
    7350:	1acb      	subs	r3, r1, r3
    7352:	ebc9 0903 	rsb	r9, r9, r3
    7356:	f1b9 0f00 	cmp.w	r9, #0
    735a:	dc1c      	bgt.n	7396 <_vfprintf_r+0xfca>
    735c:	e0ba      	b.n	74d4 <_vfprintf_r+0x1108>
    735e:	bf00      	nop
    7360:	00011060 	.word	0x00011060
    7364:	0001105e 	.word	0x0001105e
    7368:	6022      	str	r2, [r4, #0]
    736a:	2210      	movs	r2, #16
    736c:	189b      	adds	r3, r3, r2
    736e:	6062      	str	r2, [r4, #4]
    7370:	938f      	str	r3, [sp, #572]	; 0x23c
    7372:	9b8e      	ldr	r3, [sp, #568]	; 0x238
    7374:	3301      	adds	r3, #1
    7376:	938e      	str	r3, [sp, #568]	; 0x238
    7378:	2b07      	cmp	r3, #7
    737a:	dc01      	bgt.n	7380 <_vfprintf_r+0xfb4>
    737c:	3408      	adds	r4, #8
    737e:	e008      	b.n	7392 <_vfprintf_r+0xfc6>
    7380:	4640      	mov	r0, r8
    7382:	4639      	mov	r1, r7
    7384:	aa8d      	add	r2, sp, #564	; 0x234
    7386:	f005 fd31 	bl	cdec <__sprint_r>
    738a:	2800      	cmp	r0, #0
    738c:	f040 80f1 	bne.w	7572 <_vfprintf_r+0x11a6>
    7390:	ac73      	add	r4, sp, #460	; 0x1cc
    7392:	f1a9 0910 	sub.w	r9, r9, #16
    7396:	f1b9 0f10 	cmp.w	r9, #16
    739a:	9b8f      	ldr	r3, [sp, #572]	; 0x23c
    739c:	4a7e      	ldr	r2, [pc, #504]	; (7598 <_vfprintf_r+0x11cc>)
    739e:	dce3      	bgt.n	7368 <_vfprintf_r+0xf9c>
    73a0:	6022      	str	r2, [r4, #0]
    73a2:	444b      	add	r3, r9
    73a4:	f8c4 9004 	str.w	r9, [r4, #4]
    73a8:	e084      	b.n	74b4 <_vfprintf_r+0x10e8>
    73aa:	9a0b      	ldr	r2, [sp, #44]	; 0x2c
    73ac:	2a01      	cmp	r2, #1
    73ae:	dc02      	bgt.n	73b6 <_vfprintf_r+0xfea>
    73b0:	f015 0f01 	tst.w	r5, #1
    73b4:	d062      	beq.n	747c <_vfprintf_r+0x10b0>
    73b6:	2301      	movs	r3, #1
    73b8:	6063      	str	r3, [r4, #4]
    73ba:	9b8f      	ldr	r3, [sp, #572]	; 0x23c
    73bc:	f8c4 a000 	str.w	sl, [r4]
    73c0:	3301      	adds	r3, #1
    73c2:	938f      	str	r3, [sp, #572]	; 0x23c
    73c4:	9b8e      	ldr	r3, [sp, #568]	; 0x238
    73c6:	3301      	adds	r3, #1
    73c8:	938e      	str	r3, [sp, #568]	; 0x238
    73ca:	2b07      	cmp	r3, #7
    73cc:	dc01      	bgt.n	73d2 <_vfprintf_r+0x1006>
    73ce:	3408      	adds	r4, #8
    73d0:	e008      	b.n	73e4 <_vfprintf_r+0x1018>
    73d2:	4640      	mov	r0, r8
    73d4:	4639      	mov	r1, r7
    73d6:	aa8d      	add	r2, sp, #564	; 0x234
    73d8:	f005 fd08 	bl	cdec <__sprint_r>
    73dc:	2800      	cmp	r0, #0
    73de:	f040 80c8 	bne.w	7572 <_vfprintf_r+0x11a6>
    73e2:	ac73      	add	r4, sp, #460	; 0x1cc
    73e4:	9b13      	ldr	r3, [sp, #76]	; 0x4c
    73e6:	9812      	ldr	r0, [sp, #72]	; 0x48
    73e8:	6023      	str	r3, [r4, #0]
    73ea:	9b8f      	ldr	r3, [sp, #572]	; 0x23c
    73ec:	6060      	str	r0, [r4, #4]
    73ee:	181b      	adds	r3, r3, r0
    73f0:	938f      	str	r3, [sp, #572]	; 0x23c
    73f2:	9b8e      	ldr	r3, [sp, #568]	; 0x238
    73f4:	3301      	adds	r3, #1
    73f6:	938e      	str	r3, [sp, #568]	; 0x238
    73f8:	2b07      	cmp	r3, #7
    73fa:	dc01      	bgt.n	7400 <_vfprintf_r+0x1034>
    73fc:	3408      	adds	r4, #8
    73fe:	e008      	b.n	7412 <_vfprintf_r+0x1046>
    7400:	4640      	mov	r0, r8
    7402:	4639      	mov	r1, r7
    7404:	aa8d      	add	r2, sp, #564	; 0x234
    7406:	f005 fcf1 	bl	cdec <__sprint_r>
    740a:	2800      	cmp	r0, #0
    740c:	f040 80b1 	bne.w	7572 <_vfprintf_r+0x11a6>
    7410:	ac73      	add	r4, sp, #460	; 0x1cc
    7412:	9911      	ldr	r1, [sp, #68]	; 0x44
    7414:	2300      	movs	r3, #0
    7416:	9810      	ldr	r0, [sp, #64]	; 0x40
    7418:	2200      	movs	r2, #0
    741a:	f008 ffbf 	bl	1039c <__aeabi_dcmpeq>
    741e:	990b      	ldr	r1, [sp, #44]	; 0x2c
    7420:	1e4b      	subs	r3, r1, #1
    7422:	b930      	cbnz	r0, 7432 <_vfprintf_r+0x1066>
    7424:	f10a 0201 	add.w	r2, sl, #1
    7428:	6022      	str	r2, [r4, #0]
    742a:	9a8f      	ldr	r2, [sp, #572]	; 0x23c
    742c:	6063      	str	r3, [r4, #4]
    742e:	18d3      	adds	r3, r2, r3
    7430:	e02a      	b.n	7488 <_vfprintf_r+0x10bc>
    7432:	f1b3 0900 	subs.w	r9, r3, #0
    7436:	dc17      	bgt.n	7468 <_vfprintf_r+0x109c>
    7438:	e036      	b.n	74a8 <_vfprintf_r+0x10dc>
    743a:	6022      	str	r2, [r4, #0]
    743c:	2210      	movs	r2, #16
    743e:	189b      	adds	r3, r3, r2
    7440:	6062      	str	r2, [r4, #4]
    7442:	938f      	str	r3, [sp, #572]	; 0x23c
    7444:	9b8e      	ldr	r3, [sp, #568]	; 0x238
    7446:	3301      	adds	r3, #1
    7448:	938e      	str	r3, [sp, #568]	; 0x238
    744a:	2b07      	cmp	r3, #7
    744c:	dc01      	bgt.n	7452 <_vfprintf_r+0x1086>
    744e:	3408      	adds	r4, #8
    7450:	e008      	b.n	7464 <_vfprintf_r+0x1098>
    7452:	4640      	mov	r0, r8
    7454:	4639      	mov	r1, r7
    7456:	aa8d      	add	r2, sp, #564	; 0x234
    7458:	f005 fcc8 	bl	cdec <__sprint_r>
    745c:	2800      	cmp	r0, #0
    745e:	f040 8088 	bne.w	7572 <_vfprintf_r+0x11a6>
    7462:	ac73      	add	r4, sp, #460	; 0x1cc
    7464:	f1a9 0910 	sub.w	r9, r9, #16
    7468:	f1b9 0f10 	cmp.w	r9, #16
    746c:	9b8f      	ldr	r3, [sp, #572]	; 0x23c
    746e:	4a4a      	ldr	r2, [pc, #296]	; (7598 <_vfprintf_r+0x11cc>)
    7470:	dce3      	bgt.n	743a <_vfprintf_r+0x106e>
    7472:	6022      	str	r2, [r4, #0]
    7474:	444b      	add	r3, r9
    7476:	f8c4 9004 	str.w	r9, [r4, #4]
    747a:	e005      	b.n	7488 <_vfprintf_r+0x10bc>
    747c:	2301      	movs	r3, #1
    747e:	6063      	str	r3, [r4, #4]
    7480:	9b8f      	ldr	r3, [sp, #572]	; 0x23c
    7482:	f8c4 a000 	str.w	sl, [r4]
    7486:	3301      	adds	r3, #1
    7488:	938f      	str	r3, [sp, #572]	; 0x23c
    748a:	9b8e      	ldr	r3, [sp, #568]	; 0x238
    748c:	3301      	adds	r3, #1
    748e:	938e      	str	r3, [sp, #568]	; 0x238
    7490:	2b07      	cmp	r3, #7
    7492:	dc01      	bgt.n	7498 <_vfprintf_r+0x10cc>
    7494:	3408      	adds	r4, #8
    7496:	e007      	b.n	74a8 <_vfprintf_r+0x10dc>
    7498:	4640      	mov	r0, r8
    749a:	4639      	mov	r1, r7
    749c:	aa8d      	add	r2, sp, #564	; 0x234
    749e:	f005 fca5 	bl	cdec <__sprint_r>
    74a2:	2800      	cmp	r0, #0
    74a4:	d165      	bne.n	7572 <_vfprintf_r+0x11a6>
    74a6:	ac73      	add	r4, sp, #460	; 0x1cc
    74a8:	ab90      	add	r3, sp, #576	; 0x240
    74aa:	9a15      	ldr	r2, [sp, #84]	; 0x54
    74ac:	6023      	str	r3, [r4, #0]
    74ae:	9b8f      	ldr	r3, [sp, #572]	; 0x23c
    74b0:	6062      	str	r2, [r4, #4]
    74b2:	189b      	adds	r3, r3, r2
    74b4:	938f      	str	r3, [sp, #572]	; 0x23c
    74b6:	9b8e      	ldr	r3, [sp, #568]	; 0x238
    74b8:	3301      	adds	r3, #1
    74ba:	938e      	str	r3, [sp, #568]	; 0x238
    74bc:	2b07      	cmp	r3, #7
    74be:	dc01      	bgt.n	74c4 <_vfprintf_r+0x10f8>
    74c0:	3408      	adds	r4, #8
    74c2:	e007      	b.n	74d4 <_vfprintf_r+0x1108>
    74c4:	4640      	mov	r0, r8
    74c6:	4639      	mov	r1, r7
    74c8:	aa8d      	add	r2, sp, #564	; 0x234
    74ca:	f005 fc8f 	bl	cdec <__sprint_r>
    74ce:	2800      	cmp	r0, #0
    74d0:	d14f      	bne.n	7572 <_vfprintf_r+0x11a6>
    74d2:	ac73      	add	r4, sp, #460	; 0x1cc
    74d4:	f015 0f04 	tst.w	r5, #4
    74d8:	d02f      	beq.n	753a <_vfprintf_r+0x116e>
    74da:	9b0d      	ldr	r3, [sp, #52]	; 0x34
    74dc:	f8dd a03c 	ldr.w	sl, [sp, #60]	; 0x3c
    74e0:	ebca 0503 	rsb	r5, sl, r3
    74e4:	2d00      	cmp	r5, #0
    74e6:	dc15      	bgt.n	7514 <_vfprintf_r+0x1148>
    74e8:	e027      	b.n	753a <_vfprintf_r+0x116e>
    74ea:	6022      	str	r2, [r4, #0]
    74ec:	2210      	movs	r2, #16
    74ee:	189b      	adds	r3, r3, r2
    74f0:	6062      	str	r2, [r4, #4]
    74f2:	938f      	str	r3, [sp, #572]	; 0x23c
    74f4:	9b8e      	ldr	r3, [sp, #568]	; 0x238
    74f6:	3301      	adds	r3, #1
    74f8:	938e      	str	r3, [sp, #568]	; 0x238
    74fa:	2b07      	cmp	r3, #7
    74fc:	dc01      	bgt.n	7502 <_vfprintf_r+0x1136>
    74fe:	3408      	adds	r4, #8
    7500:	e007      	b.n	7512 <_vfprintf_r+0x1146>
    7502:	4640      	mov	r0, r8
    7504:	4639      	mov	r1, r7
    7506:	aa8d      	add	r2, sp, #564	; 0x234
    7508:	f005 fc70 	bl	cdec <__sprint_r>
    750c:	2800      	cmp	r0, #0
    750e:	d130      	bne.n	7572 <_vfprintf_r+0x11a6>
    7510:	ac73      	add	r4, sp, #460	; 0x1cc
    7512:	3d10      	subs	r5, #16
    7514:	2d10      	cmp	r5, #16
    7516:	9b8f      	ldr	r3, [sp, #572]	; 0x23c
    7518:	4a20      	ldr	r2, [pc, #128]	; (759c <_vfprintf_r+0x11d0>)
    751a:	dce6      	bgt.n	74ea <_vfprintf_r+0x111e>
    751c:	6065      	str	r5, [r4, #4]
    751e:	195d      	adds	r5, r3, r5
    7520:	9b8e      	ldr	r3, [sp, #568]	; 0x238
    7522:	6022      	str	r2, [r4, #0]
    7524:	3301      	adds	r3, #1
    7526:	958f      	str	r5, [sp, #572]	; 0x23c
    7528:	2b07      	cmp	r3, #7
    752a:	938e      	str	r3, [sp, #568]	; 0x238
    752c:	dd05      	ble.n	753a <_vfprintf_r+0x116e>
    752e:	4640      	mov	r0, r8
    7530:	4639      	mov	r1, r7
    7532:	aa8d      	add	r2, sp, #564	; 0x234
    7534:	f005 fc5a 	bl	cdec <__sprint_r>
    7538:	b9d8      	cbnz	r0, 7572 <_vfprintf_r+0x11a6>
    753a:	980e      	ldr	r0, [sp, #56]	; 0x38
    753c:	9a0f      	ldr	r2, [sp, #60]	; 0x3c
    753e:	990d      	ldr	r1, [sp, #52]	; 0x34
    7540:	9b8f      	ldr	r3, [sp, #572]	; 0x23c
    7542:	428a      	cmp	r2, r1
    7544:	bfac      	ite	ge
    7546:	1880      	addge	r0, r0, r2
    7548:	1840      	addlt	r0, r0, r1
    754a:	900e      	str	r0, [sp, #56]	; 0x38
    754c:	b12b      	cbz	r3, 755a <_vfprintf_r+0x118e>
    754e:	4640      	mov	r0, r8
    7550:	4639      	mov	r1, r7
    7552:	aa8d      	add	r2, sp, #564	; 0x234
    7554:	f005 fc4a 	bl	cdec <__sprint_r>
    7558:	b958      	cbnz	r0, 7572 <_vfprintf_r+0x11a6>
    755a:	2300      	movs	r3, #0
    755c:	ac73      	add	r4, sp, #460	; 0x1cc
    755e:	938e      	str	r3, [sp, #568]	; 0x238
    7560:	f7fe bfbe 	b.w	64e0 <_vfprintf_r+0x114>
    7564:	9b8f      	ldr	r3, [sp, #572]	; 0x23c
    7566:	b123      	cbz	r3, 7572 <_vfprintf_r+0x11a6>
    7568:	4640      	mov	r0, r8
    756a:	4639      	mov	r1, r7
    756c:	aa8d      	add	r2, sp, #564	; 0x234
    756e:	f005 fc3d 	bl	cdec <__sprint_r>
    7572:	89bb      	ldrh	r3, [r7, #12]
    7574:	9d0e      	ldr	r5, [sp, #56]	; 0x38
    7576:	f003 0340 	and.w	r3, r3, #64	; 0x40
    757a:	2b00      	cmp	r3, #0
    757c:	bf18      	it	ne
    757e:	f04f 35ff 	movne.w	r5, #4294967295
    7582:	950e      	str	r5, [sp, #56]	; 0x38
    7584:	e002      	b.n	758c <_vfprintf_r+0x11c0>
    7586:	f04f 30ff 	mov.w	r0, #4294967295
    758a:	900e      	str	r0, [sp, #56]	; 0x38
    758c:	980e      	ldr	r0, [sp, #56]	; 0x38
    758e:	f50d 7d17 	add.w	sp, sp, #604	; 0x25c
    7592:	e8bd 8ff0 	ldmia.w	sp!, {r4, r5, r6, r7, r8, r9, sl, fp, pc}
    7596:	bf00      	nop
    7598:	00011060 	.word	0x00011060
    759c:	0001101c 	.word	0x0001101c

000075a0 <vfprintf>:
    75a0:	4613      	mov	r3, r2
    75a2:	4a05      	ldr	r2, [pc, #20]	; (75b8 <vfprintf+0x18>)
    75a4:	b530      	push	{r4, r5, lr}
    75a6:	4605      	mov	r5, r0
    75a8:	460c      	mov	r4, r1
    75aa:	6810      	ldr	r0, [r2, #0]
    75ac:	4629      	mov	r1, r5
    75ae:	4622      	mov	r2, r4
    75b0:	e8bd 4030 	ldmia.w	sp!, {r4, r5, lr}
    75b4:	f7fe bf0a 	b.w	63cc <_vfprintf_r>
    75b8:	100000f4 	.word	0x100000f4

000075bc <__svfscanf_r>:
    75bc:	e92d 4ff0 	stmdb	sp!, {r4, r5, r6, r7, r8, r9, sl, fp, lr}
    75c0:	460c      	mov	r4, r1
    75c2:	f5ad 7d2d 	sub.w	sp, sp, #692	; 0x2b4
    75c6:	461e      	mov	r6, r3
    75c8:	4682      	mov	sl, r0
    75ca:	4615      	mov	r5, r2
    75cc:	f001 feca 	bl	9364 <__sfp_lock_acquire>
    75d0:	89a3      	ldrh	r3, [r4, #12]
    75d2:	f413 5f00 	tst.w	r3, #8192	; 0x2000
    75d6:	d106      	bne.n	75e6 <__svfscanf_r+0x2a>
    75d8:	f443 5300 	orr.w	r3, r3, #8192	; 0x2000
    75dc:	81a3      	strh	r3, [r4, #12]
    75de:	6e63      	ldr	r3, [r4, #100]	; 0x64
    75e0:	f423 5300 	bic.w	r3, r3, #8192	; 0x2000
    75e4:	6663      	str	r3, [r4, #100]	; 0x64
    75e6:	2000      	movs	r0, #0
    75e8:	9507      	str	r5, [sp, #28]
    75ea:	4683      	mov	fp, r0
    75ec:	4607      	mov	r7, r0
    75ee:	9009      	str	r0, [sp, #36]	; 0x24
    75f0:	9008      	str	r0, [sp, #32]
    75f2:	9907      	ldr	r1, [sp, #28]
    75f4:	780a      	ldrb	r2, [r1, #0]
    75f6:	92ab      	str	r2, [sp, #684]	; 0x2ac
    75f8:	2a00      	cmp	r2, #0
    75fa:	f000 85be 	beq.w	817a <__cs3_region_size_ram+0x17a>
    75fe:	4b92      	ldr	r3, [pc, #584]	; (7848 <__svfscanf_r+0x28c>)
    7600:	3101      	adds	r1, #1
    7602:	9107      	str	r1, [sp, #28]
    7604:	6819      	ldr	r1, [r3, #0]
    7606:	1888      	adds	r0, r1, r2
    7608:	f890 8001 	ldrb.w	r8, [r0, #1]
    760c:	f018 0808 	ands.w	r8, r8, #8
    7610:	d018      	beq.n	7644 <__svfscanf_r+0x88>
    7612:	6863      	ldr	r3, [r4, #4]
    7614:	2b00      	cmp	r3, #0
    7616:	dc05      	bgt.n	7624 <__svfscanf_r+0x68>
    7618:	4650      	mov	r0, sl
    761a:	4621      	mov	r1, r4
    761c:	f003 f80c 	bl	a638 <__srefill_r>
    7620:	2800      	cmp	r0, #0
    7622:	d1e6      	bne.n	75f2 <__svfscanf_r+0x36>
    7624:	6823      	ldr	r3, [r4, #0]
    7626:	4d88      	ldr	r5, [pc, #544]	; (7848 <__svfscanf_r+0x28c>)
    7628:	781a      	ldrb	r2, [r3, #0]
    762a:	6829      	ldr	r1, [r5, #0]
    762c:	188a      	adds	r2, r1, r2
    762e:	7852      	ldrb	r2, [r2, #1]
    7630:	f012 0f08 	tst.w	r2, #8
    7634:	d0dd      	beq.n	75f2 <__svfscanf_r+0x36>
    7636:	6862      	ldr	r2, [r4, #4]
    7638:	3301      	adds	r3, #1
    763a:	3701      	adds	r7, #1
    763c:	6023      	str	r3, [r4, #0]
    763e:	3a01      	subs	r2, #1
    7640:	6062      	str	r2, [r4, #4]
    7642:	e7e6      	b.n	7612 <__svfscanf_r+0x56>
    7644:	2a25      	cmp	r2, #37	; 0x25
    7646:	d151      	bne.n	76ec <__svfscanf_r+0x130>
    7648:	9a07      	ldr	r2, [sp, #28]
    764a:	4645      	mov	r5, r8
    764c:	f812 3b01 	ldrb.w	r3, [r2], #1
    7650:	2b64      	cmp	r3, #100	; 0x64
    7652:	d07a      	beq.n	774a <__svfscanf_r+0x18e>
    7654:	d829      	bhi.n	76aa <__svfscanf_r+0xee>
    7656:	2b47      	cmp	r3, #71	; 0x47
    7658:	f000 808c 	beq.w	7774 <__svfscanf_r+0x1b8>
    765c:	d814      	bhi.n	7688 <__svfscanf_r+0xcc>
    765e:	2b39      	cmp	r3, #57	; 0x39
    7660:	d80a      	bhi.n	7678 <__svfscanf_r+0xbc>
    7662:	2b30      	cmp	r3, #48	; 0x30
    7664:	d26c      	bcs.n	7740 <__svfscanf_r+0x184>
    7666:	2b25      	cmp	r3, #37	; 0x25
    7668:	d03f      	beq.n	76ea <__svfscanf_r+0x12e>
    766a:	2b2a      	cmp	r3, #42	; 0x2a
    766c:	d057      	beq.n	771e <__svfscanf_r+0x162>
    766e:	9207      	str	r2, [sp, #28]
    7670:	2b00      	cmp	r3, #0
    7672:	f000 80b9 	beq.w	77e8 <__svfscanf_r+0x22c>
    7676:	e0bf      	b.n	77f8 <__svfscanf_r+0x23c>
    7678:	2b44      	cmp	r3, #68	; 0x44
    767a:	9207      	str	r2, [sp, #28]
    767c:	f000 80c2 	beq.w	7804 <__svfscanf_r+0x248>
    7680:	2b45      	cmp	r3, #69	; 0x45
    7682:	f040 80b9 	bne.w	77f8 <__svfscanf_r+0x23c>
    7686:	e076      	b.n	7776 <__svfscanf_r+0x1ba>
    7688:	2b58      	cmp	r3, #88	; 0x58
    768a:	d06d      	beq.n	7768 <__svfscanf_r+0x1ac>
    768c:	d806      	bhi.n	769c <__svfscanf_r+0xe0>
    768e:	2b4c      	cmp	r3, #76	; 0x4c
    7690:	d050      	beq.n	7734 <__svfscanf_r+0x178>
    7692:	2b4f      	cmp	r3, #79	; 0x4f
    7694:	9207      	str	r2, [sp, #28]
    7696:	f040 80af 	bne.w	77f8 <__svfscanf_r+0x23c>
    769a:	e05e      	b.n	775a <__svfscanf_r+0x19e>
    769c:	2b5b      	cmp	r3, #91	; 0x5b
    769e:	9207      	str	r2, [sp, #28]
    76a0:	d06f      	beq.n	7782 <__svfscanf_r+0x1c6>
    76a2:	2b63      	cmp	r3, #99	; 0x63
    76a4:	f040 80a8 	bne.w	77f8 <__svfscanf_r+0x23c>
    76a8:	e075      	b.n	7796 <__svfscanf_r+0x1da>
    76aa:	2b6e      	cmp	r3, #110	; 0x6e
    76ac:	d07f      	beq.n	77ae <__svfscanf_r+0x1f2>
    76ae:	d808      	bhi.n	76c2 <__svfscanf_r+0x106>
    76b0:	2b68      	cmp	r3, #104	; 0x68
    76b2:	d042      	beq.n	773a <__svfscanf_r+0x17e>
    76b4:	d35e      	bcc.n	7774 <__svfscanf_r+0x1b8>
    76b6:	2b69      	cmp	r3, #105	; 0x69
    76b8:	d049      	beq.n	774e <__svfscanf_r+0x192>
    76ba:	2b6c      	cmp	r3, #108	; 0x6c
    76bc:	f040 809b 	bne.w	77f6 <__svfscanf_r+0x23a>
    76c0:	e030      	b.n	7724 <__svfscanf_r+0x168>
    76c2:	2b73      	cmp	r3, #115	; 0x73
    76c4:	9207      	str	r2, [sp, #28]
    76c6:	d059      	beq.n	777c <__svfscanf_r+0x1c0>
    76c8:	d805      	bhi.n	76d6 <__svfscanf_r+0x11a>
    76ca:	2b6f      	cmp	r3, #111	; 0x6f
    76cc:	d00a      	beq.n	76e4 <__svfscanf_r+0x128>
    76ce:	2b70      	cmp	r3, #112	; 0x70
    76d0:	f040 8092 	bne.w	77f8 <__svfscanf_r+0x23c>
    76d4:	e064      	b.n	77a0 <__svfscanf_r+0x1e4>
    76d6:	2b75      	cmp	r3, #117	; 0x75
    76d8:	f000 8099 	beq.w	780e <__svfscanf_r+0x252>
    76dc:	2b78      	cmp	r3, #120	; 0x78
    76de:	f040 808b 	bne.w	77f8 <__svfscanf_r+0x23c>
    76e2:	e042      	b.n	776a <__svfscanf_r+0x1ae>
    76e4:	4859      	ldr	r0, [pc, #356]	; (784c <__svfscanf_r+0x290>)
    76e6:	9009      	str	r0, [sp, #36]	; 0x24
    76e8:	e03b      	b.n	7762 <__svfscanf_r+0x1a6>
    76ea:	9207      	str	r2, [sp, #28]
    76ec:	6863      	ldr	r3, [r4, #4]
    76ee:	2b00      	cmp	r3, #0
    76f0:	dc06      	bgt.n	7700 <__svfscanf_r+0x144>
    76f2:	4650      	mov	r0, sl
    76f4:	4621      	mov	r1, r4
    76f6:	f002 ff9f 	bl	a638 <__srefill_r>
    76fa:	2800      	cmp	r0, #0
    76fc:	f040 852f 	bne.w	815e <__cs3_region_size_ram+0x15e>
    7700:	6823      	ldr	r3, [r4, #0]
    7702:	9d07      	ldr	r5, [sp, #28]
    7704:	7819      	ldrb	r1, [r3, #0]
    7706:	f815 2c01 	ldrb.w	r2, [r5, #-1]
    770a:	4291      	cmp	r1, r2
    770c:	f040 8535 	bne.w	817a <__cs3_region_size_ram+0x17a>
    7710:	6862      	ldr	r2, [r4, #4]
    7712:	3301      	adds	r3, #1
    7714:	3701      	adds	r7, #1
    7716:	6023      	str	r3, [r4, #0]
    7718:	3a01      	subs	r2, #1
    771a:	6062      	str	r2, [r4, #4]
    771c:	e769      	b.n	75f2 <__svfscanf_r+0x36>
    771e:	f048 0810 	orr.w	r8, r8, #16
    7722:	e793      	b.n	764c <__svfscanf_r+0x90>
    7724:	7813      	ldrb	r3, [r2, #0]
    7726:	2b6c      	cmp	r3, #108	; 0x6c
    7728:	d101      	bne.n	772e <__svfscanf_r+0x172>
    772a:	3201      	adds	r2, #1
    772c:	e002      	b.n	7734 <__svfscanf_r+0x178>
    772e:	f048 0801 	orr.w	r8, r8, #1
    7732:	e78b      	b.n	764c <__svfscanf_r+0x90>
    7734:	f048 0802 	orr.w	r8, r8, #2
    7738:	e788      	b.n	764c <__svfscanf_r+0x90>
    773a:	f048 0804 	orr.w	r8, r8, #4
    773e:	e785      	b.n	764c <__svfscanf_r+0x90>
    7740:	200a      	movs	r0, #10
    7742:	4345      	muls	r5, r0
    7744:	3d30      	subs	r5, #48	; 0x30
    7746:	18ed      	adds	r5, r5, r3
    7748:	e780      	b.n	764c <__svfscanf_r+0x90>
    774a:	9207      	str	r2, [sp, #28]
    774c:	e05c      	b.n	7808 <__svfscanf_r+0x24c>
    774e:	4940      	ldr	r1, [pc, #256]	; (7850 <__svfscanf_r+0x294>)
    7750:	f04f 0b00 	mov.w	fp, #0
    7754:	9207      	str	r2, [sp, #28]
    7756:	9109      	str	r1, [sp, #36]	; 0x24
    7758:	e05d      	b.n	7816 <__svfscanf_r+0x25a>
    775a:	4a3c      	ldr	r2, [pc, #240]	; (784c <__svfscanf_r+0x290>)
    775c:	f048 0801 	orr.w	r8, r8, #1
    7760:	9209      	str	r2, [sp, #36]	; 0x24
    7762:	f04f 0b08 	mov.w	fp, #8
    7766:	e056      	b.n	7816 <__svfscanf_r+0x25a>
    7768:	9207      	str	r2, [sp, #28]
    776a:	4b38      	ldr	r3, [pc, #224]	; (784c <__svfscanf_r+0x290>)
    776c:	f448 7800 	orr.w	r8, r8, #512	; 0x200
    7770:	9309      	str	r3, [sp, #36]	; 0x24
    7772:	e019      	b.n	77a8 <__svfscanf_r+0x1ec>
    7774:	9207      	str	r2, [sp, #28]
    7776:	f04f 0904 	mov.w	r9, #4
    777a:	e04e      	b.n	781a <__svfscanf_r+0x25e>
    777c:	f04f 0902 	mov.w	r9, #2
    7780:	e04b      	b.n	781a <__svfscanf_r+0x25e>
    7782:	a867      	add	r0, sp, #412	; 0x19c
    7784:	9907      	ldr	r1, [sp, #28]
    7786:	f003 f827 	bl	a7d8 <__sccl>
    778a:	f048 0840 	orr.w	r8, r8, #64	; 0x40
    778e:	f04f 0901 	mov.w	r9, #1
    7792:	9007      	str	r0, [sp, #28]
    7794:	e041      	b.n	781a <__svfscanf_r+0x25e>
    7796:	f048 0840 	orr.w	r8, r8, #64	; 0x40
    779a:	f04f 0900 	mov.w	r9, #0
    779e:	e03c      	b.n	781a <__svfscanf_r+0x25e>
    77a0:	482a      	ldr	r0, [pc, #168]	; (784c <__svfscanf_r+0x290>)
    77a2:	f448 7808 	orr.w	r8, r8, #544	; 0x220
    77a6:	9009      	str	r0, [sp, #36]	; 0x24
    77a8:	f04f 0b10 	mov.w	fp, #16
    77ac:	e033      	b.n	7816 <__svfscanf_r+0x25a>
    77ae:	f018 0f10 	tst.w	r8, #16
    77b2:	9207      	str	r2, [sp, #28]
    77b4:	f47f af1d 	bne.w	75f2 <__svfscanf_r+0x36>
    77b8:	f018 0f04 	tst.w	r8, #4
    77bc:	f106 0104 	add.w	r1, r6, #4
    77c0:	d002      	beq.n	77c8 <__svfscanf_r+0x20c>
    77c2:	6833      	ldr	r3, [r6, #0]
    77c4:	801f      	strh	r7, [r3, #0]
    77c6:	e004      	b.n	77d2 <__svfscanf_r+0x216>
    77c8:	f018 0f01 	tst.w	r8, #1
    77cc:	d003      	beq.n	77d6 <__svfscanf_r+0x21a>
    77ce:	6833      	ldr	r3, [r6, #0]
    77d0:	601f      	str	r7, [r3, #0]
    77d2:	460e      	mov	r6, r1
    77d4:	e70d      	b.n	75f2 <__svfscanf_r+0x36>
    77d6:	f018 0f02 	tst.w	r8, #2
    77da:	d0f8      	beq.n	77ce <__svfscanf_r+0x212>
    77dc:	6830      	ldr	r0, [r6, #0]
    77de:	463a      	mov	r2, r7
    77e0:	17fb      	asrs	r3, r7, #31
    77e2:	e9c0 2300 	strd	r2, r3, [r0]
    77e6:	e7f4      	b.n	77d2 <__svfscanf_r+0x216>
    77e8:	f001 fdbd 	bl	9366 <__sfp_lock_release>
    77ec:	f04f 33ff 	mov.w	r3, #4294967295
    77f0:	9308      	str	r3, [sp, #32]
    77f2:	f000 bcc8 	b.w	8186 <__cs3_region_size_ram+0x186>
    77f6:	9207      	str	r2, [sp, #28]
    77f8:	18cb      	adds	r3, r1, r3
    77fa:	785b      	ldrb	r3, [r3, #1]
    77fc:	f003 0303 	and.w	r3, r3, #3
    7800:	2b01      	cmp	r3, #1
    7802:	d101      	bne.n	7808 <__svfscanf_r+0x24c>
    7804:	f048 0801 	orr.w	r8, r8, #1
    7808:	4811      	ldr	r0, [pc, #68]	; (7850 <__svfscanf_r+0x294>)
    780a:	9009      	str	r0, [sp, #36]	; 0x24
    780c:	e001      	b.n	7812 <__svfscanf_r+0x256>
    780e:	490f      	ldr	r1, [pc, #60]	; (784c <__svfscanf_r+0x290>)
    7810:	9109      	str	r1, [sp, #36]	; 0x24
    7812:	f04f 0b0a 	mov.w	fp, #10
    7816:	f04f 0903 	mov.w	r9, #3
    781a:	6863      	ldr	r3, [r4, #4]
    781c:	2b00      	cmp	r3, #0
    781e:	dc06      	bgt.n	782e <__svfscanf_r+0x272>
    7820:	4650      	mov	r0, sl
    7822:	4621      	mov	r1, r4
    7824:	f002 ff08 	bl	a638 <__srefill_r>
    7828:	2800      	cmp	r0, #0
    782a:	f040 8498 	bne.w	815e <__cs3_region_size_ram+0x15e>
    782e:	f018 0f40 	tst.w	r8, #64	; 0x40
    7832:	d120      	bne.n	7876 <__svfscanf_r+0x2ba>
    7834:	e016      	b.n	7864 <__svfscanf_r+0x2a8>
    7836:	6862      	ldr	r2, [r4, #4]
    7838:	3a01      	subs	r2, #1
    783a:	6062      	str	r2, [r4, #4]
    783c:	2a00      	cmp	r2, #0
    783e:	dd09      	ble.n	7854 <__svfscanf_r+0x298>
    7840:	3301      	adds	r3, #1
    7842:	6023      	str	r3, [r4, #0]
    7844:	e00d      	b.n	7862 <__svfscanf_r+0x2a6>
    7846:	bf00      	nop
    7848:	10000000 	.word	0x10000000
    784c:	0000b8f1 	.word	0x0000b8f1
    7850:	0000b645 	.word	0x0000b645
    7854:	4650      	mov	r0, sl
    7856:	4621      	mov	r1, r4
    7858:	f002 feee 	bl	a638 <__srefill_r>
    785c:	2800      	cmp	r0, #0
    785e:	f040 847e 	bne.w	815e <__cs3_region_size_ram+0x15e>
    7862:	3701      	adds	r7, #1
    7864:	6823      	ldr	r3, [r4, #0]
    7866:	489a      	ldr	r0, [pc, #616]	; (7ad0 <__svfscanf_r+0x514>)
    7868:	781a      	ldrb	r2, [r3, #0]
    786a:	6801      	ldr	r1, [r0, #0]
    786c:	188a      	adds	r2, r1, r2
    786e:	7852      	ldrb	r2, [r2, #1]
    7870:	f012 0f08 	tst.w	r2, #8
    7874:	d1df      	bne.n	7836 <__svfscanf_r+0x27a>
    7876:	f109 39ff 	add.w	r9, r9, #4294967295
    787a:	f1b9 0f03 	cmp.w	r9, #3
    787e:	d805      	bhi.n	788c <__svfscanf_r+0x2d0>
    7880:	e8df f019 	tbh	[pc, r9, lsl #1]
    7884:	00ea0097 	.word	0x00ea0097
    7888:	028c01b9 	.word	0x028c01b9
    788c:	2d00      	cmp	r5, #0
    788e:	bf08      	it	eq
    7890:	2501      	moveq	r5, #1
    7892:	f018 0301 	ands.w	r3, r8, #1
    7896:	f008 0910 	and.w	r9, r8, #16
    789a:	d05a      	beq.n	7952 <__svfscanf_r+0x396>
    789c:	a8a9      	add	r0, sp, #676	; 0x2a4
    789e:	2100      	movs	r1, #0
    78a0:	2208      	movs	r2, #8
    78a2:	f002 fa9a 	bl	9dda <memset>
    78a6:	f1b9 0f00 	cmp.w	r9, #0
    78aa:	d103      	bne.n	78b4 <__svfscanf_r+0x2f8>
    78ac:	6832      	ldr	r2, [r6, #0]
    78ae:	3604      	adds	r6, #4
    78b0:	9205      	str	r2, [sp, #20]
    78b2:	e001      	b.n	78b8 <__svfscanf_r+0x2fc>
    78b4:	2300      	movs	r3, #0
    78b6:	9305      	str	r3, [sp, #20]
    78b8:	464b      	mov	r3, r9
    78ba:	f04f 0800 	mov.w	r8, #0
    78be:	46b1      	mov	r9, r6
    78c0:	461e      	mov	r6, r3
    78c2:	f001 ff65 	bl	9790 <__locale_mb_cur_max>
    78c6:	4580      	cmp	r8, r0
    78c8:	f000 8449 	beq.w	815e <__cs3_region_size_ram+0x15e>
    78cc:	6823      	ldr	r3, [r4, #0]
    78ce:	aa0f      	add	r2, sp, #60	; 0x3c
    78d0:	4650      	mov	r0, sl
    78d2:	f813 1b01 	ldrb.w	r1, [r3], #1
    78d6:	f802 1008 	strb.w	r1, [r2, r8]
    78da:	f108 0801 	add.w	r8, r8, #1
    78de:	6861      	ldr	r1, [r4, #4]
    78e0:	6023      	str	r3, [r4, #0]
    78e2:	aba9      	add	r3, sp, #676	; 0x2a4
    78e4:	3901      	subs	r1, #1
    78e6:	9300      	str	r3, [sp, #0]
    78e8:	6061      	str	r1, [r4, #4]
    78ea:	4643      	mov	r3, r8
    78ec:	9905      	ldr	r1, [sp, #20]
    78ee:	f002 f9f9 	bl	9ce4 <_mbrtowc_r>
    78f2:	f1b0 3fff 	cmp.w	r0, #4294967295
    78f6:	f000 8432 	beq.w	815e <__cs3_region_size_ram+0x15e>
    78fa:	b918      	cbnz	r0, 7904 <__svfscanf_r+0x348>
    78fc:	b92e      	cbnz	r6, 790a <__svfscanf_r+0x34e>
    78fe:	9805      	ldr	r0, [sp, #20]
    7900:	6006      	str	r6, [r0, #0]
    7902:	e002      	b.n	790a <__svfscanf_r+0x34e>
    7904:	f110 0f02 	cmn.w	r0, #2
    7908:	d009      	beq.n	791e <__svfscanf_r+0x362>
    790a:	4447      	add	r7, r8
    790c:	3d01      	subs	r5, #1
    790e:	b926      	cbnz	r6, 791a <__svfscanf_r+0x35e>
    7910:	9905      	ldr	r1, [sp, #20]
    7912:	46b0      	mov	r8, r6
    7914:	3104      	adds	r1, #4
    7916:	9105      	str	r1, [sp, #20]
    7918:	e001      	b.n	791e <__svfscanf_r+0x362>
    791a:	f04f 0800 	mov.w	r8, #0
    791e:	6863      	ldr	r3, [r4, #4]
    7920:	2b00      	cmp	r3, #0
    7922:	dc0c      	bgt.n	793e <__svfscanf_r+0x382>
    7924:	4650      	mov	r0, sl
    7926:	4621      	mov	r1, r4
    7928:	f002 fe86 	bl	a638 <__srefill_r>
    792c:	b138      	cbz	r0, 793e <__svfscanf_r+0x382>
    792e:	4633      	mov	r3, r6
    7930:	464e      	mov	r6, r9
    7932:	4699      	mov	r9, r3
    7934:	f1b8 0f00 	cmp.w	r8, #0
    7938:	d006      	beq.n	7948 <__svfscanf_r+0x38c>
    793a:	f000 bc10 	b.w	815e <__cs3_region_size_ram+0x15e>
    793e:	2d00      	cmp	r5, #0
    7940:	d1bf      	bne.n	78c2 <__svfscanf_r+0x306>
    7942:	4633      	mov	r3, r6
    7944:	464e      	mov	r6, r9
    7946:	4699      	mov	r9, r3
    7948:	f1b9 0f00 	cmp.w	r9, #0
    794c:	f47f ae51 	bne.w	75f2 <__svfscanf_r+0x36>
    7950:	e104      	b.n	7b5c <__svfscanf_r+0x5a0>
    7952:	f1b9 0f00 	cmp.w	r9, #0
    7956:	d01c      	beq.n	7992 <__svfscanf_r+0x3d6>
    7958:	4698      	mov	r8, r3
    795a:	f8d4 9004 	ldr.w	r9, [r4, #4]
    795e:	6823      	ldr	r3, [r4, #0]
    7960:	45a9      	cmp	r9, r5
    7962:	da0f      	bge.n	7984 <__svfscanf_r+0x3c8>
    7964:	444b      	add	r3, r9
    7966:	4650      	mov	r0, sl
    7968:	6023      	str	r3, [r4, #0]
    796a:	4621      	mov	r1, r4
    796c:	44c8      	add	r8, r9
    796e:	f002 fe63 	bl	a638 <__srefill_r>
    7972:	b910      	cbnz	r0, 797a <__svfscanf_r+0x3be>
    7974:	ebc9 0505 	rsb	r5, r9, r5
    7978:	e7ef      	b.n	795a <__svfscanf_r+0x39e>
    797a:	f1b8 0f00 	cmp.w	r8, #0
    797e:	f040 810e 	bne.w	7b9e <__svfscanf_r+0x5e2>
    7982:	e3ec      	b.n	815e <__cs3_region_size_ram+0x15e>
    7984:	ebc5 0209 	rsb	r2, r5, r9
    7988:	44a8      	add	r8, r5
    798a:	6062      	str	r2, [r4, #4]
    798c:	195d      	adds	r5, r3, r5
    798e:	6025      	str	r5, [r4, #0]
    7990:	e105      	b.n	7b9e <__svfscanf_r+0x5e2>
    7992:	9400      	str	r4, [sp, #0]
    7994:	4650      	mov	r0, sl
    7996:	6831      	ldr	r1, [r6, #0]
    7998:	2201      	movs	r2, #1
    799a:	462b      	mov	r3, r5
    799c:	f001 fcfa 	bl	9394 <_fread_r>
    79a0:	2800      	cmp	r0, #0
    79a2:	f000 83dc 	beq.w	815e <__cs3_region_size_ram+0x15e>
    79a6:	9b08      	ldr	r3, [sp, #32]
    79a8:	3604      	adds	r6, #4
    79aa:	19c7      	adds	r7, r0, r7
    79ac:	3301      	adds	r3, #1
    79ae:	9308      	str	r3, [sp, #32]
    79b0:	e61f      	b.n	75f2 <__svfscanf_r+0x36>
    79b2:	2d00      	cmp	r5, #0
    79b4:	bf08      	it	eq
    79b6:	f04f 35ff 	moveq.w	r5, #4294967295
    79ba:	f018 0f10 	tst.w	r8, #16
    79be:	d020      	beq.n	7a02 <__svfscanf_r+0x446>
    79c0:	f04f 0800 	mov.w	r8, #0
    79c4:	e012      	b.n	79ec <__svfscanf_r+0x430>
    79c6:	6862      	ldr	r2, [r4, #4]
    79c8:	f108 0801 	add.w	r8, r8, #1
    79cc:	3301      	adds	r3, #1
    79ce:	6023      	str	r3, [r4, #0]
    79d0:	3a01      	subs	r2, #1
    79d2:	45a8      	cmp	r8, r5
    79d4:	6062      	str	r2, [r4, #4]
    79d6:	f000 80e2 	beq.w	7b9e <__svfscanf_r+0x5e2>
    79da:	2a00      	cmp	r2, #0
    79dc:	dc06      	bgt.n	79ec <__svfscanf_r+0x430>
    79de:	4650      	mov	r0, sl
    79e0:	4621      	mov	r1, r4
    79e2:	f002 fe29 	bl	a638 <__srefill_r>
    79e6:	2800      	cmp	r0, #0
    79e8:	f040 80d9 	bne.w	7b9e <__svfscanf_r+0x5e2>
    79ec:	6823      	ldr	r3, [r4, #0]
    79ee:	a967      	add	r1, sp, #412	; 0x19c
    79f0:	781a      	ldrb	r2, [r3, #0]
    79f2:	5c8a      	ldrb	r2, [r1, r2]
    79f4:	2a00      	cmp	r2, #0
    79f6:	d1e6      	bne.n	79c6 <__svfscanf_r+0x40a>
    79f8:	f1b8 0f00 	cmp.w	r8, #0
    79fc:	f040 80cf 	bne.w	7b9e <__svfscanf_r+0x5e2>
    7a00:	e3bb      	b.n	817a <__cs3_region_size_ram+0x17a>
    7a02:	f8d6 8000 	ldr.w	r8, [r6]
    7a06:	46c1      	mov	r9, r8
    7a08:	e014      	b.n	7a34 <__svfscanf_r+0x478>
    7a0a:	6862      	ldr	r2, [r4, #4]
    7a0c:	3a01      	subs	r2, #1
    7a0e:	6062      	str	r2, [r4, #4]
    7a10:	f813 2b01 	ldrb.w	r2, [r3], #1
    7a14:	3d01      	subs	r5, #1
    7a16:	f809 2b01 	strb.w	r2, [r9], #1
    7a1a:	6023      	str	r3, [r4, #0]
    7a1c:	d010      	beq.n	7a40 <__svfscanf_r+0x484>
    7a1e:	6863      	ldr	r3, [r4, #4]
    7a20:	2b00      	cmp	r3, #0
    7a22:	dc07      	bgt.n	7a34 <__svfscanf_r+0x478>
    7a24:	4650      	mov	r0, sl
    7a26:	4621      	mov	r1, r4
    7a28:	f002 fe06 	bl	a638 <__srefill_r>
    7a2c:	b110      	cbz	r0, 7a34 <__svfscanf_r+0x478>
    7a2e:	45c1      	cmp	r9, r8
    7a30:	d106      	bne.n	7a40 <__svfscanf_r+0x484>
    7a32:	e394      	b.n	815e <__cs3_region_size_ram+0x15e>
    7a34:	6823      	ldr	r3, [r4, #0]
    7a36:	a967      	add	r1, sp, #412	; 0x19c
    7a38:	781a      	ldrb	r2, [r3, #0]
    7a3a:	5c8a      	ldrb	r2, [r1, r2]
    7a3c:	2a00      	cmp	r2, #0
    7a3e:	d1e4      	bne.n	7a0a <__svfscanf_r+0x44e>
    7a40:	ebb9 0808 	subs.w	r8, r9, r8
    7a44:	f000 8399 	beq.w	817a <__cs3_region_size_ram+0x17a>
    7a48:	2300      	movs	r3, #0
    7a4a:	f889 3000 	strb.w	r3, [r9]
    7a4e:	9d08      	ldr	r5, [sp, #32]
    7a50:	3604      	adds	r6, #4
    7a52:	3501      	adds	r5, #1
    7a54:	9508      	str	r5, [sp, #32]
    7a56:	e0a2      	b.n	7b9e <__svfscanf_r+0x5e2>
    7a58:	2d00      	cmp	r5, #0
    7a5a:	bf08      	it	eq
    7a5c:	f04f 35ff 	moveq.w	r5, #4294967295
    7a60:	f018 0301 	ands.w	r3, r8, #1
    7a64:	f008 0010 	and.w	r0, r8, #16
    7a68:	9005      	str	r0, [sp, #20]
    7a6a:	d07b      	beq.n	7b64 <__svfscanf_r+0x5a8>
    7a6c:	2100      	movs	r1, #0
    7a6e:	a8a7      	add	r0, sp, #668	; 0x29c
    7a70:	2208      	movs	r2, #8
    7a72:	f002 f9b2 	bl	9dda <memset>
    7a76:	9905      	ldr	r1, [sp, #20]
    7a78:	b919      	cbnz	r1, 7a82 <__svfscanf_r+0x4c6>
    7a7a:	f8d6 9000 	ldr.w	r9, [r6]
    7a7e:	3604      	adds	r6, #4
    7a80:	e001      	b.n	7a86 <__svfscanf_r+0x4ca>
    7a82:	f50d 792b 	add.w	r9, sp, #684	; 0x2ac
    7a86:	4633      	mov	r3, r6
    7a88:	f04f 0800 	mov.w	r8, #0
    7a8c:	464e      	mov	r6, r9
    7a8e:	4699      	mov	r9, r3
    7a90:	e050      	b.n	7b34 <__svfscanf_r+0x578>
    7a92:	f001 fe7d 	bl	9790 <__locale_mb_cur_max>
    7a96:	4580      	cmp	r8, r0
    7a98:	f000 8361 	beq.w	815e <__cs3_region_size_ram+0x15e>
    7a9c:	6823      	ldr	r3, [r4, #0]
    7a9e:	aa0f      	add	r2, sp, #60	; 0x3c
    7aa0:	4650      	mov	r0, sl
    7aa2:	f813 1b01 	ldrb.w	r1, [r3], #1
    7aa6:	f802 1008 	strb.w	r1, [r2, r8]
    7aaa:	f108 0801 	add.w	r8, r8, #1
    7aae:	6861      	ldr	r1, [r4, #4]
    7ab0:	6023      	str	r3, [r4, #0]
    7ab2:	aba7      	add	r3, sp, #668	; 0x29c
    7ab4:	3901      	subs	r1, #1
    7ab6:	9300      	str	r3, [sp, #0]
    7ab8:	6061      	str	r1, [r4, #4]
    7aba:	4643      	mov	r3, r8
    7abc:	4631      	mov	r1, r6
    7abe:	f002 f911 	bl	9ce4 <_mbrtowc_r>
    7ac2:	f1b0 3fff 	cmp.w	r0, #4294967295
    7ac6:	f000 834a 	beq.w	815e <__cs3_region_size_ram+0x15e>
    7aca:	b918      	cbnz	r0, 7ad4 <__svfscanf_r+0x518>
    7acc:	6030      	str	r0, [r6, #0]
    7ace:	e004      	b.n	7ada <__svfscanf_r+0x51e>
    7ad0:	10000000 	.word	0x10000000
    7ad4:	f110 0f02 	cmn.w	r0, #2
    7ad8:	d01c      	beq.n	7b14 <__svfscanf_r+0x558>
    7ada:	6830      	ldr	r0, [r6, #0]
    7adc:	f001 fe24 	bl	9728 <iswspace>
    7ae0:	b180      	cbz	r0, 7b04 <__svfscanf_r+0x548>
    7ae2:	464b      	mov	r3, r9
    7ae4:	46b1      	mov	r9, r6
    7ae6:	461e      	mov	r6, r3
    7ae8:	e008      	b.n	7afc <__svfscanf_r+0x540>
    7aea:	f108 38ff 	add.w	r8, r8, #4294967295
    7aee:	ab0f      	add	r3, sp, #60	; 0x3c
    7af0:	4650      	mov	r0, sl
    7af2:	4622      	mov	r2, r4
    7af4:	f813 1008 	ldrb.w	r1, [r3, r8]
    7af8:	f005 f8ee 	bl	ccd8 <_ungetc_r>
    7afc:	f1b8 0f00 	cmp.w	r8, #0
    7b00:	d1f3      	bne.n	7aea <__svfscanf_r+0x52e>
    7b02:	e025      	b.n	7b50 <__svfscanf_r+0x594>
    7b04:	9a05      	ldr	r2, [sp, #20]
    7b06:	4447      	add	r7, r8
    7b08:	3d01      	subs	r5, #1
    7b0a:	b912      	cbnz	r2, 7b12 <__svfscanf_r+0x556>
    7b0c:	3604      	adds	r6, #4
    7b0e:	4690      	mov	r8, r2
    7b10:	e000      	b.n	7b14 <__svfscanf_r+0x558>
    7b12:	4680      	mov	r8, r0
    7b14:	6863      	ldr	r3, [r4, #4]
    7b16:	2b00      	cmp	r3, #0
    7b18:	dc0c      	bgt.n	7b34 <__svfscanf_r+0x578>
    7b1a:	4650      	mov	r0, sl
    7b1c:	4621      	mov	r1, r4
    7b1e:	f002 fd8b 	bl	a638 <__srefill_r>
    7b22:	b138      	cbz	r0, 7b34 <__svfscanf_r+0x578>
    7b24:	464b      	mov	r3, r9
    7b26:	46b1      	mov	r9, r6
    7b28:	461e      	mov	r6, r3
    7b2a:	f1b8 0f00 	cmp.w	r8, #0
    7b2e:	f040 8316 	bne.w	815e <__cs3_region_size_ram+0x15e>
    7b32:	e00d      	b.n	7b50 <__svfscanf_r+0x594>
    7b34:	6823      	ldr	r3, [r4, #0]
    7b36:	4896      	ldr	r0, [pc, #600]	; (7d90 <__svfscanf_r+0x7d4>)
    7b38:	781b      	ldrb	r3, [r3, #0]
    7b3a:	6802      	ldr	r2, [r0, #0]
    7b3c:	18d3      	adds	r3, r2, r3
    7b3e:	785b      	ldrb	r3, [r3, #1]
    7b40:	f013 0f08 	tst.w	r3, #8
    7b44:	d101      	bne.n	7b4a <__svfscanf_r+0x58e>
    7b46:	2d00      	cmp	r5, #0
    7b48:	d1a3      	bne.n	7a92 <__svfscanf_r+0x4d6>
    7b4a:	464b      	mov	r3, r9
    7b4c:	46b1      	mov	r9, r6
    7b4e:	461e      	mov	r6, r3
    7b50:	9905      	ldr	r1, [sp, #20]
    7b52:	2900      	cmp	r1, #0
    7b54:	f47f ad4d 	bne.w	75f2 <__svfscanf_r+0x36>
    7b58:	f8c9 1000 	str.w	r1, [r9]
    7b5c:	9a08      	ldr	r2, [sp, #32]
    7b5e:	3201      	adds	r2, #1
    7b60:	9208      	str	r2, [sp, #32]
    7b62:	e546      	b.n	75f2 <__svfscanf_r+0x36>
    7b64:	9805      	ldr	r0, [sp, #20]
    7b66:	b1e0      	cbz	r0, 7ba2 <__svfscanf_r+0x5e6>
    7b68:	4698      	mov	r8, r3
    7b6a:	e00f      	b.n	7b8c <__svfscanf_r+0x5d0>
    7b6c:	6862      	ldr	r2, [r4, #4]
    7b6e:	f108 0801 	add.w	r8, r8, #1
    7b72:	3301      	adds	r3, #1
    7b74:	6023      	str	r3, [r4, #0]
    7b76:	3a01      	subs	r2, #1
    7b78:	45a8      	cmp	r8, r5
    7b7a:	6062      	str	r2, [r4, #4]
    7b7c:	d00f      	beq.n	7b9e <__svfscanf_r+0x5e2>
    7b7e:	2a00      	cmp	r2, #0
    7b80:	dc04      	bgt.n	7b8c <__svfscanf_r+0x5d0>
    7b82:	4650      	mov	r0, sl
    7b84:	4621      	mov	r1, r4
    7b86:	f002 fd57 	bl	a638 <__srefill_r>
    7b8a:	b940      	cbnz	r0, 7b9e <__svfscanf_r+0x5e2>
    7b8c:	6823      	ldr	r3, [r4, #0]
    7b8e:	4880      	ldr	r0, [pc, #512]	; (7d90 <__svfscanf_r+0x7d4>)
    7b90:	781a      	ldrb	r2, [r3, #0]
    7b92:	6801      	ldr	r1, [r0, #0]
    7b94:	188a      	adds	r2, r1, r2
    7b96:	7852      	ldrb	r2, [r2, #1]
    7b98:	f012 0f08 	tst.w	r2, #8
    7b9c:	d0e6      	beq.n	7b6c <__svfscanf_r+0x5b0>
    7b9e:	4447      	add	r7, r8
    7ba0:	e527      	b.n	75f2 <__svfscanf_r+0x36>
    7ba2:	f8d6 8000 	ldr.w	r8, [r6]
    7ba6:	f106 0904 	add.w	r9, r6, #4
    7baa:	4646      	mov	r6, r8
    7bac:	e011      	b.n	7bd2 <__svfscanf_r+0x616>
    7bae:	6862      	ldr	r2, [r4, #4]
    7bb0:	3a01      	subs	r2, #1
    7bb2:	6062      	str	r2, [r4, #4]
    7bb4:	f813 2b01 	ldrb.w	r2, [r3], #1
    7bb8:	3d01      	subs	r5, #1
    7bba:	f806 2b01 	strb.w	r2, [r6], #1
    7bbe:	6023      	str	r3, [r4, #0]
    7bc0:	d010      	beq.n	7be4 <__svfscanf_r+0x628>
    7bc2:	6863      	ldr	r3, [r4, #4]
    7bc4:	2b00      	cmp	r3, #0
    7bc6:	dc04      	bgt.n	7bd2 <__svfscanf_r+0x616>
    7bc8:	4650      	mov	r0, sl
    7bca:	4621      	mov	r1, r4
    7bcc:	f002 fd34 	bl	a638 <__srefill_r>
    7bd0:	b940      	cbnz	r0, 7be4 <__svfscanf_r+0x628>
    7bd2:	6823      	ldr	r3, [r4, #0]
    7bd4:	486e      	ldr	r0, [pc, #440]	; (7d90 <__svfscanf_r+0x7d4>)
    7bd6:	781a      	ldrb	r2, [r3, #0]
    7bd8:	6801      	ldr	r1, [r0, #0]
    7bda:	188a      	adds	r2, r1, r2
    7bdc:	7852      	ldrb	r2, [r2, #1]
    7bde:	f012 0f08 	tst.w	r2, #8
    7be2:	d0e4      	beq.n	7bae <__svfscanf_r+0x5f2>
    7be4:	2300      	movs	r3, #0
    7be6:	7033      	strb	r3, [r6, #0]
    7be8:	9908      	ldr	r1, [sp, #32]
    7bea:	ebc8 0707 	rsb	r7, r8, r7
    7bee:	19f7      	adds	r7, r6, r7
    7bf0:	3101      	adds	r1, #1
    7bf2:	9108      	str	r1, [sp, #32]
    7bf4:	e2b0      	b.n	8158 <__cs3_region_size_ram+0x158>
    7bf6:	1e6b      	subs	r3, r5, #1
    7bf8:	f5b3 7fae 	cmp.w	r3, #348	; 0x15c
    7bfc:	d905      	bls.n	7c0a <__svfscanf_r+0x64e>
    7bfe:	f5a5 73ae 	sub.w	r3, r5, #348	; 0x15c
    7c02:	f240 155d 	movw	r5, #349	; 0x15d
    7c06:	3b01      	subs	r3, #1
    7c08:	e000      	b.n	7c0c <__svfscanf_r+0x650>
    7c0a:	2300      	movs	r3, #0
    7c0c:	46bc      	mov	ip, r7
    7c0e:	f448 6858 	orr.w	r8, r8, #3456	; 0xd80
    7c12:	f10d 093c 	add.w	r9, sp, #60	; 0x3c
    7c16:	461f      	mov	r7, r3
    7c18:	2200      	movs	r2, #0
    7c1a:	9205      	str	r2, [sp, #20]
    7c1c:	6822      	ldr	r2, [r4, #0]
    7c1e:	7812      	ldrb	r2, [r2, #0]
    7c20:	2a39      	cmp	r2, #57	; 0x39
    7c22:	d809      	bhi.n	7c38 <__svfscanf_r+0x67c>
    7c24:	2a38      	cmp	r2, #56	; 0x38
    7c26:	d233      	bcs.n	7c90 <__svfscanf_r+0x6d4>
    7c28:	2a30      	cmp	r2, #48	; 0x30
    7c2a:	d014      	beq.n	7c56 <__svfscanf_r+0x69a>
    7c2c:	d82c      	bhi.n	7c88 <__svfscanf_r+0x6cc>
    7c2e:	2a2b      	cmp	r2, #43	; 0x2b
    7c30:	d03a      	beq.n	7ca8 <__svfscanf_r+0x6ec>
    7c32:	2a2d      	cmp	r2, #45	; 0x2d
    7c34:	d15f      	bne.n	7cf6 <__svfscanf_r+0x73a>
    7c36:	e037      	b.n	7ca8 <__svfscanf_r+0x6ec>
    7c38:	2a58      	cmp	r2, #88	; 0x58
    7c3a:	d03b      	beq.n	7cb4 <__svfscanf_r+0x6f8>
    7c3c:	d804      	bhi.n	7c48 <__svfscanf_r+0x68c>
    7c3e:	f1a2 0141 	sub.w	r1, r2, #65	; 0x41
    7c42:	2905      	cmp	r1, #5
    7c44:	d857      	bhi.n	7cf6 <__svfscanf_r+0x73a>
    7c46:	e029      	b.n	7c9c <__svfscanf_r+0x6e0>
    7c48:	2a61      	cmp	r2, #97	; 0x61
    7c4a:	d354      	bcc.n	7cf6 <__svfscanf_r+0x73a>
    7c4c:	2a66      	cmp	r2, #102	; 0x66
    7c4e:	d925      	bls.n	7c9c <__svfscanf_r+0x6e0>
    7c50:	2a78      	cmp	r2, #120	; 0x78
    7c52:	d150      	bne.n	7cf6 <__svfscanf_r+0x73a>
    7c54:	e02e      	b.n	7cb4 <__svfscanf_r+0x6f8>
    7c56:	f418 6f00 	tst.w	r8, #2048	; 0x800
    7c5a:	d036      	beq.n	7cca <__svfscanf_r+0x70e>
    7c5c:	f1bb 0f00 	cmp.w	fp, #0
    7c60:	d103      	bne.n	7c6a <__svfscanf_r+0x6ae>
    7c62:	f448 7800 	orr.w	r8, r8, #512	; 0x200
    7c66:	f10b 0b08 	add.w	fp, fp, #8
    7c6a:	f418 6f80 	tst.w	r8, #1024	; 0x400
    7c6e:	d002      	beq.n	7c76 <__svfscanf_r+0x6ba>
    7c70:	f428 68b0 	bic.w	r8, r8, #1408	; 0x580
    7c74:	e029      	b.n	7cca <__svfscanf_r+0x70e>
    7c76:	f428 7860 	bic.w	r8, r8, #896	; 0x380
    7c7a:	b10f      	cbz	r7, 7c80 <__svfscanf_r+0x6c4>
    7c7c:	3f01      	subs	r7, #1
    7c7e:	3501      	adds	r5, #1
    7c80:	9b05      	ldr	r3, [sp, #20]
    7c82:	3301      	adds	r3, #1
    7c84:	9305      	str	r3, [sp, #20]
    7c86:	e022      	b.n	7cce <__svfscanf_r+0x712>
    7c88:	4942      	ldr	r1, [pc, #264]	; (7d94 <__svfscanf_r+0x7d8>)
    7c8a:	f931 b01b 	ldrsh.w	fp, [r1, fp, lsl #1]
    7c8e:	e008      	b.n	7ca2 <__svfscanf_r+0x6e6>
    7c90:	4940      	ldr	r1, [pc, #256]	; (7d94 <__svfscanf_r+0x7d8>)
    7c92:	f931 b01b 	ldrsh.w	fp, [r1, fp, lsl #1]
    7c96:	f1bb 0f08 	cmp.w	fp, #8
    7c9a:	e001      	b.n	7ca0 <__svfscanf_r+0x6e4>
    7c9c:	f1bb 0f0a 	cmp.w	fp, #10
    7ca0:	dd29      	ble.n	7cf6 <__svfscanf_r+0x73a>
    7ca2:	f428 6838 	bic.w	r8, r8, #2944	; 0xb80
    7ca6:	e010      	b.n	7cca <__svfscanf_r+0x70e>
    7ca8:	f018 0f80 	tst.w	r8, #128	; 0x80
    7cac:	d023      	beq.n	7cf6 <__svfscanf_r+0x73a>
    7cae:	f028 0880 	bic.w	r8, r8, #128	; 0x80
    7cb2:	e00a      	b.n	7cca <__svfscanf_r+0x70e>
    7cb4:	f408 61c0 	and.w	r1, r8, #1536	; 0x600
    7cb8:	f5b1 7f00 	cmp.w	r1, #512	; 0x200
    7cbc:	d11b      	bne.n	7cf6 <__svfscanf_r+0x73a>
    7cbe:	f428 7800 	bic.w	r8, r8, #512	; 0x200
    7cc2:	f04f 0b10 	mov.w	fp, #16
    7cc6:	f448 68a0 	orr.w	r8, r8, #1280	; 0x500
    7cca:	f809 2b01 	strb.w	r2, [r9], #1
    7cce:	6862      	ldr	r2, [r4, #4]
    7cd0:	3a01      	subs	r2, #1
    7cd2:	6062      	str	r2, [r4, #4]
    7cd4:	2a00      	cmp	r2, #0
    7cd6:	dd03      	ble.n	7ce0 <__svfscanf_r+0x724>
    7cd8:	6822      	ldr	r2, [r4, #0]
    7cda:	3201      	adds	r2, #1
    7cdc:	6022      	str	r2, [r4, #0]
    7cde:	e008      	b.n	7cf2 <__svfscanf_r+0x736>
    7ce0:	4650      	mov	r0, sl
    7ce2:	4621      	mov	r1, r4
    7ce4:	f8cd c010 	str.w	ip, [sp, #16]
    7ce8:	f002 fca6 	bl	a638 <__srefill_r>
    7cec:	f8dd c010 	ldr.w	ip, [sp, #16]
    7cf0:	b908      	cbnz	r0, 7cf6 <__svfscanf_r+0x73a>
    7cf2:	3d01      	subs	r5, #1
    7cf4:	d192      	bne.n	7c1c <__svfscanf_r+0x660>
    7cf6:	f418 7f80 	tst.w	r8, #256	; 0x100
    7cfa:	4667      	mov	r7, ip
    7cfc:	d00c      	beq.n	7d18 <__svfscanf_r+0x75c>
    7cfe:	ab0f      	add	r3, sp, #60	; 0x3c
    7d00:	4599      	cmp	r9, r3
    7d02:	d905      	bls.n	7d10 <__svfscanf_r+0x754>
    7d04:	4650      	mov	r0, sl
    7d06:	f819 1d01 	ldrb.w	r1, [r9, #-1]!
    7d0a:	4622      	mov	r2, r4
    7d0c:	f004 ffe4 	bl	ccd8 <_ungetc_r>
    7d10:	ab0f      	add	r3, sp, #60	; 0x3c
    7d12:	4599      	cmp	r9, r3
    7d14:	f000 8231 	beq.w	817a <__cs3_region_size_ram+0x17a>
    7d18:	f018 0210 	ands.w	r2, r8, #16
    7d1c:	d131      	bne.n	7d82 <__svfscanf_r+0x7c6>
    7d1e:	f889 2000 	strb.w	r2, [r9]
    7d22:	465b      	mov	r3, fp
    7d24:	4650      	mov	r0, sl
    7d26:	a90f      	add	r1, sp, #60	; 0x3c
    7d28:	9d09      	ldr	r5, [sp, #36]	; 0x24
    7d2a:	47a8      	blx	r5
    7d2c:	f018 0f20 	tst.w	r8, #32
    7d30:	f106 0304 	add.w	r3, r6, #4
    7d34:	d11f      	bne.n	7d76 <__svfscanf_r+0x7ba>
    7d36:	f018 0f04 	tst.w	r8, #4
    7d3a:	d002      	beq.n	7d42 <__svfscanf_r+0x786>
    7d3c:	6832      	ldr	r2, [r6, #0]
    7d3e:	8010      	strh	r0, [r2, #0]
    7d40:	e01b      	b.n	7d7a <__svfscanf_r+0x7be>
    7d42:	f018 0201 	ands.w	r2, r8, #1
    7d46:	d116      	bne.n	7d76 <__svfscanf_r+0x7ba>
    7d48:	f018 0f02 	tst.w	r8, #2
    7d4c:	d013      	beq.n	7d76 <__svfscanf_r+0x7ba>
    7d4e:	4b12      	ldr	r3, [pc, #72]	; (7d98 <__svfscanf_r+0x7dc>)
    7d50:	9809      	ldr	r0, [sp, #36]	; 0x24
    7d52:	4298      	cmp	r0, r3
    7d54:	d105      	bne.n	7d62 <__svfscanf_r+0x7a6>
    7d56:	4650      	mov	r0, sl
    7d58:	a90f      	add	r1, sp, #60	; 0x3c
    7d5a:	465b      	mov	r3, fp
    7d5c:	f003 fe54 	bl	ba08 <_strtoull_r>
    7d60:	e004      	b.n	7d6c <__svfscanf_r+0x7b0>
    7d62:	4650      	mov	r0, sl
    7d64:	a90f      	add	r1, sp, #60	; 0x3c
    7d66:	465b      	mov	r3, fp
    7d68:	f003 fd0c 	bl	b784 <_strtoll_r>
    7d6c:	6833      	ldr	r3, [r6, #0]
    7d6e:	3604      	adds	r6, #4
    7d70:	6018      	str	r0, [r3, #0]
    7d72:	6059      	str	r1, [r3, #4]
    7d74:	e002      	b.n	7d7c <__svfscanf_r+0x7c0>
    7d76:	6832      	ldr	r2, [r6, #0]
    7d78:	6010      	str	r0, [r2, #0]
    7d7a:	461e      	mov	r6, r3
    7d7c:	9908      	ldr	r1, [sp, #32]
    7d7e:	3101      	adds	r1, #1
    7d80:	9108      	str	r1, [sp, #32]
    7d82:	ab0f      	add	r3, sp, #60	; 0x3c
    7d84:	9a05      	ldr	r2, [sp, #20]
    7d86:	1aff      	subs	r7, r7, r3
    7d88:	18bf      	adds	r7, r7, r2
    7d8a:	444f      	add	r7, r9
    7d8c:	e431      	b.n	75f2 <__svfscanf_r+0x36>
    7d8e:	bf00      	nop
    7d90:	10000000 	.word	0x10000000
    7d94:	00011070 	.word	0x00011070
    7d98:	0000b8f1 	.word	0x0000b8f1
    7d9c:	1e6b      	subs	r3, r5, #1
    7d9e:	f5b3 7fae 	cmp.w	r3, #348	; 0x15c
    7da2:	d906      	bls.n	7db2 <__svfscanf_r+0x7f6>
    7da4:	f5a5 75ae 	sub.w	r5, r5, #348	; 0x15c
    7da8:	3d01      	subs	r5, #1
    7daa:	950b      	str	r5, [sp, #44]	; 0x2c
    7dac:	f240 155d 	movw	r5, #349	; 0x15d
    7db0:	e001      	b.n	7db6 <__svfscanf_r+0x7fa>
    7db2:	2300      	movs	r3, #0
    7db4:	930b      	str	r3, [sp, #44]	; 0x2c
    7db6:	f04f 0900 	mov.w	r9, #0
    7dba:	ab0f      	add	r3, sp, #60	; 0x3c
    7dbc:	f8cd b014 	str.w	fp, [sp, #20]
    7dc0:	f448 68f0 	orr.w	r8, r8, #1920	; 0x780
    7dc4:	46bb      	mov	fp, r7
    7dc6:	9606      	str	r6, [sp, #24]
    7dc8:	461f      	mov	r7, r3
    7dca:	464e      	mov	r6, r9
    7dcc:	4653      	mov	r3, sl
    7dce:	46ca      	mov	sl, r9
    7dd0:	f8cd 9028 	str.w	r9, [sp, #40]	; 0x28
    7dd4:	f8cd 9034 	str.w	r9, [sp, #52]	; 0x34
    7dd8:	f8cd 9030 	str.w	r9, [sp, #48]	; 0x30
    7ddc:	6821      	ldr	r1, [r4, #0]
    7dde:	7809      	ldrb	r1, [r1, #0]
    7de0:	294e      	cmp	r1, #78	; 0x4e
    7de2:	d058      	beq.n	7e96 <__svfscanf_r+0x8da>
    7de4:	d81d      	bhi.n	7e22 <__svfscanf_r+0x866>
    7de6:	2939      	cmp	r1, #57	; 0x39
    7de8:	d80f      	bhi.n	7e0a <__svfscanf_r+0x84e>
    7dea:	2931      	cmp	r1, #49	; 0x31
    7dec:	d244      	bcs.n	7e78 <__svfscanf_r+0x8bc>
    7dee:	292e      	cmp	r1, #46	; 0x2e
    7df0:	f000 8092 	beq.w	7f18 <__svfscanf_r+0x95c>
    7df4:	d805      	bhi.n	7e02 <__svfscanf_r+0x846>
    7df6:	292b      	cmp	r1, #43	; 0x2b
    7df8:	d046      	beq.n	7e88 <__svfscanf_r+0x8cc>
    7dfa:	292d      	cmp	r1, #45	; 0x2d
    7dfc:	f040 80cf 	bne.w	7f9e <__svfscanf_r+0x9e2>
    7e00:	e042      	b.n	7e88 <__svfscanf_r+0x8cc>
    7e02:	2930      	cmp	r1, #48	; 0x30
    7e04:	f040 80cb 	bne.w	7f9e <__svfscanf_r+0x9e2>
    7e08:	e028      	b.n	7e5c <__svfscanf_r+0x8a0>
    7e0a:	2945      	cmp	r1, #69	; 0x45
    7e0c:	f000 808b 	beq.w	7f26 <__svfscanf_r+0x96a>
    7e10:	d803      	bhi.n	7e1a <__svfscanf_r+0x85e>
    7e12:	2941      	cmp	r1, #65	; 0x41
    7e14:	f040 80c3 	bne.w	7f9e <__svfscanf_r+0x9e2>
    7e18:	e054      	b.n	7ec4 <__svfscanf_r+0x908>
    7e1a:	2946      	cmp	r1, #70	; 0x46
    7e1c:	d070      	beq.n	7f00 <__svfscanf_r+0x944>
    7e1e:	2949      	cmp	r1, #73	; 0x49
    7e20:	e013      	b.n	7e4a <__svfscanf_r+0x88e>
    7e22:	2966      	cmp	r1, #102	; 0x66
    7e24:	d06c      	beq.n	7f00 <__svfscanf_r+0x944>
    7e26:	d80c      	bhi.n	7e42 <__svfscanf_r+0x886>
    7e28:	2959      	cmp	r1, #89	; 0x59
    7e2a:	d071      	beq.n	7f10 <__svfscanf_r+0x954>
    7e2c:	d803      	bhi.n	7e36 <__svfscanf_r+0x87a>
    7e2e:	2954      	cmp	r1, #84	; 0x54
    7e30:	f040 80b5 	bne.w	7f9e <__svfscanf_r+0x9e2>
    7e34:	e068      	b.n	7f08 <__svfscanf_r+0x94c>
    7e36:	2961      	cmp	r1, #97	; 0x61
    7e38:	d044      	beq.n	7ec4 <__svfscanf_r+0x908>
    7e3a:	2965      	cmp	r1, #101	; 0x65
    7e3c:	f040 80af 	bne.w	7f9e <__svfscanf_r+0x9e2>
    7e40:	e071      	b.n	7f26 <__svfscanf_r+0x96a>
    7e42:	296e      	cmp	r1, #110	; 0x6e
    7e44:	d027      	beq.n	7e96 <__svfscanf_r+0x8da>
    7e46:	d803      	bhi.n	7e50 <__svfscanf_r+0x894>
    7e48:	2969      	cmp	r1, #105	; 0x69
    7e4a:	f040 80a8 	bne.w	7f9e <__svfscanf_r+0x9e2>
    7e4e:	e03d      	b.n	7ecc <__svfscanf_r+0x910>
    7e50:	2974      	cmp	r1, #116	; 0x74
    7e52:	d059      	beq.n	7f08 <__svfscanf_r+0x94c>
    7e54:	2979      	cmp	r1, #121	; 0x79
    7e56:	f040 80a2 	bne.w	7f9e <__svfscanf_r+0x9e2>
    7e5a:	e059      	b.n	7f10 <__svfscanf_r+0x954>
    7e5c:	f418 7f80 	tst.w	r8, #256	; 0x100
    7e60:	d00a      	beq.n	7e78 <__svfscanf_r+0x8bc>
    7e62:	980b      	ldr	r0, [sp, #44]	; 0x2c
    7e64:	f028 0880 	bic.w	r8, r8, #128	; 0x80
    7e68:	3601      	adds	r6, #1
    7e6a:	2800      	cmp	r0, #0
    7e6c:	f000 8082 	beq.w	7f74 <__svfscanf_r+0x9b8>
    7e70:	3801      	subs	r0, #1
    7e72:	3501      	adds	r5, #1
    7e74:	900b      	str	r0, [sp, #44]	; 0x2c
    7e76:	e07d      	b.n	7f74 <__svfscanf_r+0x9b8>
    7e78:	eb09 000a 	add.w	r0, r9, sl
    7e7c:	2800      	cmp	r0, #0
    7e7e:	f040 808e 	bne.w	7f9e <__svfscanf_r+0x9e2>
    7e82:	f428 78c0 	bic.w	r8, r8, #384	; 0x180
    7e86:	e073      	b.n	7f70 <__svfscanf_r+0x9b4>
    7e88:	f018 0f80 	tst.w	r8, #128	; 0x80
    7e8c:	f000 8087 	beq.w	7f9e <__svfscanf_r+0x9e2>
    7e90:	f028 0880 	bic.w	r8, r8, #128	; 0x80
    7e94:	e06c      	b.n	7f70 <__svfscanf_r+0x9b4>
    7e96:	f1ba 0f00 	cmp.w	sl, #0
    7e9a:	d10a      	bne.n	7eb2 <__svfscanf_r+0x8f6>
    7e9c:	b966      	cbnz	r6, 7eb8 <__svfscanf_r+0x8fc>
    7e9e:	f408 60e0 	and.w	r0, r8, #1792	; 0x700
    7ea2:	f5b0 6fe0 	cmp.w	r0, #1792	; 0x700
    7ea6:	d107      	bne.n	7eb8 <__svfscanf_r+0x8fc>
    7ea8:	f428 68f0 	bic.w	r8, r8, #1920	; 0x780
    7eac:	f10a 0a01 	add.w	sl, sl, #1
    7eb0:	e05e      	b.n	7f70 <__svfscanf_r+0x9b4>
    7eb2:	f1ba 0f02 	cmp.w	sl, #2
    7eb6:	d04d      	beq.n	7f54 <__svfscanf_r+0x998>
    7eb8:	f1b9 0f01 	cmp.w	r9, #1
    7ebc:	d01b      	beq.n	7ef6 <__svfscanf_r+0x93a>
    7ebe:	f1b9 0f04 	cmp.w	r9, #4
    7ec2:	e017      	b.n	7ef4 <__svfscanf_r+0x938>
    7ec4:	f1ba 0f01 	cmp.w	sl, #1
    7ec8:	d047      	beq.n	7f5a <__svfscanf_r+0x99e>
    7eca:	e068      	b.n	7f9e <__svfscanf_r+0x9e2>
    7ecc:	f1b9 0f00 	cmp.w	r9, #0
    7ed0:	d10b      	bne.n	7eea <__svfscanf_r+0x92e>
    7ed2:	2e00      	cmp	r6, #0
    7ed4:	d16f      	bne.n	7fb6 <__svfscanf_r+0x9fa>
    7ed6:	f408 60e0 	and.w	r0, r8, #1792	; 0x700
    7eda:	f5b0 6fe0 	cmp.w	r0, #1792	; 0x700
    7ede:	d175      	bne.n	7fcc <__svfscanf_r+0xa10>
    7ee0:	f428 68f0 	bic.w	r8, r8, #1920	; 0x780
    7ee4:	f109 0901 	add.w	r9, r9, #1
    7ee8:	e042      	b.n	7f70 <__svfscanf_r+0x9b4>
    7eea:	f1b9 0f03 	cmp.w	r9, #3
    7eee:	d002      	beq.n	7ef6 <__svfscanf_r+0x93a>
    7ef0:	f1b9 0f05 	cmp.w	r9, #5
    7ef4:	d153      	bne.n	7f9e <__svfscanf_r+0x9e2>
    7ef6:	f109 0901 	add.w	r9, r9, #1
    7efa:	fa5f f989 	uxtb.w	r9, r9
    7efe:	e037      	b.n	7f70 <__svfscanf_r+0x9b4>
    7f00:	f1b9 0f02 	cmp.w	r9, #2
    7f04:	d02c      	beq.n	7f60 <__svfscanf_r+0x9a4>
    7f06:	e04a      	b.n	7f9e <__svfscanf_r+0x9e2>
    7f08:	f1b9 0f06 	cmp.w	r9, #6
    7f0c:	d02b      	beq.n	7f66 <__svfscanf_r+0x9aa>
    7f0e:	e046      	b.n	7f9e <__svfscanf_r+0x9e2>
    7f10:	f1b9 0f07 	cmp.w	r9, #7
    7f14:	d02a      	beq.n	7f6c <__svfscanf_r+0x9b0>
    7f16:	e042      	b.n	7f9e <__svfscanf_r+0x9e2>
    7f18:	f418 7f00 	tst.w	r8, #512	; 0x200
    7f1c:	d03f      	beq.n	7f9e <__svfscanf_r+0x9e2>
    7f1e:	f428 7820 	bic.w	r8, r8, #640	; 0x280
    7f22:	960c      	str	r6, [sp, #48]	; 0x30
    7f24:	e024      	b.n	7f70 <__svfscanf_r+0x9b4>
    7f26:	f408 60a0 	and.w	r0, r8, #1280	; 0x500
    7f2a:	f5b0 6f80 	cmp.w	r0, #1024	; 0x400
    7f2e:	d004      	beq.n	7f3a <__svfscanf_r+0x97e>
    7f30:	f418 6f80 	tst.w	r8, #1024	; 0x400
    7f34:	d033      	beq.n	7f9e <__svfscanf_r+0x9e2>
    7f36:	2e00      	cmp	r6, #0
    7f38:	d048      	beq.n	7fcc <__svfscanf_r+0xa10>
    7f3a:	f418 7f00 	tst.w	r8, #512	; 0x200
    7f3e:	d103      	bne.n	7f48 <__svfscanf_r+0x98c>
    7f40:	9a0c      	ldr	r2, [sp, #48]	; 0x30
    7f42:	970a      	str	r7, [sp, #40]	; 0x28
    7f44:	1ab6      	subs	r6, r6, r2
    7f46:	960d      	str	r6, [sp, #52]	; 0x34
    7f48:	f428 68f0 	bic.w	r8, r8, #1920	; 0x780
    7f4c:	2600      	movs	r6, #0
    7f4e:	f448 78c0 	orr.w	r8, r8, #384	; 0x180
    7f52:	e00d      	b.n	7f70 <__svfscanf_r+0x9b4>
    7f54:	f04f 0a03 	mov.w	sl, #3
    7f58:	e00a      	b.n	7f70 <__svfscanf_r+0x9b4>
    7f5a:	f04f 0a02 	mov.w	sl, #2
    7f5e:	e007      	b.n	7f70 <__svfscanf_r+0x9b4>
    7f60:	f04f 0903 	mov.w	r9, #3
    7f64:	e004      	b.n	7f70 <__svfscanf_r+0x9b4>
    7f66:	f04f 0907 	mov.w	r9, #7
    7f6a:	e001      	b.n	7f70 <__svfscanf_r+0x9b4>
    7f6c:	f04f 0908 	mov.w	r9, #8
    7f70:	f807 1b01 	strb.w	r1, [r7], #1
    7f74:	6861      	ldr	r1, [r4, #4]
    7f76:	f10b 0b01 	add.w	fp, fp, #1
    7f7a:	3901      	subs	r1, #1
    7f7c:	6061      	str	r1, [r4, #4]
    7f7e:	2900      	cmp	r1, #0
    7f80:	dd03      	ble.n	7f8a <__svfscanf_r+0x9ce>
    7f82:	6821      	ldr	r1, [r4, #0]
    7f84:	3101      	adds	r1, #1
    7f86:	6021      	str	r1, [r4, #0]
    7f88:	e006      	b.n	7f98 <__svfscanf_r+0x9dc>
    7f8a:	4618      	mov	r0, r3
    7f8c:	4621      	mov	r1, r4
    7f8e:	9303      	str	r3, [sp, #12]
    7f90:	f002 fb52 	bl	a638 <__srefill_r>
    7f94:	9b03      	ldr	r3, [sp, #12]
    7f96:	b910      	cbnz	r0, 7f9e <__svfscanf_r+0x9e2>
    7f98:	3d01      	subs	r5, #1
    7f9a:	f47f af1f 	bne.w	7ddc <__svfscanf_r+0x820>
    7f9e:	46b4      	mov	ip, r6
    7fa0:	4652      	mov	r2, sl
    7fa2:	9e06      	ldr	r6, [sp, #24]
    7fa4:	469a      	mov	sl, r3
    7fa6:	463b      	mov	r3, r7
    7fa8:	465f      	mov	r7, fp
    7faa:	f8dd b014 	ldr.w	fp, [sp, #20]
    7fae:	f1bc 0f00 	cmp.w	ip, #0
    7fb2:	d013      	beq.n	7fdc <__svfscanf_r+0xa20>
    7fb4:	e007      	b.n	7fc6 <__svfscanf_r+0xa0a>
    7fb6:	46b4      	mov	ip, r6
    7fb8:	4652      	mov	r2, sl
    7fba:	9e06      	ldr	r6, [sp, #24]
    7fbc:	469a      	mov	sl, r3
    7fbe:	463b      	mov	r3, r7
    7fc0:	465f      	mov	r7, fp
    7fc2:	f8dd b014 	ldr.w	fp, [sp, #20]
    7fc6:	f428 7880 	bic.w	r8, r8, #256	; 0x100
    7fca:	e007      	b.n	7fdc <__svfscanf_r+0xa20>
    7fcc:	46b4      	mov	ip, r6
    7fce:	4652      	mov	r2, sl
    7fd0:	9e06      	ldr	r6, [sp, #24]
    7fd2:	469a      	mov	sl, r3
    7fd4:	463b      	mov	r3, r7
    7fd6:	465f      	mov	r7, fp
    7fd8:	f8dd b014 	ldr.w	fp, [sp, #20]
    7fdc:	3a01      	subs	r2, #1
    7fde:	2a01      	cmp	r2, #1
    7fe0:	d80b      	bhi.n	7ffa <__svfscanf_r+0xa3e>
    7fe2:	461d      	mov	r5, r3
    7fe4:	e005      	b.n	7ff2 <__svfscanf_r+0xa36>
    7fe6:	4650      	mov	r0, sl
    7fe8:	f815 1d01 	ldrb.w	r1, [r5, #-1]!
    7fec:	4622      	mov	r2, r4
    7fee:	f004 fe73 	bl	ccd8 <_ungetc_r>
    7ff2:	ab0f      	add	r3, sp, #60	; 0x3c
    7ff4:	429d      	cmp	r5, r3
    7ff6:	d8f6      	bhi.n	7fe6 <__svfscanf_r+0xa2a>
    7ff8:	e0bf      	b.n	817a <__cs3_region_size_ram+0x17a>
    7ffa:	f109 32ff 	add.w	r2, r9, #4294967295
    7ffe:	2a06      	cmp	r2, #6
    8000:	d82c      	bhi.n	805c <__cs3_region_size_ram+0x5c>
    8002:	f1b9 0f02 	cmp.w	r9, #2
    8006:	d801      	bhi.n	800c <__cs3_region_size_ram+0xc>
    8008:	461d      	mov	r5, r3
    800a:	e023      	b.n	8054 <__cs3_region_size_ram+0x54>
    800c:	9305      	str	r3, [sp, #20]
    800e:	464d      	mov	r5, r9
    8010:	e00d      	b.n	802e <__cs3_region_size_ram+0x2e>
    8012:	9a05      	ldr	r2, [sp, #20]
    8014:	4650      	mov	r0, sl
    8016:	f812 1d01 	ldrb.w	r1, [r2, #-1]!
    801a:	9303      	str	r3, [sp, #12]
    801c:	f8cd c010 	str.w	ip, [sp, #16]
    8020:	9205      	str	r2, [sp, #20]
    8022:	4622      	mov	r2, r4
    8024:	f004 fe58 	bl	ccd8 <_ungetc_r>
    8028:	f8dd c010 	ldr.w	ip, [sp, #16]
    802c:	9b03      	ldr	r3, [sp, #12]
    802e:	3d01      	subs	r5, #1
    8030:	b2ed      	uxtb	r5, r5
    8032:	2d02      	cmp	r5, #2
    8034:	d1ed      	bne.n	8012 <__cs3_region_size_ram+0x12>
    8036:	f1a9 0903 	sub.w	r9, r9, #3
    803a:	fa5f f989 	uxtb.w	r9, r9
    803e:	ebc9 0303 	rsb	r3, r9, r3
    8042:	ebc9 0707 	rsb	r7, r9, r7
    8046:	e009      	b.n	805c <__cs3_region_size_ram+0x5c>
    8048:	4650      	mov	r0, sl
    804a:	f815 1d01 	ldrb.w	r1, [r5, #-1]!
    804e:	4622      	mov	r2, r4
    8050:	f004 fe42 	bl	ccd8 <_ungetc_r>
    8054:	ab0f      	add	r3, sp, #60	; 0x3c
    8056:	429d      	cmp	r5, r3
    8058:	d8f6      	bhi.n	8048 <__cs3_region_size_ram+0x48>
    805a:	e08e      	b.n	817a <__cs3_region_size_ram+0x17a>
    805c:	f418 7f80 	tst.w	r8, #256	; 0x100
    8060:	d02c      	beq.n	80bc <__cs3_region_size_ram+0xbc>
    8062:	f418 6f80 	tst.w	r8, #1024	; 0x400
    8066:	d00b      	beq.n	8080 <__cs3_region_size_ram+0x80>
    8068:	461d      	mov	r5, r3
    806a:	e005      	b.n	8078 <__cs3_region_size_ram+0x78>
    806c:	4650      	mov	r0, sl
    806e:	f815 1d01 	ldrb.w	r1, [r5, #-1]!
    8072:	4622      	mov	r2, r4
    8074:	f004 fe30 	bl	ccd8 <_ungetc_r>
    8078:	ab0f      	add	r3, sp, #60	; 0x3c
    807a:	429d      	cmp	r5, r3
    807c:	d8f6      	bhi.n	806c <__cs3_region_size_ram+0x6c>
    807e:	e07c      	b.n	817a <__cs3_region_size_ram+0x17a>
    8080:	f813 1d01 	ldrb.w	r1, [r3, #-1]!
    8084:	3f01      	subs	r7, #1
    8086:	2965      	cmp	r1, #101	; 0x65
    8088:	d00e      	beq.n	80a8 <__cs3_region_size_ram+0xa8>
    808a:	2945      	cmp	r1, #69	; 0x45
    808c:	d00c      	beq.n	80a8 <__cs3_region_size_ram+0xa8>
    808e:	4650      	mov	r0, sl
    8090:	4622      	mov	r2, r4
    8092:	9303      	str	r3, [sp, #12]
    8094:	3f01      	subs	r7, #1
    8096:	f8cd c010 	str.w	ip, [sp, #16]
    809a:	f004 fe1d 	bl	ccd8 <_ungetc_r>
    809e:	9b03      	ldr	r3, [sp, #12]
    80a0:	f8dd c010 	ldr.w	ip, [sp, #16]
    80a4:	f813 1d01 	ldrb.w	r1, [r3, #-1]!
    80a8:	4650      	mov	r0, sl
    80aa:	4622      	mov	r2, r4
    80ac:	9303      	str	r3, [sp, #12]
    80ae:	f8cd c010 	str.w	ip, [sp, #16]
    80b2:	f004 fe11 	bl	ccd8 <_ungetc_r>
    80b6:	f8dd c010 	ldr.w	ip, [sp, #16]
    80ba:	9b03      	ldr	r3, [sp, #12]
    80bc:	f018 0210 	ands.w	r2, r8, #16
    80c0:	f47f aa97 	bne.w	75f2 <__svfscanf_r+0x36>
    80c4:	f408 61c0 	and.w	r1, r8, #1536	; 0x600
    80c8:	701a      	strb	r2, [r3, #0]
    80ca:	f5b1 6f80 	cmp.w	r1, #1024	; 0x400
    80ce:	d107      	bne.n	80e0 <__cs3_region_size_ram+0xe0>
    80d0:	9d0c      	ldr	r5, [sp, #48]	; 0x30
    80d2:	ebbc 0c05 	subs.w	ip, ip, r5
    80d6:	d019      	beq.n	810c <__cs3_region_size_ram+0x10c>
    80d8:	f1cc 0200 	rsb	r2, ip, #0
    80dc:	930a      	str	r3, [sp, #40]	; 0x28
    80de:	e009      	b.n	80f4 <__cs3_region_size_ram+0xf4>
    80e0:	980d      	ldr	r0, [sp, #52]	; 0x34
    80e2:	b198      	cbz	r0, 810c <__cs3_region_size_ram+0x10c>
    80e4:	9b0a      	ldr	r3, [sp, #40]	; 0x28
    80e6:	4650      	mov	r0, sl
    80e8:	1c59      	adds	r1, r3, #1
    80ea:	230a      	movs	r3, #10
    80ec:	f003 faaa 	bl	b644 <_strtol_r>
    80f0:	9d0d      	ldr	r5, [sp, #52]	; 0x34
    80f2:	1b42      	subs	r2, r0, r5
    80f4:	980a      	ldr	r0, [sp, #40]	; 0x28
    80f6:	ab63      	add	r3, sp, #396	; 0x18c
    80f8:	3303      	adds	r3, #3
    80fa:	4298      	cmp	r0, r3
    80fc:	bf24      	itt	cs
    80fe:	f50d 71c7 	addcs.w	r1, sp, #398	; 0x18e
    8102:	910a      	strcs	r1, [sp, #40]	; 0x28
    8104:	4922      	ldr	r1, [pc, #136]	; (8190 <__cs3_region_size_ram+0x190>)
    8106:	980a      	ldr	r0, [sp, #40]	; 0x28
    8108:	f002 fbbc 	bl	a884 <sprintf>
    810c:	2200      	movs	r2, #0
    810e:	4650      	mov	r0, sl
    8110:	a90f      	add	r1, sp, #60	; 0x3c
    8112:	f106 0904 	add.w	r9, r6, #4
    8116:	f002 fc4b 	bl	a9b0 <_strtod_r>
    811a:	f018 0f01 	tst.w	r8, #1
    811e:	4602      	mov	r2, r0
    8120:	460b      	mov	r3, r1
    8122:	d102      	bne.n	812a <__cs3_region_size_ram+0x12a>
    8124:	f018 0f02 	tst.w	r8, #2
    8128:	d003      	beq.n	8132 <__cs3_region_size_ram+0x132>
    812a:	6831      	ldr	r1, [r6, #0]
    812c:	e9c1 2300 	strd	r2, r3, [r1]
    8130:	e00f      	b.n	8152 <__cs3_region_size_ram+0x152>
    8132:	6835      	ldr	r5, [r6, #0]
    8134:	9004      	str	r0, [sp, #16]
    8136:	9103      	str	r1, [sp, #12]
    8138:	f002 fb0a 	bl	a750 <__fpclassifyd>
    813c:	9a04      	ldr	r2, [sp, #16]
    813e:	9b03      	ldr	r3, [sp, #12]
    8140:	b910      	cbnz	r0, 8148 <__cs3_region_size_ram+0x148>
    8142:	f002 fb7b 	bl	a83c <nanf>
    8146:	e003      	b.n	8150 <__cs3_region_size_ram+0x150>
    8148:	4610      	mov	r0, r2
    814a:	4619      	mov	r1, r3
    814c:	f008 f9a0 	bl	10490 <__aeabi_d2f>
    8150:	6028      	str	r0, [r5, #0]
    8152:	9a08      	ldr	r2, [sp, #32]
    8154:	3201      	adds	r2, #1
    8156:	9208      	str	r2, [sp, #32]
    8158:	464e      	mov	r6, r9
    815a:	f7ff ba4a 	b.w	75f2 <__svfscanf_r+0x36>
    815e:	f001 f902 	bl	9366 <__sfp_lock_release>
    8162:	9b08      	ldr	r3, [sp, #32]
    8164:	b163      	cbz	r3, 8180 <__cs3_region_size_ram+0x180>
    8166:	89a3      	ldrh	r3, [r4, #12]
    8168:	9d08      	ldr	r5, [sp, #32]
    816a:	f003 0340 	and.w	r3, r3, #64	; 0x40
    816e:	2b00      	cmp	r3, #0
    8170:	bf18      	it	ne
    8172:	f04f 35ff 	movne.w	r5, #4294967295
    8176:	9508      	str	r5, [sp, #32]
    8178:	e005      	b.n	8186 <__cs3_region_size_ram+0x186>
    817a:	f001 f8f4 	bl	9366 <__sfp_lock_release>
    817e:	e002      	b.n	8186 <__cs3_region_size_ram+0x186>
    8180:	f04f 30ff 	mov.w	r0, #4294967295
    8184:	9008      	str	r0, [sp, #32]
    8186:	9808      	ldr	r0, [sp, #32]
    8188:	f50d 7d2d 	add.w	sp, sp, #692	; 0x2b4
    818c:	e8bd 8ff0 	ldmia.w	sp!, {r4, r5, r6, r7, r8, r9, sl, fp, pc}
    8190:	00011092 	.word	0x00011092

00008194 <_vfscanf_r>:
    8194:	e92d 41f0 	stmdb	sp!, {r4, r5, r6, r7, r8, lr}
    8198:	460c      	mov	r4, r1
    819a:	4616      	mov	r6, r2
    819c:	461d      	mov	r5, r3
    819e:	4607      	mov	r7, r0
    81a0:	b118      	cbz	r0, 81aa <_vfscanf_r+0x16>
    81a2:	6983      	ldr	r3, [r0, #24]
    81a4:	b90b      	cbnz	r3, 81aa <_vfscanf_r+0x16>
    81a6:	f001 f873 	bl	9290 <__sinit>
    81aa:	4b0b      	ldr	r3, [pc, #44]	; (81d8 <_vfscanf_r+0x44>)
    81ac:	429c      	cmp	r4, r3
    81ae:	d101      	bne.n	81b4 <_vfscanf_r+0x20>
    81b0:	687c      	ldr	r4, [r7, #4]
    81b2:	e008      	b.n	81c6 <_vfscanf_r+0x32>
    81b4:	4b09      	ldr	r3, [pc, #36]	; (81dc <_vfscanf_r+0x48>)
    81b6:	429c      	cmp	r4, r3
    81b8:	d101      	bne.n	81be <_vfscanf_r+0x2a>
    81ba:	68bc      	ldr	r4, [r7, #8]
    81bc:	e003      	b.n	81c6 <_vfscanf_r+0x32>
    81be:	4b08      	ldr	r3, [pc, #32]	; (81e0 <_vfscanf_r+0x4c>)
    81c0:	429c      	cmp	r4, r3
    81c2:	bf08      	it	eq
    81c4:	68fc      	ldreq	r4, [r7, #12]
    81c6:	4638      	mov	r0, r7
    81c8:	4621      	mov	r1, r4
    81ca:	4632      	mov	r2, r6
    81cc:	462b      	mov	r3, r5
    81ce:	e8bd 41f0 	ldmia.w	sp!, {r4, r5, r6, r7, r8, lr}
    81d2:	f7ff b9f3 	b.w	75bc <__svfscanf_r>
    81d6:	bf00      	nop
    81d8:	000111a8 	.word	0x000111a8
    81dc:	000111c8 	.word	0x000111c8
    81e0:	000111e8 	.word	0x000111e8

000081e4 <__svfscanf>:
    81e4:	4613      	mov	r3, r2
    81e6:	4a05      	ldr	r2, [pc, #20]	; (81fc <__svfscanf+0x18>)
    81e8:	b530      	push	{r4, r5, lr}
    81ea:	4605      	mov	r5, r0
    81ec:	460c      	mov	r4, r1
    81ee:	6810      	ldr	r0, [r2, #0]
    81f0:	4629      	mov	r1, r5
    81f2:	4622      	mov	r2, r4
    81f4:	e8bd 4030 	ldmia.w	sp!, {r4, r5, lr}
    81f8:	f7ff b9e0 	b.w	75bc <__svfscanf_r>
    81fc:	100000f4 	.word	0x100000f4

00008200 <vfscanf>:
    8200:	e92d 41f0 	stmdb	sp!, {r4, r5, r6, r7, r8, lr}
    8204:	4604      	mov	r4, r0
    8206:	4f11      	ldr	r7, [pc, #68]	; (824c <vfscanf+0x4c>)
    8208:	460e      	mov	r6, r1
    820a:	4615      	mov	r5, r2
    820c:	6838      	ldr	r0, [r7, #0]
    820e:	b118      	cbz	r0, 8218 <vfscanf+0x18>
    8210:	6983      	ldr	r3, [r0, #24]
    8212:	b90b      	cbnz	r3, 8218 <vfscanf+0x18>
    8214:	f001 f83c 	bl	9290 <__sinit>
    8218:	4b0d      	ldr	r3, [pc, #52]	; (8250 <vfscanf+0x50>)
    821a:	429c      	cmp	r4, r3
    821c:	d102      	bne.n	8224 <vfscanf+0x24>
    821e:	683b      	ldr	r3, [r7, #0]
    8220:	685c      	ldr	r4, [r3, #4]
    8222:	e00a      	b.n	823a <vfscanf+0x3a>
    8224:	4b0b      	ldr	r3, [pc, #44]	; (8254 <vfscanf+0x54>)
    8226:	429c      	cmp	r4, r3
    8228:	d102      	bne.n	8230 <vfscanf+0x30>
    822a:	683b      	ldr	r3, [r7, #0]
    822c:	689c      	ldr	r4, [r3, #8]
    822e:	e004      	b.n	823a <vfscanf+0x3a>
    8230:	4b09      	ldr	r3, [pc, #36]	; (8258 <vfscanf+0x58>)
    8232:	429c      	cmp	r4, r3
    8234:	bf04      	itt	eq
    8236:	683b      	ldreq	r3, [r7, #0]
    8238:	68dc      	ldreq	r4, [r3, #12]
    823a:	6838      	ldr	r0, [r7, #0]
    823c:	4621      	mov	r1, r4
    823e:	4632      	mov	r2, r6
    8240:	462b      	mov	r3, r5
    8242:	e8bd 41f0 	ldmia.w	sp!, {r4, r5, r6, r7, r8, lr}
    8246:	f7ff b9b9 	b.w	75bc <__svfscanf_r>
    824a:	bf00      	nop
    824c:	100000f4 	.word	0x100000f4
    8250:	000111a8 	.word	0x000111a8
    8254:	000111c8 	.word	0x000111c8
    8258:	000111e8 	.word	0x000111e8

0000825c <__swsetup_r>:
    825c:	b570      	push	{r4, r5, r6, lr}
    825e:	4605      	mov	r5, r0
    8260:	4e31      	ldr	r6, [pc, #196]	; (8328 <__swsetup_r+0xcc>)
    8262:	460c      	mov	r4, r1
    8264:	6830      	ldr	r0, [r6, #0]
    8266:	b118      	cbz	r0, 8270 <__swsetup_r+0x14>
    8268:	6983      	ldr	r3, [r0, #24]
    826a:	b90b      	cbnz	r3, 8270 <__swsetup_r+0x14>
    826c:	f001 f810 	bl	9290 <__sinit>
    8270:	4b2e      	ldr	r3, [pc, #184]	; (832c <__swsetup_r+0xd0>)
    8272:	429c      	cmp	r4, r3
    8274:	d102      	bne.n	827c <__swsetup_r+0x20>
    8276:	6833      	ldr	r3, [r6, #0]
    8278:	685c      	ldr	r4, [r3, #4]
    827a:	e00a      	b.n	8292 <__swsetup_r+0x36>
    827c:	4b2c      	ldr	r3, [pc, #176]	; (8330 <__swsetup_r+0xd4>)
    827e:	429c      	cmp	r4, r3
    8280:	d102      	bne.n	8288 <__swsetup_r+0x2c>
    8282:	6833      	ldr	r3, [r6, #0]
    8284:	689c      	ldr	r4, [r3, #8]
    8286:	e004      	b.n	8292 <__swsetup_r+0x36>
    8288:	4b2a      	ldr	r3, [pc, #168]	; (8334 <__swsetup_r+0xd8>)
    828a:	429c      	cmp	r4, r3
    828c:	bf04      	itt	eq
    828e:	6833      	ldreq	r3, [r6, #0]
    8290:	68dc      	ldreq	r4, [r3, #12]
    8292:	89a3      	ldrh	r3, [r4, #12]
    8294:	f013 0f08 	tst.w	r3, #8
    8298:	d11c      	bne.n	82d4 <__swsetup_r+0x78>
    829a:	f013 0f10 	tst.w	r3, #16
    829e:	d03e      	beq.n	831e <__swsetup_r+0xc2>
    82a0:	f013 0f04 	tst.w	r3, #4
    82a4:	d012      	beq.n	82cc <__swsetup_r+0x70>
    82a6:	6b61      	ldr	r1, [r4, #52]	; 0x34
    82a8:	b141      	cbz	r1, 82bc <__swsetup_r+0x60>
    82aa:	f104 0344 	add.w	r3, r4, #68	; 0x44
    82ae:	4299      	cmp	r1, r3
    82b0:	d002      	beq.n	82b8 <__swsetup_r+0x5c>
    82b2:	4628      	mov	r0, r5
    82b4:	f001 f932 	bl	951c <_free_r>
    82b8:	2300      	movs	r3, #0
    82ba:	6363      	str	r3, [r4, #52]	; 0x34
    82bc:	89a3      	ldrh	r3, [r4, #12]
    82be:	f023 0324 	bic.w	r3, r3, #36	; 0x24
    82c2:	81a3      	strh	r3, [r4, #12]
    82c4:	2300      	movs	r3, #0
    82c6:	6063      	str	r3, [r4, #4]
    82c8:	6923      	ldr	r3, [r4, #16]
    82ca:	6023      	str	r3, [r4, #0]
    82cc:	89a3      	ldrh	r3, [r4, #12]
    82ce:	f043 0308 	orr.w	r3, r3, #8
    82d2:	81a3      	strh	r3, [r4, #12]
    82d4:	6923      	ldr	r3, [r4, #16]
    82d6:	b94b      	cbnz	r3, 82ec <__swsetup_r+0x90>
    82d8:	89a3      	ldrh	r3, [r4, #12]
    82da:	f403 7320 	and.w	r3, r3, #640	; 0x280
    82de:	f5b3 7f00 	cmp.w	r3, #512	; 0x200
    82e2:	d003      	beq.n	82ec <__swsetup_r+0x90>
    82e4:	4628      	mov	r0, r5
    82e6:	4621      	mov	r1, r4
    82e8:	f001 fa70 	bl	97cc <__smakebuf_r>
    82ec:	89a3      	ldrh	r3, [r4, #12]
    82ee:	f013 0201 	ands.w	r2, r3, #1
    82f2:	d005      	beq.n	8300 <__swsetup_r+0xa4>
    82f4:	2300      	movs	r3, #0
    82f6:	60a3      	str	r3, [r4, #8]
    82f8:	6963      	ldr	r3, [r4, #20]
    82fa:	425b      	negs	r3, r3
    82fc:	61a3      	str	r3, [r4, #24]
    82fe:	e005      	b.n	830c <__swsetup_r+0xb0>
    8300:	f013 0f02 	tst.w	r3, #2
    8304:	bf14      	ite	ne
    8306:	4613      	movne	r3, r2
    8308:	6963      	ldreq	r3, [r4, #20]
    830a:	60a3      	str	r3, [r4, #8]
    830c:	6923      	ldr	r3, [r4, #16]
    830e:	b94b      	cbnz	r3, 8324 <__swsetup_r+0xc8>
    8310:	89a0      	ldrh	r0, [r4, #12]
    8312:	f010 0080 	ands.w	r0, r0, #128	; 0x80
    8316:	bf18      	it	ne
    8318:	f04f 30ff 	movne.w	r0, #4294967295
    831c:	bd70      	pop	{r4, r5, r6, pc}
    831e:	f04f 30ff 	mov.w	r0, #4294967295
    8322:	bd70      	pop	{r4, r5, r6, pc}
    8324:	2000      	movs	r0, #0
    8326:	bd70      	pop	{r4, r5, r6, pc}
    8328:	100000f4 	.word	0x100000f4
    832c:	000111a8 	.word	0x000111a8
    8330:	000111c8 	.word	0x000111c8
    8334:	000111e8 	.word	0x000111e8

00008338 <quorem>:
    8338:	e92d 4ff7 	stmdb	sp!, {r0, r1, r2, r4, r5, r6, r7, r8, r9, sl, fp, lr}
    833c:	4604      	mov	r4, r0
    833e:	690b      	ldr	r3, [r1, #16]
    8340:	4689      	mov	r9, r1
    8342:	6902      	ldr	r2, [r0, #16]
    8344:	429a      	cmp	r2, r3
    8346:	f2c0 8086 	blt.w	8456 <quorem+0x11e>
    834a:	1e5d      	subs	r5, r3, #1
    834c:	3303      	adds	r3, #3
    834e:	f101 0814 	add.w	r8, r1, #20
    8352:	f100 0714 	add.w	r7, r0, #20
    8356:	009b      	lsls	r3, r3, #2
    8358:	18ca      	adds	r2, r1, r3
    835a:	18c3      	adds	r3, r0, r3
    835c:	f102 0a04 	add.w	sl, r2, #4
    8360:	6851      	ldr	r1, [r2, #4]
    8362:	6858      	ldr	r0, [r3, #4]
    8364:	3101      	adds	r1, #1
    8366:	f007 f963 	bl	f630 <__aeabi_uidiv>
    836a:	4606      	mov	r6, r0
    836c:	2800      	cmp	r0, #0
    836e:	d03c      	beq.n	83ea <quorem+0xb2>
    8370:	2300      	movs	r3, #0
    8372:	4639      	mov	r1, r7
    8374:	4642      	mov	r2, r8
    8376:	4618      	mov	r0, r3
    8378:	9401      	str	r4, [sp, #4]
    837a:	f852 eb04 	ldr.w	lr, [r2], #4
    837e:	680c      	ldr	r4, [r1, #0]
    8380:	4552      	cmp	r2, sl
    8382:	fa1f fc8e 	uxth.w	ip, lr
    8386:	ea4f 4e1e 	mov.w	lr, lr, lsr #16
    838a:	fa1f fb84 	uxth.w	fp, r4
    838e:	fb0c 3c06 	mla	ip, ip, r6, r3
    8392:	4458      	add	r0, fp
    8394:	fb0e fe06 	mul.w	lr, lr, r6
    8398:	eb0e 4e1c 	add.w	lr, lr, ip, lsr #16
    839c:	fa1f fc8c 	uxth.w	ip, ip
    83a0:	ebcc 0c00 	rsb	ip, ip, r0
    83a4:	ea4f 431e 	mov.w	r3, lr, lsr #16
    83a8:	fa1f fe8e 	uxth.w	lr, lr
    83ac:	ebce 4e14 	rsb	lr, lr, r4, lsr #16
    83b0:	eb0e 4e2c 	add.w	lr, lr, ip, asr #16
    83b4:	fa1f fc8c 	uxth.w	ip, ip
    83b8:	ea4f 402e 	mov.w	r0, lr, asr #16
    83bc:	ea4c 4e0e 	orr.w	lr, ip, lr, lsl #16
    83c0:	f841 eb04 	str.w	lr, [r1], #4
    83c4:	d9d9      	bls.n	837a <quorem+0x42>
    83c6:	9c01      	ldr	r4, [sp, #4]
    83c8:	1d2b      	adds	r3, r5, #4
    83ca:	eb04 0383 	add.w	r3, r4, r3, lsl #2
    83ce:	685a      	ldr	r2, [r3, #4]
    83d0:	b95a      	cbnz	r2, 83ea <quorem+0xb2>
    83d2:	3304      	adds	r3, #4
    83d4:	e000      	b.n	83d8 <quorem+0xa0>
    83d6:	3d01      	subs	r5, #1
    83d8:	1f1a      	subs	r2, r3, #4
    83da:	4297      	cmp	r7, r2
    83dc:	d204      	bcs.n	83e8 <quorem+0xb0>
    83de:	f853 1c04 	ldr.w	r1, [r3, #-4]
    83e2:	4613      	mov	r3, r2
    83e4:	2900      	cmp	r1, #0
    83e6:	d0f6      	beq.n	83d6 <quorem+0x9e>
    83e8:	6125      	str	r5, [r4, #16]
    83ea:	4620      	mov	r0, r4
    83ec:	4649      	mov	r1, r9
    83ee:	f001 ff4d 	bl	a28c <__mcmp>
    83f2:	2800      	cmp	r0, #0
    83f4:	db2d      	blt.n	8452 <quorem+0x11a>
    83f6:	3601      	adds	r6, #1
    83f8:	463b      	mov	r3, r7
    83fa:	2200      	movs	r2, #0
    83fc:	4641      	mov	r1, r8
    83fe:	f851 8b04 	ldr.w	r8, [r1], #4
    8402:	6818      	ldr	r0, [r3, #0]
    8404:	fa1f fc88 	uxth.w	ip, r8
    8408:	ea4f 4818 	mov.w	r8, r8, lsr #16
    840c:	fa1f f980 	uxth.w	r9, r0
    8410:	ebc8 4010 	rsb	r0, r8, r0, lsr #16
    8414:	ebcc 0c09 	rsb	ip, ip, r9
    8418:	4494      	add	ip, r2
    841a:	eb00 402c 	add.w	r0, r0, ip, asr #16
    841e:	fa1f fc8c 	uxth.w	ip, ip
    8422:	1402      	asrs	r2, r0, #16
    8424:	4551      	cmp	r1, sl
    8426:	ea4c 4000 	orr.w	r0, ip, r0, lsl #16
    842a:	f843 0b04 	str.w	r0, [r3], #4
    842e:	d9e6      	bls.n	83fe <quorem+0xc6>
    8430:	1d2b      	adds	r3, r5, #4
    8432:	eb04 0383 	add.w	r3, r4, r3, lsl #2
    8436:	685a      	ldr	r2, [r3, #4]
    8438:	b95a      	cbnz	r2, 8452 <quorem+0x11a>
    843a:	3304      	adds	r3, #4
    843c:	e000      	b.n	8440 <quorem+0x108>
    843e:	3d01      	subs	r5, #1
    8440:	1f1a      	subs	r2, r3, #4
    8442:	4297      	cmp	r7, r2
    8444:	d204      	bcs.n	8450 <quorem+0x118>
    8446:	f853 1c04 	ldr.w	r1, [r3, #-4]
    844a:	4613      	mov	r3, r2
    844c:	2900      	cmp	r1, #0
    844e:	d0f6      	beq.n	843e <quorem+0x106>
    8450:	6125      	str	r5, [r4, #16]
    8452:	4630      	mov	r0, r6
    8454:	e000      	b.n	8458 <quorem+0x120>
    8456:	2000      	movs	r0, #0
    8458:	e8bd 8ffe 	ldmia.w	sp!, {r1, r2, r3, r4, r5, r6, r7, r8, r9, sl, fp, pc}
    845c:	0000      	movs	r0, r0
	...

00008460 <_dtoa_r>:
    8460:	e92d 4ff0 	stmdb	sp!, {r4, r5, r6, r7, r8, r9, sl, fp, lr}
    8464:	4605      	mov	r5, r0
    8466:	b09b      	sub	sp, #108	; 0x6c
    8468:	4610      	mov	r0, r2
    846a:	6a6e      	ldr	r6, [r5, #36]	; 0x24
    846c:	4619      	mov	r1, r3
    846e:	9c27      	ldr	r4, [sp, #156]	; 0x9c
    8470:	e9cd 0104 	strd	r0, r1, [sp, #16]
    8474:	b93e      	cbnz	r6, 8486 <_dtoa_r+0x26>
    8476:	2010      	movs	r0, #16
    8478:	f001 fa18 	bl	98ac <malloc>
    847c:	6268      	str	r0, [r5, #36]	; 0x24
    847e:	6046      	str	r6, [r0, #4]
    8480:	6086      	str	r6, [r0, #8]
    8482:	6006      	str	r6, [r0, #0]
    8484:	60c6      	str	r6, [r0, #12]
    8486:	6a6b      	ldr	r3, [r5, #36]	; 0x24
    8488:	6819      	ldr	r1, [r3, #0]
    848a:	b159      	cbz	r1, 84a4 <_dtoa_r+0x44>
    848c:	685b      	ldr	r3, [r3, #4]
    848e:	2201      	movs	r2, #1
    8490:	4628      	mov	r0, r5
    8492:	604b      	str	r3, [r1, #4]
    8494:	fa12 f303 	lsls.w	r3, r2, r3
    8498:	608b      	str	r3, [r1, #8]
    849a:	f001 fcd9 	bl	9e50 <_Bfree>
    849e:	6a6b      	ldr	r3, [r5, #36]	; 0x24
    84a0:	2200      	movs	r2, #0
    84a2:	601a      	str	r2, [r3, #0]
    84a4:	9b05      	ldr	r3, [sp, #20]
    84a6:	2b00      	cmp	r3, #0
    84a8:	da05      	bge.n	84b6 <_dtoa_r+0x56>
    84aa:	2201      	movs	r2, #1
    84ac:	f023 4300 	bic.w	r3, r3, #2147483648	; 0x80000000
    84b0:	6022      	str	r2, [r4, #0]
    84b2:	9305      	str	r3, [sp, #20]
    84b4:	e001      	b.n	84ba <_dtoa_r+0x5a>
    84b6:	2300      	movs	r3, #0
    84b8:	6023      	str	r3, [r4, #0]
    84ba:	9c05      	ldr	r4, [sp, #20]
    84bc:	4b9a      	ldr	r3, [pc, #616]	; (8728 <_dtoa_r+0x2c8>)
    84be:	4a9a      	ldr	r2, [pc, #616]	; (8728 <_dtoa_r+0x2c8>)
    84c0:	ea04 0303 	and.w	r3, r4, r3
    84c4:	4293      	cmp	r3, r2
    84c6:	d11d      	bne.n	8504 <_dtoa_r+0xa4>
    84c8:	9926      	ldr	r1, [sp, #152]	; 0x98
    84ca:	f242 730f 	movw	r3, #9999	; 0x270f
    84ce:	9a04      	ldr	r2, [sp, #16]
    84d0:	600b      	str	r3, [r1, #0]
    84d2:	b94a      	cbnz	r2, 84e8 <_dtoa_r+0x88>
    84d4:	f024 447f 	bic.w	r4, r4, #4278190080	; 0xff000000
    84d8:	4b94      	ldr	r3, [pc, #592]	; (872c <_dtoa_r+0x2cc>)
    84da:	4895      	ldr	r0, [pc, #596]	; (8730 <_dtoa_r+0x2d0>)
    84dc:	f424 0470 	bic.w	r4, r4, #15728640	; 0xf00000
    84e0:	2c00      	cmp	r4, #0
    84e2:	bf18      	it	ne
    84e4:	4618      	movne	r0, r3
    84e6:	e000      	b.n	84ea <_dtoa_r+0x8a>
    84e8:	4890      	ldr	r0, [pc, #576]	; (872c <_dtoa_r+0x2cc>)
    84ea:	9b28      	ldr	r3, [sp, #160]	; 0xa0
    84ec:	2b00      	cmp	r3, #0
    84ee:	f000 85b3 	beq.w	9058 <_dtoa_r+0xbf8>
    84f2:	78c2      	ldrb	r2, [r0, #3]
    84f4:	1cc3      	adds	r3, r0, #3
    84f6:	b10a      	cbz	r2, 84fc <_dtoa_r+0x9c>
    84f8:	f100 0308 	add.w	r3, r0, #8
    84fc:	9928      	ldr	r1, [sp, #160]	; 0xa0
    84fe:	600b      	str	r3, [r1, #0]
    8500:	f000 bdaa 	b.w	9058 <_dtoa_r+0xbf8>
    8504:	e9dd ab04 	ldrd	sl, fp, [sp, #16]
    8508:	2200      	movs	r2, #0
    850a:	2300      	movs	r3, #0
    850c:	2601      	movs	r6, #1
    850e:	4650      	mov	r0, sl
    8510:	4659      	mov	r1, fp
    8512:	f007 ff43 	bl	1039c <__aeabi_dcmpeq>
    8516:	b100      	cbz	r0, 851a <_dtoa_r+0xba>
    8518:	2600      	movs	r6, #0
    851a:	f016 0fff 	tst.w	r6, #255	; 0xff
    851e:	d10b      	bne.n	8538 <_dtoa_r+0xd8>
    8520:	9a26      	ldr	r2, [sp, #152]	; 0x98
    8522:	2301      	movs	r3, #1
    8524:	6013      	str	r3, [r2, #0]
    8526:	9b28      	ldr	r3, [sp, #160]	; 0xa0
    8528:	2b00      	cmp	r3, #0
    852a:	f000 8592 	beq.w	9052 <_dtoa_r+0xbf2>
    852e:	4881      	ldr	r0, [pc, #516]	; (8734 <_dtoa_r+0x2d4>)
    8530:	6018      	str	r0, [r3, #0]
    8532:	3801      	subs	r0, #1
    8534:	f000 bd90 	b.w	9058 <_dtoa_r+0xbf8>
    8538:	ab18      	add	r3, sp, #96	; 0x60
    853a:	4628      	mov	r0, r5
    853c:	9300      	str	r3, [sp, #0]
    853e:	4652      	mov	r2, sl
    8540:	ab19      	add	r3, sp, #100	; 0x64
    8542:	9301      	str	r3, [sp, #4]
    8544:	465b      	mov	r3, fp
    8546:	0d26      	lsrs	r6, r4, #20
    8548:	f001 ff92 	bl	a470 <__d2b>
    854c:	0576      	lsls	r6, r6, #21
    854e:	0d76      	lsrs	r6, r6, #21
    8550:	4681      	mov	r9, r0
    8552:	b16e      	cbz	r6, 8570 <_dtoa_r+0x110>
    8554:	f02b 437f 	bic.w	r3, fp, #4278190080	; 0xff000000
    8558:	f5a6 767e 	sub.w	r6, r6, #1016	; 0x3f8
    855c:	f423 0370 	bic.w	r3, r3, #15728640	; 0xf00000
    8560:	4650      	mov	r0, sl
    8562:	f043 517e 	orr.w	r1, r3, #1065353216	; 0x3f800000
    8566:	3e07      	subs	r6, #7
    8568:	f441 01e0 	orr.w	r1, r1, #7340032	; 0x700000
    856c:	2200      	movs	r2, #0
    856e:	e01e      	b.n	85ae <_dtoa_r+0x14e>
    8570:	9b18      	ldr	r3, [sp, #96]	; 0x60
    8572:	9819      	ldr	r0, [sp, #100]	; 0x64
    8574:	18c0      	adds	r0, r0, r3
    8576:	f500 6086 	add.w	r0, r0, #1072	; 0x430
    857a:	1c86      	adds	r6, r0, #2
    857c:	2e20      	cmp	r6, #32
    857e:	dd08      	ble.n	8592 <_dtoa_r+0x132>
    8580:	9b04      	ldr	r3, [sp, #16]
    8582:	381e      	subs	r0, #30
    8584:	fa33 f000 	lsrs.w	r0, r3, r0
    8588:	f1c6 0340 	rsb	r3, r6, #64	; 0x40
    858c:	409c      	lsls	r4, r3
    858e:	4320      	orrs	r0, r4
    8590:	e005      	b.n	859e <_dtoa_r+0x13e>
    8592:	f8dd e010 	ldr.w	lr, [sp, #16]
    8596:	f1c6 0020 	rsb	r0, r6, #32
    859a:	fa0e f000 	lsl.w	r0, lr, r0
    859e:	f007 fc1f 	bl	fde0 <__aeabi_ui2d>
    85a2:	f5a6 6686 	sub.w	r6, r6, #1072	; 0x430
    85a6:	3e03      	subs	r6, #3
    85a8:	2201      	movs	r2, #1
    85aa:	f1a1 71f8 	sub.w	r1, r1, #32505856	; 0x1f00000
    85ae:	9216      	str	r2, [sp, #88]	; 0x58
    85b0:	2200      	movs	r2, #0
    85b2:	4b61      	ldr	r3, [pc, #388]	; (8738 <_dtoa_r+0x2d8>)
    85b4:	f007 fad6 	bl	fb64 <__aeabi_dsub>
    85b8:	a355      	add	r3, pc, #340	; (adr r3, 8710 <_dtoa_r+0x2b0>)
    85ba:	e9d3 2300 	ldrd	r2, r3, [r3]
    85be:	f007 fc85 	bl	fecc <__aeabi_dmul>
    85c2:	a355      	add	r3, pc, #340	; (adr r3, 8718 <_dtoa_r+0x2b8>)
    85c4:	e9d3 2300 	ldrd	r2, r3, [r3]
    85c8:	f007 face 	bl	fb68 <__adddf3>
    85cc:	4682      	mov	sl, r0
    85ce:	4630      	mov	r0, r6
    85d0:	468b      	mov	fp, r1
    85d2:	f007 fc15 	bl	fe00 <__aeabi_i2d>
    85d6:	a352      	add	r3, pc, #328	; (adr r3, 8720 <_dtoa_r+0x2c0>)
    85d8:	e9d3 2300 	ldrd	r2, r3, [r3]
    85dc:	f007 fc76 	bl	fecc <__aeabi_dmul>
    85e0:	4602      	mov	r2, r0
    85e2:	460b      	mov	r3, r1
    85e4:	4650      	mov	r0, sl
    85e6:	4659      	mov	r1, fp
    85e8:	f007 fabe 	bl	fb68 <__adddf3>
    85ec:	4682      	mov	sl, r0
    85ee:	468b      	mov	fp, r1
    85f0:	f007 ff06 	bl	10400 <__aeabi_d2iz>
    85f4:	4659      	mov	r1, fp
    85f6:	2200      	movs	r2, #0
    85f8:	2300      	movs	r3, #0
    85fa:	4604      	mov	r4, r0
    85fc:	4650      	mov	r0, sl
    85fe:	f007 fed7 	bl	103b0 <__aeabi_dcmplt>
    8602:	b150      	cbz	r0, 861a <_dtoa_r+0x1ba>
    8604:	4620      	mov	r0, r4
    8606:	f007 fbfb 	bl	fe00 <__aeabi_i2d>
    860a:	4602      	mov	r2, r0
    860c:	460b      	mov	r3, r1
    860e:	4650      	mov	r0, sl
    8610:	4659      	mov	r1, fp
    8612:	f007 fec3 	bl	1039c <__aeabi_dcmpeq>
    8616:	b900      	cbnz	r0, 861a <_dtoa_r+0x1ba>
    8618:	3c01      	subs	r4, #1
    861a:	2c16      	cmp	r4, #22
    861c:	d80d      	bhi.n	863a <_dtoa_r+0x1da>
    861e:	4b47      	ldr	r3, [pc, #284]	; (873c <_dtoa_r+0x2dc>)
    8620:	eb03 03c4 	add.w	r3, r3, r4, lsl #3
    8624:	e9d3 0100 	ldrd	r0, r1, [r3]
    8628:	e9dd 2304 	ldrd	r2, r3, [sp, #16]
    862c:	f007 fede 	bl	103ec <__aeabi_dcmpgt>
    8630:	b130      	cbz	r0, 8640 <_dtoa_r+0x1e0>
    8632:	2300      	movs	r3, #0
    8634:	3c01      	subs	r4, #1
    8636:	9311      	str	r3, [sp, #68]	; 0x44
    8638:	e004      	b.n	8644 <_dtoa_r+0x1e4>
    863a:	2001      	movs	r0, #1
    863c:	9011      	str	r0, [sp, #68]	; 0x44
    863e:	e001      	b.n	8644 <_dtoa_r+0x1e4>
    8640:	2100      	movs	r1, #0
    8642:	9111      	str	r1, [sp, #68]	; 0x44
    8644:	9b19      	ldr	r3, [sp, #100]	; 0x64
    8646:	f103 3bff 	add.w	fp, r3, #4294967295
    864a:	ebbb 0b06 	subs.w	fp, fp, r6
    864e:	d504      	bpl.n	865a <_dtoa_r+0x1fa>
    8650:	2200      	movs	r2, #0
    8652:	f1cb 0b00 	rsb	fp, fp, #0
    8656:	9206      	str	r2, [sp, #24]
    8658:	e003      	b.n	8662 <_dtoa_r+0x202>
    865a:	f8cd b018 	str.w	fp, [sp, #24]
    865e:	f04f 0b00 	mov.w	fp, #0
    8662:	2c00      	cmp	r4, #0
    8664:	db06      	blt.n	8674 <_dtoa_r+0x214>
    8666:	9b06      	ldr	r3, [sp, #24]
    8668:	f04f 0800 	mov.w	r8, #0
    866c:	940f      	str	r4, [sp, #60]	; 0x3c
    866e:	191b      	adds	r3, r3, r4
    8670:	9306      	str	r3, [sp, #24]
    8672:	e005      	b.n	8680 <_dtoa_r+0x220>
    8674:	ebc4 0b0b 	rsb	fp, r4, fp
    8678:	f1c4 0800 	rsb	r8, r4, #0
    867c:	2000      	movs	r0, #0
    867e:	900f      	str	r0, [sp, #60]	; 0x3c
    8680:	9924      	ldr	r1, [sp, #144]	; 0x90
    8682:	2909      	cmp	r1, #9
    8684:	d813      	bhi.n	86ae <_dtoa_r+0x24e>
    8686:	2905      	cmp	r1, #5
    8688:	dd03      	ble.n	8692 <_dtoa_r+0x232>
    868a:	3904      	subs	r1, #4
    868c:	2700      	movs	r7, #0
    868e:	9124      	str	r1, [sp, #144]	; 0x90
    8690:	e000      	b.n	8694 <_dtoa_r+0x234>
    8692:	2701      	movs	r7, #1
    8694:	9a24      	ldr	r2, [sp, #144]	; 0x90
    8696:	1e93      	subs	r3, r2, #2
    8698:	2b03      	cmp	r3, #3
    869a:	d80b      	bhi.n	86b4 <_dtoa_r+0x254>
    869c:	e8df f003 	tbb	[pc, r3]
    86a0:	02051e15 	.word	0x02051e15
    86a4:	2001      	movs	r0, #1
    86a6:	900e      	str	r0, [sp, #56]	; 0x38
    86a8:	e01a      	b.n	86e0 <_dtoa_r+0x280>
    86aa:	2101      	movs	r1, #1
    86ac:	e00e      	b.n	86cc <_dtoa_r+0x26c>
    86ae:	2701      	movs	r7, #1
    86b0:	2200      	movs	r2, #0
    86b2:	9224      	str	r2, [sp, #144]	; 0x90
    86b4:	2301      	movs	r3, #1
    86b6:	f04f 3eff 	mov.w	lr, #4294967295
    86ba:	930e      	str	r3, [sp, #56]	; 0x38
    86bc:	2000      	movs	r0, #0
    86be:	f8cd e030 	str.w	lr, [sp, #48]	; 0x30
    86c2:	46f2      	mov	sl, lr
    86c4:	3311      	adds	r3, #17
    86c6:	9025      	str	r0, [sp, #148]	; 0x94
    86c8:	e01a      	b.n	8700 <_dtoa_r+0x2a0>
    86ca:	2100      	movs	r1, #0
    86cc:	9a25      	ldr	r2, [sp, #148]	; 0x94
    86ce:	910e      	str	r1, [sp, #56]	; 0x38
    86d0:	2a00      	cmp	r2, #0
    86d2:	dd0d      	ble.n	86f0 <_dtoa_r+0x290>
    86d4:	920c      	str	r2, [sp, #48]	; 0x30
    86d6:	4692      	mov	sl, r2
    86d8:	4613      	mov	r3, r2
    86da:	e011      	b.n	8700 <_dtoa_r+0x2a0>
    86dc:	2300      	movs	r3, #0
    86de:	930e      	str	r3, [sp, #56]	; 0x38
    86e0:	9825      	ldr	r0, [sp, #148]	; 0x94
    86e2:	1820      	adds	r0, r4, r0
    86e4:	900c      	str	r0, [sp, #48]	; 0x30
    86e6:	1c43      	adds	r3, r0, #1
    86e8:	2b00      	cmp	r3, #0
    86ea:	dd07      	ble.n	86fc <_dtoa_r+0x29c>
    86ec:	469a      	mov	sl, r3
    86ee:	e007      	b.n	8700 <_dtoa_r+0x2a0>
    86f0:	2101      	movs	r1, #1
    86f2:	910c      	str	r1, [sp, #48]	; 0x30
    86f4:	468a      	mov	sl, r1
    86f6:	460b      	mov	r3, r1
    86f8:	9125      	str	r1, [sp, #148]	; 0x94
    86fa:	e001      	b.n	8700 <_dtoa_r+0x2a0>
    86fc:	469a      	mov	sl, r3
    86fe:	2301      	movs	r3, #1
    8700:	6a6e      	ldr	r6, [r5, #36]	; 0x24
    8702:	2200      	movs	r2, #0
    8704:	6072      	str	r2, [r6, #4]
    8706:	3204      	adds	r2, #4
    8708:	e01e      	b.n	8748 <_dtoa_r+0x2e8>
    870a:	bf00      	nop
    870c:	f3af 8000 	nop.w
    8710:	636f4361 	.word	0x636f4361
    8714:	3fd287a7 	.word	0x3fd287a7
    8718:	8b60c8b3 	.word	0x8b60c8b3
    871c:	3fc68a28 	.word	0x3fc68a28
    8720:	509f79fb 	.word	0x509f79fb
    8724:	3fd34413 	.word	0x3fd34413
    8728:	7ff00000 	.word	0x7ff00000
    872c:	000111a1 	.word	0x000111a1
    8730:	00011198 	.word	0x00011198
    8734:	0001105f 	.word	0x0001105f
    8738:	3ff80000 	.word	0x3ff80000
    873c:	00011228 	.word	0x00011228
    8740:	6871      	ldr	r1, [r6, #4]
    8742:	0052      	lsls	r2, r2, #1
    8744:	3101      	adds	r1, #1
    8746:	6071      	str	r1, [r6, #4]
    8748:	f102 0114 	add.w	r1, r2, #20
    874c:	4299      	cmp	r1, r3
    874e:	d9f7      	bls.n	8740 <_dtoa_r+0x2e0>
    8750:	4628      	mov	r0, r5
    8752:	6871      	ldr	r1, [r6, #4]
    8754:	f001 fb4b 	bl	9dee <_Balloc>
    8758:	6a6b      	ldr	r3, [r5, #36]	; 0x24
    875a:	f1ba 0f0e 	cmp.w	sl, #14
    875e:	6030      	str	r0, [r6, #0]
    8760:	681b      	ldr	r3, [r3, #0]
    8762:	930d      	str	r3, [sp, #52]	; 0x34
    8764:	f200 81ac 	bhi.w	8ac0 <_dtoa_r+0x660>
    8768:	2f00      	cmp	r7, #0
    876a:	f000 81a9 	beq.w	8ac0 <_dtoa_r+0x660>
    876e:	e9dd 2304 	ldrd	r2, r3, [sp, #16]
    8772:	2c00      	cmp	r4, #0
    8774:	e9cd 2312 	strd	r2, r3, [sp, #72]	; 0x48
    8778:	dd3f      	ble.n	87fa <_dtoa_r+0x39a>
    877a:	f004 020f 	and.w	r2, r4, #15
    877e:	4b92      	ldr	r3, [pc, #584]	; (89c8 <_dtoa_r+0x568>)
    8780:	1127      	asrs	r7, r4, #4
    8782:	eb03 03c2 	add.w	r3, r3, r2, lsl #3
    8786:	f017 0f10 	tst.w	r7, #16
    878a:	e9d3 0100 	ldrd	r0, r1, [r3]
    878e:	e9cd 010a 	strd	r0, r1, [sp, #40]	; 0x28
    8792:	d00e      	beq.n	87b2 <_dtoa_r+0x352>
    8794:	4b8d      	ldr	r3, [pc, #564]	; (89cc <_dtoa_r+0x56c>)
    8796:	f007 070f 	and.w	r7, r7, #15
    879a:	e9dd 0112 	ldrd	r0, r1, [sp, #72]	; 0x48
    879e:	2603      	movs	r6, #3
    87a0:	e9d3 2308 	ldrd	r2, r3, [r3, #32]
    87a4:	f007 fcbc 	bl	10120 <__aeabi_ddiv>
    87a8:	4602      	mov	r2, r0
    87aa:	460b      	mov	r3, r1
    87ac:	e9cd 2304 	strd	r2, r3, [sp, #16]
    87b0:	e000      	b.n	87b4 <_dtoa_r+0x354>
    87b2:	2602      	movs	r6, #2
    87b4:	f8df c214 	ldr.w	ip, [pc, #532]	; 89cc <_dtoa_r+0x56c>
    87b8:	f8cd b020 	str.w	fp, [sp, #32]
    87bc:	46c3      	mov	fp, r8
    87be:	e9dd 010a 	ldrd	r0, r1, [sp, #40]	; 0x28
    87c2:	46a0      	mov	r8, r4
    87c4:	4664      	mov	r4, ip
    87c6:	e009      	b.n	87dc <_dtoa_r+0x37c>
    87c8:	f017 0f01 	tst.w	r7, #1
    87cc:	d004      	beq.n	87d8 <_dtoa_r+0x378>
    87ce:	e9d4 2300 	ldrd	r2, r3, [r4]
    87d2:	3601      	adds	r6, #1
    87d4:	f007 fb7a 	bl	fecc <__aeabi_dmul>
    87d8:	107f      	asrs	r7, r7, #1
    87da:	3408      	adds	r4, #8
    87dc:	2f00      	cmp	r7, #0
    87de:	d1f3      	bne.n	87c8 <_dtoa_r+0x368>
    87e0:	e9cd 010a 	strd	r0, r1, [sp, #40]	; 0x28
    87e4:	4644      	mov	r4, r8
    87e6:	e9dd 0104 	ldrd	r0, r1, [sp, #16]
    87ea:	46d8      	mov	r8, fp
    87ec:	e9dd 230a 	ldrd	r2, r3, [sp, #40]	; 0x28
    87f0:	f8dd b020 	ldr.w	fp, [sp, #32]
    87f4:	f007 fc94 	bl	10120 <__aeabi_ddiv>
    87f8:	e026      	b.n	8848 <_dtoa_r+0x3e8>
    87fa:	4267      	negs	r7, r4
    87fc:	b34f      	cbz	r7, 8852 <_dtoa_r+0x3f2>
    87fe:	f007 020f 	and.w	r2, r7, #15
    8802:	4b71      	ldr	r3, [pc, #452]	; (89c8 <_dtoa_r+0x568>)
    8804:	e9dd 0112 	ldrd	r0, r1, [sp, #72]	; 0x48
    8808:	113f      	asrs	r7, r7, #4
    880a:	eb03 03c2 	add.w	r3, r3, r2, lsl #3
    880e:	2602      	movs	r6, #2
    8810:	e9d3 2300 	ldrd	r2, r3, [r3]
    8814:	f007 fb5a 	bl	fecc <__aeabi_dmul>
    8818:	f8df c1b0 	ldr.w	ip, [pc, #432]	; 89cc <_dtoa_r+0x56c>
    881c:	f8cd b010 	str.w	fp, [sp, #16]
    8820:	46c3      	mov	fp, r8
    8822:	46a0      	mov	r8, r4
    8824:	4664      	mov	r4, ip
    8826:	e009      	b.n	883c <_dtoa_r+0x3dc>
    8828:	f017 0f01 	tst.w	r7, #1
    882c:	d004      	beq.n	8838 <_dtoa_r+0x3d8>
    882e:	e9d4 2300 	ldrd	r2, r3, [r4]
    8832:	3601      	adds	r6, #1
    8834:	f007 fb4a 	bl	fecc <__aeabi_dmul>
    8838:	107f      	asrs	r7, r7, #1
    883a:	3408      	adds	r4, #8
    883c:	2f00      	cmp	r7, #0
    883e:	d1f3      	bne.n	8828 <_dtoa_r+0x3c8>
    8840:	4644      	mov	r4, r8
    8842:	46d8      	mov	r8, fp
    8844:	f8dd b010 	ldr.w	fp, [sp, #16]
    8848:	4602      	mov	r2, r0
    884a:	460b      	mov	r3, r1
    884c:	e9cd 2304 	strd	r2, r3, [sp, #16]
    8850:	e000      	b.n	8854 <_dtoa_r+0x3f4>
    8852:	2602      	movs	r6, #2
    8854:	9b11      	ldr	r3, [sp, #68]	; 0x44
    8856:	b1f3      	cbz	r3, 8896 <_dtoa_r+0x436>
    8858:	e9dd 0104 	ldrd	r0, r1, [sp, #16]
    885c:	2200      	movs	r2, #0
    885e:	4b5c      	ldr	r3, [pc, #368]	; (89d0 <_dtoa_r+0x570>)
    8860:	e9cd 0108 	strd	r0, r1, [sp, #32]
    8864:	f007 fda4 	bl	103b0 <__aeabi_dcmplt>
    8868:	b1a8      	cbz	r0, 8896 <_dtoa_r+0x436>
    886a:	f1ba 0f00 	cmp.w	sl, #0
    886e:	d012      	beq.n	8896 <_dtoa_r+0x436>
    8870:	990c      	ldr	r1, [sp, #48]	; 0x30
    8872:	2900      	cmp	r1, #0
    8874:	f340 8120 	ble.w	8ab8 <_dtoa_r+0x658>
    8878:	1e62      	subs	r2, r4, #1
    887a:	4b56      	ldr	r3, [pc, #344]	; (89d4 <_dtoa_r+0x574>)
    887c:	920a      	str	r2, [sp, #40]	; 0x28
    887e:	2200      	movs	r2, #0
    8880:	e9dd 0108 	ldrd	r0, r1, [sp, #32]
    8884:	3601      	adds	r6, #1
    8886:	f007 fb21 	bl	fecc <__aeabi_dmul>
    888a:	9f0c      	ldr	r7, [sp, #48]	; 0x30
    888c:	4602      	mov	r2, r0
    888e:	460b      	mov	r3, r1
    8890:	e9cd 2304 	strd	r2, r3, [sp, #16]
    8894:	e001      	b.n	889a <_dtoa_r+0x43a>
    8896:	4657      	mov	r7, sl
    8898:	940a      	str	r4, [sp, #40]	; 0x28
    889a:	4630      	mov	r0, r6
    889c:	f007 fab0 	bl	fe00 <__aeabi_i2d>
    88a0:	e9dd 2304 	ldrd	r2, r3, [sp, #16]
    88a4:	f007 fb12 	bl	fecc <__aeabi_dmul>
    88a8:	2200      	movs	r2, #0
    88aa:	4b4b      	ldr	r3, [pc, #300]	; (89d8 <_dtoa_r+0x578>)
    88ac:	f007 f95c 	bl	fb68 <__adddf3>
    88b0:	460b      	mov	r3, r1
    88b2:	4602      	mov	r2, r0
    88b4:	e9cd 2308 	strd	r2, r3, [sp, #32]
    88b8:	9b09      	ldr	r3, [sp, #36]	; 0x24
    88ba:	f1a3 7650 	sub.w	r6, r3, #54525952	; 0x3400000
    88be:	9609      	str	r6, [sp, #36]	; 0x24
    88c0:	b9ef      	cbnz	r7, 88fe <_dtoa_r+0x49e>
    88c2:	e9dd 0104 	ldrd	r0, r1, [sp, #16]
    88c6:	2200      	movs	r2, #0
    88c8:	4b44      	ldr	r3, [pc, #272]	; (89dc <_dtoa_r+0x57c>)
    88ca:	f007 f94b 	bl	fb64 <__aeabi_dsub>
    88ce:	f8dd e020 	ldr.w	lr, [sp, #32]
    88d2:	4633      	mov	r3, r6
    88d4:	4672      	mov	r2, lr
    88d6:	e9cd 0104 	strd	r0, r1, [sp, #16]
    88da:	f007 fd87 	bl	103ec <__aeabi_dcmpgt>
    88de:	2800      	cmp	r0, #0
    88e0:	f040 8296 	bne.w	8e10 <_dtoa_r+0x9b0>
    88e4:	f8dd e020 	ldr.w	lr, [sp, #32]
    88e8:	f106 4300 	add.w	r3, r6, #2147483648	; 0x80000000
    88ec:	e9dd 0104 	ldrd	r0, r1, [sp, #16]
    88f0:	4672      	mov	r2, lr
    88f2:	f007 fd5d 	bl	103b0 <__aeabi_dcmplt>
    88f6:	2800      	cmp	r0, #0
    88f8:	f040 827e 	bne.w	8df8 <_dtoa_r+0x998>
    88fc:	e0dc      	b.n	8ab8 <_dtoa_r+0x658>
    88fe:	980e      	ldr	r0, [sp, #56]	; 0x38
    8900:	1e7a      	subs	r2, r7, #1
    8902:	4b31      	ldr	r3, [pc, #196]	; (89c8 <_dtoa_r+0x568>)
    8904:	2800      	cmp	r0, #0
    8906:	d06d      	beq.n	89e4 <_dtoa_r+0x584>
    8908:	eb03 03c2 	add.w	r3, r3, r2, lsl #3
    890c:	2000      	movs	r0, #0
    890e:	4934      	ldr	r1, [pc, #208]	; (89e0 <_dtoa_r+0x580>)
    8910:	e9d3 2300 	ldrd	r2, r3, [r3]
    8914:	f007 fc04 	bl	10120 <__aeabi_ddiv>
    8918:	e9dd 2308 	ldrd	r2, r3, [sp, #32]
    891c:	f007 f922 	bl	fb64 <__aeabi_dsub>
    8920:	e9dd 2304 	ldrd	r2, r3, [sp, #16]
    8924:	f8cd b054 	str.w	fp, [sp, #84]	; 0x54
    8928:	46d3      	mov	fp, sl
    892a:	f8cd 805c 	str.w	r8, [sp, #92]	; 0x5c
    892e:	46a2      	mov	sl, r4
    8930:	46a8      	mov	r8, r5
    8932:	4614      	mov	r4, r2
    8934:	461d      	mov	r5, r3
    8936:	f04f 0e00 	mov.w	lr, #0
    893a:	f8cd e010 	str.w	lr, [sp, #16]
    893e:	e9cd 0108 	strd	r0, r1, [sp, #32]
    8942:	990d      	ldr	r1, [sp, #52]	; 0x34
    8944:	9110      	str	r1, [sp, #64]	; 0x40
    8946:	4629      	mov	r1, r5
    8948:	4620      	mov	r0, r4
    894a:	f007 fd59 	bl	10400 <__aeabi_d2iz>
    894e:	4606      	mov	r6, r0
    8950:	f007 fa56 	bl	fe00 <__aeabi_i2d>
    8954:	3630      	adds	r6, #48	; 0x30
    8956:	4602      	mov	r2, r0
    8958:	460b      	mov	r3, r1
    895a:	4620      	mov	r0, r4
    895c:	4629      	mov	r1, r5
    895e:	f007 f901 	bl	fb64 <__aeabi_dsub>
    8962:	9a10      	ldr	r2, [sp, #64]	; 0x40
    8964:	f802 6b01 	strb.w	r6, [r2], #1
    8968:	4616      	mov	r6, r2
    896a:	9210      	str	r2, [sp, #64]	; 0x40
    896c:	e9dd 2308 	ldrd	r2, r3, [sp, #32]
    8970:	4604      	mov	r4, r0
    8972:	460d      	mov	r5, r1
    8974:	f007 fd1c 	bl	103b0 <__aeabi_dcmplt>
    8978:	2800      	cmp	r0, #0
    897a:	f040 835b 	bne.w	9034 <_dtoa_r+0xbd4>
    897e:	4622      	mov	r2, r4
    8980:	462b      	mov	r3, r5
    8982:	2000      	movs	r0, #0
    8984:	4912      	ldr	r1, [pc, #72]	; (89d0 <_dtoa_r+0x570>)
    8986:	f007 f8ed 	bl	fb64 <__aeabi_dsub>
    898a:	e9dd 2308 	ldrd	r2, r3, [sp, #32]
    898e:	f007 fd0f 	bl	103b0 <__aeabi_dcmplt>
    8992:	2800      	cmp	r0, #0
    8994:	f040 8102 	bne.w	8b9c <_dtoa_r+0x73c>
    8998:	9b04      	ldr	r3, [sp, #16]
    899a:	3301      	adds	r3, #1
    899c:	9304      	str	r3, [sp, #16]
    899e:	42bb      	cmp	r3, r7
    89a0:	f280 8083 	bge.w	8aaa <_dtoa_r+0x64a>
    89a4:	e9dd 0108 	ldrd	r0, r1, [sp, #32]
    89a8:	2200      	movs	r2, #0
    89aa:	4b0a      	ldr	r3, [pc, #40]	; (89d4 <_dtoa_r+0x574>)
    89ac:	f007 fa8e 	bl	fecc <__aeabi_dmul>
    89b0:	2200      	movs	r2, #0
    89b2:	4b08      	ldr	r3, [pc, #32]	; (89d4 <_dtoa_r+0x574>)
    89b4:	e9cd 0108 	strd	r0, r1, [sp, #32]
    89b8:	4620      	mov	r0, r4
    89ba:	4629      	mov	r1, r5
    89bc:	f007 fa86 	bl	fecc <__aeabi_dmul>
    89c0:	4604      	mov	r4, r0
    89c2:	460d      	mov	r5, r1
    89c4:	e7bf      	b.n	8946 <_dtoa_r+0x4e6>
    89c6:	bf00      	nop
    89c8:	00011228 	.word	0x00011228
    89cc:	000112f0 	.word	0x000112f0
    89d0:	3ff00000 	.word	0x3ff00000
    89d4:	40240000 	.word	0x40240000
    89d8:	401c0000 	.word	0x401c0000
    89dc:	40140000 	.word	0x40140000
    89e0:	3fe00000 	.word	0x3fe00000
    89e4:	eb03 03c2 	add.w	r3, r3, r2, lsl #3
    89e8:	e9d3 0100 	ldrd	r0, r1, [r3]
    89ec:	e9dd 2308 	ldrd	r2, r3, [sp, #32]
    89f0:	f007 fa6c 	bl	fecc <__aeabi_dmul>
    89f4:	e9dd 2304 	ldrd	r2, r3, [sp, #16]
    89f8:	9e0e      	ldr	r6, [sp, #56]	; 0x38
    89fa:	f8cd b040 	str.w	fp, [sp, #64]	; 0x40
    89fe:	46d3      	mov	fp, sl
    8a00:	f8cd 8054 	str.w	r8, [sp, #84]	; 0x54
    8a04:	46a2      	mov	sl, r4
    8a06:	46a8      	mov	r8, r5
    8a08:	4614      	mov	r4, r2
    8a0a:	461d      	mov	r5, r3
    8a0c:	e9cd 0108 	strd	r0, r1, [sp, #32]
    8a10:	4629      	mov	r1, r5
    8a12:	4620      	mov	r0, r4
    8a14:	f007 fcf4 	bl	10400 <__aeabi_d2iz>
    8a18:	9003      	str	r0, [sp, #12]
    8a1a:	f007 f9f1 	bl	fe00 <__aeabi_i2d>
    8a1e:	4602      	mov	r2, r0
    8a20:	460b      	mov	r3, r1
    8a22:	4620      	mov	r0, r4
    8a24:	4629      	mov	r1, r5
    8a26:	f007 f89d 	bl	fb64 <__aeabi_dsub>
    8a2a:	f8dd e034 	ldr.w	lr, [sp, #52]	; 0x34
    8a2e:	f8dd c00c 	ldr.w	ip, [sp, #12]
    8a32:	f10c 0c30 	add.w	ip, ip, #48	; 0x30
    8a36:	e9cd 0104 	strd	r0, r1, [sp, #16]
    8a3a:	f80e c006 	strb.w	ip, [lr, r6]
    8a3e:	3601      	adds	r6, #1
    8a40:	42be      	cmp	r6, r7
    8a42:	d12b      	bne.n	8a9c <_dtoa_r+0x63c>
    8a44:	2200      	movs	r2, #0
    8a46:	4b81      	ldr	r3, [pc, #516]	; (8c4c <_dtoa_r+0x7ec>)
    8a48:	e9dd 0108 	ldrd	r0, r1, [sp, #32]
    8a4c:	4476      	add	r6, lr
    8a4e:	f007 f88b 	bl	fb68 <__adddf3>
    8a52:	4654      	mov	r4, sl
    8a54:	4645      	mov	r5, r8
    8a56:	46da      	mov	sl, fp
    8a58:	f8dd 8054 	ldr.w	r8, [sp, #84]	; 0x54
    8a5c:	f8dd b040 	ldr.w	fp, [sp, #64]	; 0x40
    8a60:	4602      	mov	r2, r0
    8a62:	460b      	mov	r3, r1
    8a64:	e9dd 0104 	ldrd	r0, r1, [sp, #16]
    8a68:	f007 fcc0 	bl	103ec <__aeabi_dcmpgt>
    8a6c:	2800      	cmp	r0, #0
    8a6e:	f040 8096 	bne.w	8b9e <_dtoa_r+0x73e>
    8a72:	e9dd 2308 	ldrd	r2, r3, [sp, #32]
    8a76:	2000      	movs	r0, #0
    8a78:	4974      	ldr	r1, [pc, #464]	; (8c4c <_dtoa_r+0x7ec>)
    8a7a:	f007 f873 	bl	fb64 <__aeabi_dsub>
    8a7e:	4602      	mov	r2, r0
    8a80:	460b      	mov	r3, r1
    8a82:	e9dd 0104 	ldrd	r0, r1, [sp, #16]
    8a86:	f007 fc93 	bl	103b0 <__aeabi_dcmplt>
    8a8a:	b1a8      	cbz	r0, 8ab8 <_dtoa_r+0x658>
    8a8c:	4633      	mov	r3, r6
    8a8e:	f813 2c01 	ldrb.w	r2, [r3, #-1]
    8a92:	461e      	mov	r6, r3
    8a94:	3b01      	subs	r3, #1
    8a96:	2a30      	cmp	r2, #48	; 0x30
    8a98:	d0f9      	beq.n	8a8e <_dtoa_r+0x62e>
    8a9a:	e2cc      	b.n	9036 <_dtoa_r+0xbd6>
    8a9c:	2200      	movs	r2, #0
    8a9e:	4b6c      	ldr	r3, [pc, #432]	; (8c50 <_dtoa_r+0x7f0>)
    8aa0:	f007 fa14 	bl	fecc <__aeabi_dmul>
    8aa4:	4604      	mov	r4, r0
    8aa6:	460d      	mov	r5, r1
    8aa8:	e7b2      	b.n	8a10 <_dtoa_r+0x5b0>
    8aaa:	4654      	mov	r4, sl
    8aac:	4645      	mov	r5, r8
    8aae:	46da      	mov	sl, fp
    8ab0:	f8dd 805c 	ldr.w	r8, [sp, #92]	; 0x5c
    8ab4:	f8dd b054 	ldr.w	fp, [sp, #84]	; 0x54
    8ab8:	e9dd 2312 	ldrd	r2, r3, [sp, #72]	; 0x48
    8abc:	e9cd 2304 	strd	r2, r3, [sp, #16]
    8ac0:	9a18      	ldr	r2, [sp, #96]	; 0x60
    8ac2:	2a00      	cmp	r2, #0
    8ac4:	f2c0 808a 	blt.w	8bdc <_dtoa_r+0x77c>
    8ac8:	2c0e      	cmp	r4, #14
    8aca:	f300 8087 	bgt.w	8bdc <_dtoa_r+0x77c>
    8ace:	4b61      	ldr	r3, [pc, #388]	; (8c54 <_dtoa_r+0x7f4>)
    8ad0:	eb03 03c4 	add.w	r3, r3, r4, lsl #3
    8ad4:	e9d3 0100 	ldrd	r0, r1, [r3]
    8ad8:	e9cd 0106 	strd	r0, r1, [sp, #24]
    8adc:	9925      	ldr	r1, [sp, #148]	; 0x94
    8ade:	2900      	cmp	r1, #0
    8ae0:	da14      	bge.n	8b0c <_dtoa_r+0x6ac>
    8ae2:	f1ba 0f00 	cmp.w	sl, #0
    8ae6:	dc11      	bgt.n	8b0c <_dtoa_r+0x6ac>
    8ae8:	f040 8188 	bne.w	8dfc <_dtoa_r+0x99c>
    8aec:	2200      	movs	r2, #0
    8aee:	4b5a      	ldr	r3, [pc, #360]	; (8c58 <_dtoa_r+0x7f8>)
    8af0:	e9dd 0106 	ldrd	r0, r1, [sp, #24]
    8af4:	f007 f9ea 	bl	fecc <__aeabi_dmul>
    8af8:	e9dd 2304 	ldrd	r2, r3, [sp, #16]
    8afc:	f007 fc6c 	bl	103d8 <__aeabi_dcmpge>
    8b00:	2800      	cmp	r0, #0
    8b02:	f040 817f 	bne.w	8e04 <_dtoa_r+0x9a4>
    8b06:	46d0      	mov	r8, sl
    8b08:	4657      	mov	r7, sl
    8b0a:	e183      	b.n	8e14 <_dtoa_r+0x9b4>
    8b0c:	e9dd 2304 	ldrd	r2, r3, [sp, #16]
    8b10:	f8dd 8034 	ldr.w	r8, [sp, #52]	; 0x34
    8b14:	469b      	mov	fp, r3
    8b16:	9404      	str	r4, [sp, #16]
    8b18:	44c2      	add	sl, r8
    8b1a:	f8cd a030 	str.w	sl, [sp, #48]	; 0x30
    8b1e:	4692      	mov	sl, r2
    8b20:	e9dd 2306 	ldrd	r2, r3, [sp, #24]
    8b24:	4650      	mov	r0, sl
    8b26:	4659      	mov	r1, fp
    8b28:	4646      	mov	r6, r8
    8b2a:	f007 faf9 	bl	10120 <__aeabi_ddiv>
    8b2e:	f007 fc67 	bl	10400 <__aeabi_d2iz>
    8b32:	4607      	mov	r7, r0
    8b34:	f007 f964 	bl	fe00 <__aeabi_i2d>
    8b38:	e9dd 2306 	ldrd	r2, r3, [sp, #24]
    8b3c:	f007 f9c6 	bl	fecc <__aeabi_dmul>
    8b40:	4602      	mov	r2, r0
    8b42:	460b      	mov	r3, r1
    8b44:	4650      	mov	r0, sl
    8b46:	4659      	mov	r1, fp
    8b48:	f007 f80c 	bl	fb64 <__aeabi_dsub>
    8b4c:	f107 0330 	add.w	r3, r7, #48	; 0x30
    8b50:	f806 3b01 	strb.w	r3, [r6], #1
    8b54:	46b0      	mov	r8, r6
    8b56:	9a0c      	ldr	r2, [sp, #48]	; 0x30
    8b58:	4296      	cmp	r6, r2
    8b5a:	d12d      	bne.n	8bb8 <_dtoa_r+0x758>
    8b5c:	4602      	mov	r2, r0
    8b5e:	460b      	mov	r3, r1
    8b60:	f007 f802 	bl	fb68 <__adddf3>
    8b64:	e9dd 2306 	ldrd	r2, r3, [sp, #24]
    8b68:	9c04      	ldr	r4, [sp, #16]
    8b6a:	4682      	mov	sl, r0
    8b6c:	468b      	mov	fp, r1
    8b6e:	f007 fc3d 	bl	103ec <__aeabi_dcmpgt>
    8b72:	b9a8      	cbnz	r0, 8ba0 <_dtoa_r+0x740>
    8b74:	4650      	mov	r0, sl
    8b76:	4659      	mov	r1, fp
    8b78:	e9dd 2306 	ldrd	r2, r3, [sp, #24]
    8b7c:	f007 fc0e 	bl	1039c <__aeabi_dcmpeq>
    8b80:	2800      	cmp	r0, #0
    8b82:	f000 8259 	beq.w	9038 <_dtoa_r+0xbd8>
    8b86:	f017 0f01 	tst.w	r7, #1
    8b8a:	d109      	bne.n	8ba0 <_dtoa_r+0x740>
    8b8c:	e254      	b.n	9038 <_dtoa_r+0xbd8>
    8b8e:	980d      	ldr	r0, [sp, #52]	; 0x34
    8b90:	4282      	cmp	r2, r0
    8b92:	d106      	bne.n	8ba2 <_dtoa_r+0x742>
    8b94:	2230      	movs	r2, #48	; 0x30
    8b96:	3401      	adds	r4, #1
    8b98:	7002      	strb	r2, [r0, #0]
    8b9a:	e009      	b.n	8bb0 <_dtoa_r+0x750>
    8b9c:	4645      	mov	r5, r8
    8b9e:	9c0a      	ldr	r4, [sp, #40]	; 0x28
    8ba0:	4632      	mov	r2, r6
    8ba2:	f812 1c01 	ldrb.w	r1, [r2, #-1]
    8ba6:	1e53      	subs	r3, r2, #1
    8ba8:	4616      	mov	r6, r2
    8baa:	461a      	mov	r2, r3
    8bac:	2939      	cmp	r1, #57	; 0x39
    8bae:	d0ee      	beq.n	8b8e <_dtoa_r+0x72e>
    8bb0:	781a      	ldrb	r2, [r3, #0]
    8bb2:	3201      	adds	r2, #1
    8bb4:	701a      	strb	r2, [r3, #0]
    8bb6:	e23f      	b.n	9038 <_dtoa_r+0xbd8>
    8bb8:	2200      	movs	r2, #0
    8bba:	4b25      	ldr	r3, [pc, #148]	; (8c50 <_dtoa_r+0x7f0>)
    8bbc:	f007 f986 	bl	fecc <__aeabi_dmul>
    8bc0:	2200      	movs	r2, #0
    8bc2:	2300      	movs	r3, #0
    8bc4:	2401      	movs	r4, #1
    8bc6:	4682      	mov	sl, r0
    8bc8:	468b      	mov	fp, r1
    8bca:	f007 fbe7 	bl	1039c <__aeabi_dcmpeq>
    8bce:	b100      	cbz	r0, 8bd2 <_dtoa_r+0x772>
    8bd0:	2400      	movs	r4, #0
    8bd2:	f014 0fff 	tst.w	r4, #255	; 0xff
    8bd6:	d1a3      	bne.n	8b20 <_dtoa_r+0x6c0>
    8bd8:	9c04      	ldr	r4, [sp, #16]
    8bda:	e22d      	b.n	9038 <_dtoa_r+0xbd8>
    8bdc:	990e      	ldr	r1, [sp, #56]	; 0x38
    8bde:	2900      	cmp	r1, #0
    8be0:	d03c      	beq.n	8c5c <_dtoa_r+0x7fc>
    8be2:	9b24      	ldr	r3, [sp, #144]	; 0x90
    8be4:	2b01      	cmp	r3, #1
    8be6:	dc0b      	bgt.n	8c00 <_dtoa_r+0x7a0>
    8be8:	9816      	ldr	r0, [sp, #88]	; 0x58
    8bea:	b118      	cbz	r0, 8bf4 <_dtoa_r+0x794>
    8bec:	f502 6286 	add.w	r2, r2, #1072	; 0x430
    8bf0:	3203      	adds	r2, #3
    8bf2:	e002      	b.n	8bfa <_dtoa_r+0x79a>
    8bf4:	9a19      	ldr	r2, [sp, #100]	; 0x64
    8bf6:	f1c2 0236 	rsb	r2, r2, #54	; 0x36
    8bfa:	4643      	mov	r3, r8
    8bfc:	465e      	mov	r6, fp
    8bfe:	e016      	b.n	8c2e <_dtoa_r+0x7ce>
    8c00:	f10a 33ff 	add.w	r3, sl, #4294967295
    8c04:	4598      	cmp	r8, r3
    8c06:	db02      	blt.n	8c0e <_dtoa_r+0x7ae>
    8c08:	ebc3 0308 	rsb	r3, r3, r8
    8c0c:	e006      	b.n	8c1c <_dtoa_r+0x7bc>
    8c0e:	990f      	ldr	r1, [sp, #60]	; 0x3c
    8c10:	ebc8 0303 	rsb	r3, r8, r3
    8c14:	4498      	add	r8, r3
    8c16:	18c9      	adds	r1, r1, r3
    8c18:	2300      	movs	r3, #0
    8c1a:	910f      	str	r1, [sp, #60]	; 0x3c
    8c1c:	f1ba 0f00 	cmp.w	sl, #0
    8c20:	da03      	bge.n	8c2a <_dtoa_r+0x7ca>
    8c22:	ebca 060b 	rsb	r6, sl, fp
    8c26:	2200      	movs	r2, #0
    8c28:	e001      	b.n	8c2e <_dtoa_r+0x7ce>
    8c2a:	465e      	mov	r6, fp
    8c2c:	4652      	mov	r2, sl
    8c2e:	f8dd e018 	ldr.w	lr, [sp, #24]
    8c32:	4628      	mov	r0, r5
    8c34:	2101      	movs	r1, #1
    8c36:	9302      	str	r3, [sp, #8]
    8c38:	4496      	add	lr, r2
    8c3a:	4493      	add	fp, r2
    8c3c:	f8cd e018 	str.w	lr, [sp, #24]
    8c40:	f001 f9eb 	bl	a01a <__i2b>
    8c44:	9b02      	ldr	r3, [sp, #8]
    8c46:	4607      	mov	r7, r0
    8c48:	e00b      	b.n	8c62 <_dtoa_r+0x802>
    8c4a:	bf00      	nop
    8c4c:	3fe00000 	.word	0x3fe00000
    8c50:	40240000 	.word	0x40240000
    8c54:	00011228 	.word	0x00011228
    8c58:	40140000 	.word	0x40140000
    8c5c:	9f0e      	ldr	r7, [sp, #56]	; 0x38
    8c5e:	4643      	mov	r3, r8
    8c60:	465e      	mov	r6, fp
    8c62:	b15e      	cbz	r6, 8c7c <_dtoa_r+0x81c>
    8c64:	9806      	ldr	r0, [sp, #24]
    8c66:	2800      	cmp	r0, #0
    8c68:	dd08      	ble.n	8c7c <_dtoa_r+0x81c>
    8c6a:	4602      	mov	r2, r0
    8c6c:	42b2      	cmp	r2, r6
    8c6e:	bfa8      	it	ge
    8c70:	4632      	movge	r2, r6
    8c72:	ebc2 0b0b 	rsb	fp, r2, fp
    8c76:	1ab6      	subs	r6, r6, r2
    8c78:	1a80      	subs	r0, r0, r2
    8c7a:	9006      	str	r0, [sp, #24]
    8c7c:	f1b8 0f00 	cmp.w	r8, #0
    8c80:	dd24      	ble.n	8ccc <_dtoa_r+0x86c>
    8c82:	990e      	ldr	r1, [sp, #56]	; 0x38
    8c84:	b1e1      	cbz	r1, 8cc0 <_dtoa_r+0x860>
    8c86:	2b00      	cmp	r3, #0
    8c88:	dd14      	ble.n	8cb4 <_dtoa_r+0x854>
    8c8a:	461a      	mov	r2, r3
    8c8c:	4639      	mov	r1, r7
    8c8e:	4628      	mov	r0, r5
    8c90:	9302      	str	r3, [sp, #8]
    8c92:	f001 fa5d 	bl	a150 <__pow5mult>
    8c96:	464a      	mov	r2, r9
    8c98:	4607      	mov	r7, r0
    8c9a:	4628      	mov	r0, r5
    8c9c:	4639      	mov	r1, r7
    8c9e:	f001 f9c5 	bl	a02c <__multiply>
    8ca2:	4649      	mov	r1, r9
    8ca4:	4602      	mov	r2, r0
    8ca6:	4628      	mov	r0, r5
    8ca8:	9203      	str	r2, [sp, #12]
    8caa:	f001 f8d1 	bl	9e50 <_Bfree>
    8cae:	9a03      	ldr	r2, [sp, #12]
    8cb0:	9b02      	ldr	r3, [sp, #8]
    8cb2:	4691      	mov	r9, r2
    8cb4:	ebb8 0203 	subs.w	r2, r8, r3
    8cb8:	d008      	beq.n	8ccc <_dtoa_r+0x86c>
    8cba:	4628      	mov	r0, r5
    8cbc:	4649      	mov	r1, r9
    8cbe:	e002      	b.n	8cc6 <_dtoa_r+0x866>
    8cc0:	4628      	mov	r0, r5
    8cc2:	4649      	mov	r1, r9
    8cc4:	4642      	mov	r2, r8
    8cc6:	f001 fa43 	bl	a150 <__pow5mult>
    8cca:	4681      	mov	r9, r0
    8ccc:	2101      	movs	r1, #1
    8cce:	4628      	mov	r0, r5
    8cd0:	f001 f9a3 	bl	a01a <__i2b>
    8cd4:	9a0f      	ldr	r2, [sp, #60]	; 0x3c
    8cd6:	2a00      	cmp	r2, #0
    8cd8:	4680      	mov	r8, r0
    8cda:	dd04      	ble.n	8ce6 <_dtoa_r+0x886>
    8cdc:	4641      	mov	r1, r8
    8cde:	4628      	mov	r0, r5
    8ce0:	f001 fa36 	bl	a150 <__pow5mult>
    8ce4:	4680      	mov	r8, r0
    8ce6:	9b24      	ldr	r3, [sp, #144]	; 0x90
    8ce8:	2b01      	cmp	r3, #1
    8cea:	dc13      	bgt.n	8d14 <_dtoa_r+0x8b4>
    8cec:	9804      	ldr	r0, [sp, #16]
    8cee:	b998      	cbnz	r0, 8d18 <_dtoa_r+0x8b8>
    8cf0:	9a05      	ldr	r2, [sp, #20]
    8cf2:	f022 437f 	bic.w	r3, r2, #4278190080	; 0xff000000
    8cf6:	f423 0370 	bic.w	r3, r3, #15728640	; 0xf00000
    8cfa:	b983      	cbnz	r3, 8d1e <_dtoa_r+0x8be>
    8cfc:	4b8c      	ldr	r3, [pc, #560]	; (8f30 <_dtoa_r+0xad0>)
    8cfe:	ea02 0303 	and.w	r3, r2, r3
    8d02:	b17b      	cbz	r3, 8d24 <_dtoa_r+0x8c4>
    8d04:	9906      	ldr	r1, [sp, #24]
    8d06:	2201      	movs	r2, #1
    8d08:	f10b 0b01 	add.w	fp, fp, #1
    8d0c:	920a      	str	r2, [sp, #40]	; 0x28
    8d0e:	3101      	adds	r1, #1
    8d10:	9106      	str	r1, [sp, #24]
    8d12:	e008      	b.n	8d26 <_dtoa_r+0x8c6>
    8d14:	2300      	movs	r3, #0
    8d16:	e005      	b.n	8d24 <_dtoa_r+0x8c4>
    8d18:	2000      	movs	r0, #0
    8d1a:	900a      	str	r0, [sp, #40]	; 0x28
    8d1c:	e003      	b.n	8d26 <_dtoa_r+0x8c6>
    8d1e:	9904      	ldr	r1, [sp, #16]
    8d20:	910a      	str	r1, [sp, #40]	; 0x28
    8d22:	e000      	b.n	8d26 <_dtoa_r+0x8c6>
    8d24:	930a      	str	r3, [sp, #40]	; 0x28
    8d26:	9a0f      	ldr	r2, [sp, #60]	; 0x3c
    8d28:	b14a      	cbz	r2, 8d3e <_dtoa_r+0x8de>
    8d2a:	f8d8 3010 	ldr.w	r3, [r8, #16]
    8d2e:	eb08 0383 	add.w	r3, r8, r3, lsl #2
    8d32:	6918      	ldr	r0, [r3, #16]
    8d34:	f001 f91f 	bl	9f76 <__hi0bits>
    8d38:	f1c0 0320 	rsb	r3, r0, #32
    8d3c:	e000      	b.n	8d40 <_dtoa_r+0x8e0>
    8d3e:	2301      	movs	r3, #1
    8d40:	f8dd e018 	ldr.w	lr, [sp, #24]
    8d44:	4473      	add	r3, lr
    8d46:	f013 031f 	ands.w	r3, r3, #31
    8d4a:	d00b      	beq.n	8d64 <_dtoa_r+0x904>
    8d4c:	f1c3 0320 	rsb	r3, r3, #32
    8d50:	2b04      	cmp	r3, #4
    8d52:	dd06      	ble.n	8d62 <_dtoa_r+0x902>
    8d54:	3b04      	subs	r3, #4
    8d56:	449e      	add	lr, r3
    8d58:	449b      	add	fp, r3
    8d5a:	18f6      	adds	r6, r6, r3
    8d5c:	f8cd e018 	str.w	lr, [sp, #24]
    8d60:	e006      	b.n	8d70 <_dtoa_r+0x910>
    8d62:	d005      	beq.n	8d70 <_dtoa_r+0x910>
    8d64:	331c      	adds	r3, #28
    8d66:	9806      	ldr	r0, [sp, #24]
    8d68:	449b      	add	fp, r3
    8d6a:	18f6      	adds	r6, r6, r3
    8d6c:	18c0      	adds	r0, r0, r3
    8d6e:	9006      	str	r0, [sp, #24]
    8d70:	f1bb 0f00 	cmp.w	fp, #0
    8d74:	dd05      	ble.n	8d82 <_dtoa_r+0x922>
    8d76:	4649      	mov	r1, r9
    8d78:	4628      	mov	r0, r5
    8d7a:	465a      	mov	r2, fp
    8d7c:	f001 fa3a 	bl	a1f4 <__lshift>
    8d80:	4681      	mov	r9, r0
    8d82:	9906      	ldr	r1, [sp, #24]
    8d84:	2900      	cmp	r1, #0
    8d86:	dd05      	ble.n	8d94 <_dtoa_r+0x934>
    8d88:	4641      	mov	r1, r8
    8d8a:	4628      	mov	r0, r5
    8d8c:	9a06      	ldr	r2, [sp, #24]
    8d8e:	f001 fa31 	bl	a1f4 <__lshift>
    8d92:	4680      	mov	r8, r0
    8d94:	9a11      	ldr	r2, [sp, #68]	; 0x44
    8d96:	b1c2      	cbz	r2, 8dca <_dtoa_r+0x96a>
    8d98:	4648      	mov	r0, r9
    8d9a:	4641      	mov	r1, r8
    8d9c:	f001 fa76 	bl	a28c <__mcmp>
    8da0:	2800      	cmp	r0, #0
    8da2:	da12      	bge.n	8dca <_dtoa_r+0x96a>
    8da4:	4649      	mov	r1, r9
    8da6:	2300      	movs	r3, #0
    8da8:	4628      	mov	r0, r5
    8daa:	220a      	movs	r2, #10
    8dac:	f001 f867 	bl	9e7e <__multadd>
    8db0:	9b0e      	ldr	r3, [sp, #56]	; 0x38
    8db2:	3c01      	subs	r4, #1
    8db4:	4681      	mov	r9, r0
    8db6:	b133      	cbz	r3, 8dc6 <_dtoa_r+0x966>
    8db8:	4639      	mov	r1, r7
    8dba:	4628      	mov	r0, r5
    8dbc:	220a      	movs	r2, #10
    8dbe:	2300      	movs	r3, #0
    8dc0:	f001 f85d 	bl	9e7e <__multadd>
    8dc4:	4607      	mov	r7, r0
    8dc6:	f8dd a030 	ldr.w	sl, [sp, #48]	; 0x30
    8dca:	f1ba 0f00 	cmp.w	sl, #0
    8dce:	dc29      	bgt.n	8e24 <_dtoa_r+0x9c4>
    8dd0:	9824      	ldr	r0, [sp, #144]	; 0x90
    8dd2:	2802      	cmp	r0, #2
    8dd4:	dd26      	ble.n	8e24 <_dtoa_r+0x9c4>
    8dd6:	f1ba 0f00 	cmp.w	sl, #0
    8dda:	d115      	bne.n	8e08 <_dtoa_r+0x9a8>
    8ddc:	4641      	mov	r1, r8
    8dde:	2205      	movs	r2, #5
    8de0:	4653      	mov	r3, sl
    8de2:	4628      	mov	r0, r5
    8de4:	f001 f84b 	bl	9e7e <__multadd>
    8de8:	4680      	mov	r8, r0
    8dea:	4648      	mov	r0, r9
    8dec:	4641      	mov	r1, r8
    8dee:	f001 fa4d 	bl	a28c <__mcmp>
    8df2:	2800      	cmp	r0, #0
    8df4:	dc0e      	bgt.n	8e14 <_dtoa_r+0x9b4>
    8df6:	e007      	b.n	8e08 <_dtoa_r+0x9a8>
    8df8:	46b8      	mov	r8, r7
    8dfa:	e005      	b.n	8e08 <_dtoa_r+0x9a8>
    8dfc:	f04f 0800 	mov.w	r8, #0
    8e00:	4647      	mov	r7, r8
    8e02:	e001      	b.n	8e08 <_dtoa_r+0x9a8>
    8e04:	46d0      	mov	r8, sl
    8e06:	4657      	mov	r7, sl
    8e08:	9925      	ldr	r1, [sp, #148]	; 0x94
    8e0a:	9e0d      	ldr	r6, [sp, #52]	; 0x34
    8e0c:	43cc      	mvns	r4, r1
    8e0e:	e006      	b.n	8e1e <_dtoa_r+0x9be>
    8e10:	9c0a      	ldr	r4, [sp, #40]	; 0x28
    8e12:	46b8      	mov	r8, r7
    8e14:	9e0d      	ldr	r6, [sp, #52]	; 0x34
    8e16:	3401      	adds	r4, #1
    8e18:	2331      	movs	r3, #49	; 0x31
    8e1a:	f806 3b01 	strb.w	r3, [r6], #1
    8e1e:	f04f 0a00 	mov.w	sl, #0
    8e22:	e0f4      	b.n	900e <_dtoa_r+0xbae>
    8e24:	9a0e      	ldr	r2, [sp, #56]	; 0x38
    8e26:	2a00      	cmp	r2, #0
    8e28:	f000 80aa 	beq.w	8f80 <_dtoa_r+0xb20>
    8e2c:	2e00      	cmp	r6, #0
    8e2e:	dd05      	ble.n	8e3c <_dtoa_r+0x9dc>
    8e30:	4639      	mov	r1, r7
    8e32:	4628      	mov	r0, r5
    8e34:	4632      	mov	r2, r6
    8e36:	f001 f9dd 	bl	a1f4 <__lshift>
    8e3a:	4607      	mov	r7, r0
    8e3c:	9b0a      	ldr	r3, [sp, #40]	; 0x28
    8e3e:	b193      	cbz	r3, 8e66 <_dtoa_r+0xa06>
    8e40:	6879      	ldr	r1, [r7, #4]
    8e42:	4628      	mov	r0, r5
    8e44:	f000 ffd3 	bl	9dee <_Balloc>
    8e48:	693a      	ldr	r2, [r7, #16]
    8e4a:	f107 010c 	add.w	r1, r7, #12
    8e4e:	3202      	adds	r2, #2
    8e50:	0092      	lsls	r2, r2, #2
    8e52:	4606      	mov	r6, r0
    8e54:	300c      	adds	r0, #12
    8e56:	f000 ffb5 	bl	9dc4 <memcpy>
    8e5a:	4628      	mov	r0, r5
    8e5c:	4631      	mov	r1, r6
    8e5e:	2201      	movs	r2, #1
    8e60:	f001 f9c8 	bl	a1f4 <__lshift>
    8e64:	e000      	b.n	8e68 <_dtoa_r+0xa08>
    8e66:	4638      	mov	r0, r7
    8e68:	9e0d      	ldr	r6, [sp, #52]	; 0x34
    8e6a:	9406      	str	r4, [sp, #24]
    8e6c:	44b2      	add	sl, r6
    8e6e:	f8cd a038 	str.w	sl, [sp, #56]	; 0x38
    8e72:	46ba      	mov	sl, r7
    8e74:	4607      	mov	r7, r0
    8e76:	4641      	mov	r1, r8
    8e78:	4648      	mov	r0, r9
    8e7a:	f7ff fa5d 	bl	8338 <quorem>
    8e7e:	4651      	mov	r1, sl
    8e80:	f100 0b30 	add.w	fp, r0, #48	; 0x30
    8e84:	4648      	mov	r0, r9
    8e86:	f001 fa01 	bl	a28c <__mcmp>
    8e8a:	463a      	mov	r2, r7
    8e8c:	4641      	mov	r1, r8
    8e8e:	900c      	str	r0, [sp, #48]	; 0x30
    8e90:	4628      	mov	r0, r5
    8e92:	f001 fa18 	bl	a2c6 <__mdiff>
    8e96:	68c2      	ldr	r2, [r0, #12]
    8e98:	4603      	mov	r3, r0
    8e9a:	b93a      	cbnz	r2, 8eac <_dtoa_r+0xa4c>
    8e9c:	4619      	mov	r1, r3
    8e9e:	4648      	mov	r0, r9
    8ea0:	9302      	str	r3, [sp, #8]
    8ea2:	f001 f9f3 	bl	a28c <__mcmp>
    8ea6:	9b02      	ldr	r3, [sp, #8]
    8ea8:	4604      	mov	r4, r0
    8eaa:	e000      	b.n	8eae <_dtoa_r+0xa4e>
    8eac:	2401      	movs	r4, #1
    8eae:	4628      	mov	r0, r5
    8eb0:	4619      	mov	r1, r3
    8eb2:	f000 ffcd 	bl	9e50 <_Bfree>
    8eb6:	b96c      	cbnz	r4, 8ed4 <_dtoa_r+0xa74>
    8eb8:	9824      	ldr	r0, [sp, #144]	; 0x90
    8eba:	b958      	cbnz	r0, 8ed4 <_dtoa_r+0xa74>
    8ebc:	9904      	ldr	r1, [sp, #16]
    8ebe:	f001 0301 	and.w	r3, r1, #1
    8ec2:	b93b      	cbnz	r3, 8ed4 <_dtoa_r+0xa74>
    8ec4:	f1bb 0f39 	cmp.w	fp, #57	; 0x39
    8ec8:	9c06      	ldr	r4, [sp, #24]
    8eca:	d027      	beq.n	8f1c <_dtoa_r+0xabc>
    8ecc:	9a0c      	ldr	r2, [sp, #48]	; 0x30
    8ece:	2a00      	cmp	r2, #0
    8ed0:	dc29      	bgt.n	8f26 <_dtoa_r+0xac6>
    8ed2:	e02a      	b.n	8f2a <_dtoa_r+0xaca>
    8ed4:	9b0c      	ldr	r3, [sp, #48]	; 0x30
    8ed6:	2b00      	cmp	r3, #0
    8ed8:	db06      	blt.n	8ee8 <_dtoa_r+0xa88>
    8eda:	d119      	bne.n	8f10 <_dtoa_r+0xab0>
    8edc:	9824      	ldr	r0, [sp, #144]	; 0x90
    8ede:	b9b8      	cbnz	r0, 8f10 <_dtoa_r+0xab0>
    8ee0:	9904      	ldr	r1, [sp, #16]
    8ee2:	f001 0301 	and.w	r3, r1, #1
    8ee6:	b99b      	cbnz	r3, 8f10 <_dtoa_r+0xab0>
    8ee8:	4622      	mov	r2, r4
    8eea:	9c06      	ldr	r4, [sp, #24]
    8eec:	2a00      	cmp	r2, #0
    8eee:	dd1c      	ble.n	8f2a <_dtoa_r+0xaca>
    8ef0:	4649      	mov	r1, r9
    8ef2:	2201      	movs	r2, #1
    8ef4:	4628      	mov	r0, r5
    8ef6:	f001 f97d 	bl	a1f4 <__lshift>
    8efa:	4641      	mov	r1, r8
    8efc:	4681      	mov	r9, r0
    8efe:	f001 f9c5 	bl	a28c <__mcmp>
    8f02:	2800      	cmp	r0, #0
    8f04:	dc07      	bgt.n	8f16 <_dtoa_r+0xab6>
    8f06:	d110      	bne.n	8f2a <_dtoa_r+0xaca>
    8f08:	f01b 0f01 	tst.w	fp, #1
    8f0c:	d00d      	beq.n	8f2a <_dtoa_r+0xaca>
    8f0e:	e002      	b.n	8f16 <_dtoa_r+0xab6>
    8f10:	2c00      	cmp	r4, #0
    8f12:	dd0f      	ble.n	8f34 <_dtoa_r+0xad4>
    8f14:	9c06      	ldr	r4, [sp, #24]
    8f16:	f1bb 0f39 	cmp.w	fp, #57	; 0x39
    8f1a:	d104      	bne.n	8f26 <_dtoa_r+0xac6>
    8f1c:	4633      	mov	r3, r6
    8f1e:	2239      	movs	r2, #57	; 0x39
    8f20:	f803 2b01 	strb.w	r2, [r3], #1
    8f24:	e065      	b.n	8ff2 <_dtoa_r+0xb92>
    8f26:	f10b 0b01 	add.w	fp, fp, #1
    8f2a:	f806 bb01 	strb.w	fp, [r6], #1
    8f2e:	e06e      	b.n	900e <_dtoa_r+0xbae>
    8f30:	7ff00000 	.word	0x7ff00000
    8f34:	f806 bb01 	strb.w	fp, [r6], #1
    8f38:	4633      	mov	r3, r6
    8f3a:	9a0e      	ldr	r2, [sp, #56]	; 0x38
    8f3c:	4296      	cmp	r6, r2
    8f3e:	d03e      	beq.n	8fbe <_dtoa_r+0xb5e>
    8f40:	4649      	mov	r1, r9
    8f42:	220a      	movs	r2, #10
    8f44:	2300      	movs	r3, #0
    8f46:	4628      	mov	r0, r5
    8f48:	f000 ff99 	bl	9e7e <__multadd>
    8f4c:	45ba      	cmp	sl, r7
    8f4e:	4681      	mov	r9, r0
    8f50:	d107      	bne.n	8f62 <_dtoa_r+0xb02>
    8f52:	4651      	mov	r1, sl
    8f54:	4628      	mov	r0, r5
    8f56:	220a      	movs	r2, #10
    8f58:	2300      	movs	r3, #0
    8f5a:	f000 ff90 	bl	9e7e <__multadd>
    8f5e:	4682      	mov	sl, r0
    8f60:	e00c      	b.n	8f7c <_dtoa_r+0xb1c>
    8f62:	4651      	mov	r1, sl
    8f64:	220a      	movs	r2, #10
    8f66:	2300      	movs	r3, #0
    8f68:	4628      	mov	r0, r5
    8f6a:	f000 ff88 	bl	9e7e <__multadd>
    8f6e:	4639      	mov	r1, r7
    8f70:	220a      	movs	r2, #10
    8f72:	2300      	movs	r3, #0
    8f74:	4682      	mov	sl, r0
    8f76:	4628      	mov	r0, r5
    8f78:	f000 ff81 	bl	9e7e <__multadd>
    8f7c:	4607      	mov	r7, r0
    8f7e:	e77a      	b.n	8e76 <_dtoa_r+0xa16>
    8f80:	f04f 0c01 	mov.w	ip, #1
    8f84:	9e0d      	ldr	r6, [sp, #52]	; 0x34
    8f86:	46cb      	mov	fp, r9
    8f88:	46a1      	mov	r9, r4
    8f8a:	4664      	mov	r4, ip
    8f8c:	4658      	mov	r0, fp
    8f8e:	4641      	mov	r1, r8
    8f90:	f7ff f9d2 	bl	8338 <quorem>
    8f94:	3030      	adds	r0, #48	; 0x30
    8f96:	4554      	cmp	r4, sl
    8f98:	f806 0b01 	strb.w	r0, [r6], #1
    8f9c:	4633      	mov	r3, r6
    8f9e:	da08      	bge.n	8fb2 <_dtoa_r+0xb52>
    8fa0:	4659      	mov	r1, fp
    8fa2:	4628      	mov	r0, r5
    8fa4:	220a      	movs	r2, #10
    8fa6:	2300      	movs	r3, #0
    8fa8:	f000 ff69 	bl	9e7e <__multadd>
    8fac:	3401      	adds	r4, #1
    8fae:	4683      	mov	fp, r0
    8fb0:	e7ec      	b.n	8f8c <_dtoa_r+0xb2c>
    8fb2:	464c      	mov	r4, r9
    8fb4:	f04f 0a00 	mov.w	sl, #0
    8fb8:	46d9      	mov	r9, fp
    8fba:	4683      	mov	fp, r0
    8fbc:	e000      	b.n	8fc0 <_dtoa_r+0xb60>
    8fbe:	9c06      	ldr	r4, [sp, #24]
    8fc0:	4649      	mov	r1, r9
    8fc2:	2201      	movs	r2, #1
    8fc4:	4628      	mov	r0, r5
    8fc6:	9302      	str	r3, [sp, #8]
    8fc8:	f001 f914 	bl	a1f4 <__lshift>
    8fcc:	4641      	mov	r1, r8
    8fce:	4681      	mov	r9, r0
    8fd0:	f001 f95c 	bl	a28c <__mcmp>
    8fd4:	9b02      	ldr	r3, [sp, #8]
    8fd6:	2800      	cmp	r0, #0
    8fd8:	dc0b      	bgt.n	8ff2 <_dtoa_r+0xb92>
    8fda:	d113      	bne.n	9004 <_dtoa_r+0xba4>
    8fdc:	f01b 0f01 	tst.w	fp, #1
    8fe0:	d107      	bne.n	8ff2 <_dtoa_r+0xb92>
    8fe2:	e00f      	b.n	9004 <_dtoa_r+0xba4>
    8fe4:	980d      	ldr	r0, [sp, #52]	; 0x34
    8fe6:	4283      	cmp	r3, r0
    8fe8:	d103      	bne.n	8ff2 <_dtoa_r+0xb92>
    8fea:	2331      	movs	r3, #49	; 0x31
    8fec:	3401      	adds	r4, #1
    8fee:	7003      	strb	r3, [r0, #0]
    8ff0:	e00d      	b.n	900e <_dtoa_r+0xbae>
    8ff2:	f813 2c01 	ldrb.w	r2, [r3, #-1]
    8ff6:	461e      	mov	r6, r3
    8ff8:	3b01      	subs	r3, #1
    8ffa:	2a39      	cmp	r2, #57	; 0x39
    8ffc:	d0f2      	beq.n	8fe4 <_dtoa_r+0xb84>
    8ffe:	3201      	adds	r2, #1
    9000:	701a      	strb	r2, [r3, #0]
    9002:	e004      	b.n	900e <_dtoa_r+0xbae>
    9004:	461e      	mov	r6, r3
    9006:	f813 2d01 	ldrb.w	r2, [r3, #-1]!
    900a:	2a30      	cmp	r2, #48	; 0x30
    900c:	d0fa      	beq.n	9004 <_dtoa_r+0xba4>
    900e:	4628      	mov	r0, r5
    9010:	4641      	mov	r1, r8
    9012:	f000 ff1d 	bl	9e50 <_Bfree>
    9016:	b17f      	cbz	r7, 9038 <_dtoa_r+0xbd8>
    9018:	f1ba 0f00 	cmp.w	sl, #0
    901c:	d005      	beq.n	902a <_dtoa_r+0xbca>
    901e:	45ba      	cmp	sl, r7
    9020:	d003      	beq.n	902a <_dtoa_r+0xbca>
    9022:	4628      	mov	r0, r5
    9024:	4651      	mov	r1, sl
    9026:	f000 ff13 	bl	9e50 <_Bfree>
    902a:	4628      	mov	r0, r5
    902c:	4639      	mov	r1, r7
    902e:	f000 ff0f 	bl	9e50 <_Bfree>
    9032:	e001      	b.n	9038 <_dtoa_r+0xbd8>
    9034:	4645      	mov	r5, r8
    9036:	9c0a      	ldr	r4, [sp, #40]	; 0x28
    9038:	4649      	mov	r1, r9
    903a:	4628      	mov	r0, r5
    903c:	f000 ff08 	bl	9e50 <_Bfree>
    9040:	2300      	movs	r3, #0
    9042:	7033      	strb	r3, [r6, #0]
    9044:	3401      	adds	r4, #1
    9046:	9926      	ldr	r1, [sp, #152]	; 0x98
    9048:	9a28      	ldr	r2, [sp, #160]	; 0xa0
    904a:	600c      	str	r4, [r1, #0]
    904c:	b11a      	cbz	r2, 9056 <_dtoa_r+0xbf6>
    904e:	6016      	str	r6, [r2, #0]
    9050:	e001      	b.n	9056 <_dtoa_r+0xbf6>
    9052:	4803      	ldr	r0, [pc, #12]	; (9060 <_dtoa_r+0xc00>)
    9054:	e000      	b.n	9058 <_dtoa_r+0xbf8>
    9056:	980d      	ldr	r0, [sp, #52]	; 0x34
    9058:	b01b      	add	sp, #108	; 0x6c
    905a:	e8bd 8ff0 	ldmia.w	sp!, {r4, r5, r6, r7, r8, r9, sl, fp, pc}
    905e:	bf00      	nop
    9060:	0001105e 	.word	0x0001105e
    9064:	f3af 8000 	nop.w

00009068 <_fflush_r>:
    9068:	e92d 41f0 	stmdb	sp!, {r4, r5, r6, r7, r8, lr}
    906c:	4605      	mov	r5, r0
    906e:	690e      	ldr	r6, [r1, #16]
    9070:	460c      	mov	r4, r1
    9072:	2e00      	cmp	r6, #0
    9074:	f000 80a7 	beq.w	91c6 <_fflush_r+0x15e>
    9078:	b118      	cbz	r0, 9082 <_fflush_r+0x1a>
    907a:	6983      	ldr	r3, [r0, #24]
    907c:	b90b      	cbnz	r3, 9082 <_fflush_r+0x1a>
    907e:	f000 f907 	bl	9290 <__sinit>
    9082:	4b52      	ldr	r3, [pc, #328]	; (91cc <_fflush_r+0x164>)
    9084:	429c      	cmp	r4, r3
    9086:	d101      	bne.n	908c <_fflush_r+0x24>
    9088:	686c      	ldr	r4, [r5, #4]
    908a:	e008      	b.n	909e <_fflush_r+0x36>
    908c:	4b50      	ldr	r3, [pc, #320]	; (91d0 <_fflush_r+0x168>)
    908e:	429c      	cmp	r4, r3
    9090:	d101      	bne.n	9096 <_fflush_r+0x2e>
    9092:	68ac      	ldr	r4, [r5, #8]
    9094:	e003      	b.n	909e <_fflush_r+0x36>
    9096:	4b4f      	ldr	r3, [pc, #316]	; (91d4 <_fflush_r+0x16c>)
    9098:	429c      	cmp	r4, r3
    909a:	bf08      	it	eq
    909c:	68ec      	ldreq	r4, [r5, #12]
    909e:	89a2      	ldrh	r2, [r4, #12]
    90a0:	2a00      	cmp	r2, #0
    90a2:	f000 808d 	beq.w	91c0 <_fflush_r+0x158>
    90a6:	b213      	sxth	r3, r2
    90a8:	f013 0608 	ands.w	r6, r3, #8
    90ac:	d163      	bne.n	9176 <_fflush_r+0x10e>
    90ae:	f442 6300 	orr.w	r3, r2, #2048	; 0x800
    90b2:	6862      	ldr	r2, [r4, #4]
    90b4:	81a3      	strh	r3, [r4, #12]
    90b6:	2a00      	cmp	r2, #0
    90b8:	dc03      	bgt.n	90c2 <_fflush_r+0x5a>
    90ba:	6c22      	ldr	r2, [r4, #64]	; 0x40
    90bc:	2a00      	cmp	r2, #0
    90be:	f340 8082 	ble.w	91c6 <_fflush_r+0x15e>
    90c2:	6ae6      	ldr	r6, [r4, #44]	; 0x2c
    90c4:	2e00      	cmp	r6, #0
    90c6:	d07e      	beq.n	91c6 <_fflush_r+0x15e>
    90c8:	2200      	movs	r2, #0
    90ca:	682f      	ldr	r7, [r5, #0]
    90cc:	602a      	str	r2, [r5, #0]
    90ce:	f413 5280 	ands.w	r2, r3, #4096	; 0x1000
    90d2:	d001      	beq.n	90d8 <_fflush_r+0x70>
    90d4:	6d62      	ldr	r2, [r4, #84]	; 0x54
    90d6:	e015      	b.n	9104 <_fflush_r+0x9c>
    90d8:	2301      	movs	r3, #1
    90da:	4628      	mov	r0, r5
    90dc:	6a21      	ldr	r1, [r4, #32]
    90de:	47b0      	blx	r6
    90e0:	f1b0 3fff 	cmp.w	r0, #4294967295
    90e4:	4602      	mov	r2, r0
    90e6:	d10d      	bne.n	9104 <_fflush_r+0x9c>
    90e8:	682b      	ldr	r3, [r5, #0]
    90ea:	b15b      	cbz	r3, 9104 <_fflush_r+0x9c>
    90ec:	2b1d      	cmp	r3, #29
    90ee:	d001      	beq.n	90f4 <_fflush_r+0x8c>
    90f0:	2b16      	cmp	r3, #22
    90f2:	d101      	bne.n	90f8 <_fflush_r+0x90>
    90f4:	602f      	str	r7, [r5, #0]
    90f6:	e061      	b.n	91bc <_fflush_r+0x154>
    90f8:	89a3      	ldrh	r3, [r4, #12]
    90fa:	4606      	mov	r6, r0
    90fc:	f043 0340 	orr.w	r3, r3, #64	; 0x40
    9100:	81a3      	strh	r3, [r4, #12]
    9102:	e060      	b.n	91c6 <_fflush_r+0x15e>
    9104:	89a3      	ldrh	r3, [r4, #12]
    9106:	f013 0f04 	tst.w	r3, #4
    910a:	d005      	beq.n	9118 <_fflush_r+0xb0>
    910c:	6863      	ldr	r3, [r4, #4]
    910e:	1ad2      	subs	r2, r2, r3
    9110:	6b63      	ldr	r3, [r4, #52]	; 0x34
    9112:	b10b      	cbz	r3, 9118 <_fflush_r+0xb0>
    9114:	6c23      	ldr	r3, [r4, #64]	; 0x40
    9116:	1ad2      	subs	r2, r2, r3
    9118:	2300      	movs	r3, #0
    911a:	6ae6      	ldr	r6, [r4, #44]	; 0x2c
    911c:	4628      	mov	r0, r5
    911e:	6a21      	ldr	r1, [r4, #32]
    9120:	47b0      	blx	r6
    9122:	f1b0 3fff 	cmp.w	r0, #4294967295
    9126:	d105      	bne.n	9134 <_fflush_r+0xcc>
    9128:	682b      	ldr	r3, [r5, #0]
    912a:	2b1d      	cmp	r3, #29
    912c:	d839      	bhi.n	91a2 <_fflush_r+0x13a>
    912e:	4a2a      	ldr	r2, [pc, #168]	; (91d8 <_fflush_r+0x170>)
    9130:	409a      	lsls	r2, r3
    9132:	d536      	bpl.n	91a2 <_fflush_r+0x13a>
    9134:	89a3      	ldrh	r3, [r4, #12]
    9136:	2200      	movs	r2, #0
    9138:	6062      	str	r2, [r4, #4]
    913a:	f423 6300 	bic.w	r3, r3, #2048	; 0x800
    913e:	6922      	ldr	r2, [r4, #16]
    9140:	041b      	lsls	r3, r3, #16
    9142:	6022      	str	r2, [r4, #0]
    9144:	0c1b      	lsrs	r3, r3, #16
    9146:	81a3      	strh	r3, [r4, #12]
    9148:	f413 5f80 	tst.w	r3, #4096	; 0x1000
    914c:	d005      	beq.n	915a <_fflush_r+0xf2>
    914e:	f1b0 3fff 	cmp.w	r0, #4294967295
    9152:	d101      	bne.n	9158 <_fflush_r+0xf0>
    9154:	682b      	ldr	r3, [r5, #0]
    9156:	b903      	cbnz	r3, 915a <_fflush_r+0xf2>
    9158:	6560      	str	r0, [r4, #84]	; 0x54
    915a:	6b61      	ldr	r1, [r4, #52]	; 0x34
    915c:	602f      	str	r7, [r5, #0]
    915e:	2900      	cmp	r1, #0
    9160:	d030      	beq.n	91c4 <_fflush_r+0x15c>
    9162:	f104 0344 	add.w	r3, r4, #68	; 0x44
    9166:	4299      	cmp	r1, r3
    9168:	d002      	beq.n	9170 <_fflush_r+0x108>
    916a:	4628      	mov	r0, r5
    916c:	f000 f9d6 	bl	951c <_free_r>
    9170:	2600      	movs	r6, #0
    9172:	6366      	str	r6, [r4, #52]	; 0x34
    9174:	e027      	b.n	91c6 <_fflush_r+0x15e>
    9176:	6926      	ldr	r6, [r4, #16]
    9178:	b32e      	cbz	r6, 91c6 <_fflush_r+0x15e>
    917a:	f013 0f03 	tst.w	r3, #3
    917e:	6822      	ldr	r2, [r4, #0]
    9180:	6026      	str	r6, [r4, #0]
    9182:	bf08      	it	eq
    9184:	6963      	ldreq	r3, [r4, #20]
    9186:	ebc6 0802 	rsb	r8, r6, r2
    918a:	bf18      	it	ne
    918c:	2300      	movne	r3, #0
    918e:	60a3      	str	r3, [r4, #8]
    9190:	e011      	b.n	91b6 <_fflush_r+0x14e>
    9192:	6aa7      	ldr	r7, [r4, #40]	; 0x28
    9194:	4628      	mov	r0, r5
    9196:	6a21      	ldr	r1, [r4, #32]
    9198:	4632      	mov	r2, r6
    919a:	4643      	mov	r3, r8
    919c:	47b8      	blx	r7
    919e:	2800      	cmp	r0, #0
    91a0:	dc06      	bgt.n	91b0 <_fflush_r+0x148>
    91a2:	89a3      	ldrh	r3, [r4, #12]
    91a4:	f04f 36ff 	mov.w	r6, #4294967295
    91a8:	f043 0340 	orr.w	r3, r3, #64	; 0x40
    91ac:	81a3      	strh	r3, [r4, #12]
    91ae:	e00a      	b.n	91c6 <_fflush_r+0x15e>
    91b0:	1836      	adds	r6, r6, r0
    91b2:	ebc0 0808 	rsb	r8, r0, r8
    91b6:	f1b8 0f00 	cmp.w	r8, #0
    91ba:	dcea      	bgt.n	9192 <_fflush_r+0x12a>
    91bc:	2600      	movs	r6, #0
    91be:	e002      	b.n	91c6 <_fflush_r+0x15e>
    91c0:	4616      	mov	r6, r2
    91c2:	e000      	b.n	91c6 <_fflush_r+0x15e>
    91c4:	460e      	mov	r6, r1
    91c6:	4630      	mov	r0, r6
    91c8:	e8bd 81f0 	ldmia.w	sp!, {r4, r5, r6, r7, r8, pc}
    91cc:	000111a8 	.word	0x000111a8
    91d0:	000111c8 	.word	0x000111c8
    91d4:	000111e8 	.word	0x000111e8
    91d8:	80000204 	.word	0x80000204

000091dc <fflush>:
    91dc:	4601      	mov	r1, r0
    91de:	b920      	cbnz	r0, 91ea <fflush+0xe>
    91e0:	4b04      	ldr	r3, [pc, #16]	; (91f4 <fflush+0x18>)
    91e2:	4905      	ldr	r1, [pc, #20]	; (91f8 <fflush+0x1c>)
    91e4:	6818      	ldr	r0, [r3, #0]
    91e6:	f000 ba7b 	b.w	96e0 <_fwalk_reent>
    91ea:	4b04      	ldr	r3, [pc, #16]	; (91fc <fflush+0x20>)
    91ec:	6818      	ldr	r0, [r3, #0]
    91ee:	f7ff bf3b 	b.w	9068 <_fflush_r>
    91f2:	bf00      	nop
    91f4:	0001120c 	.word	0x0001120c
    91f8:	00009069 	.word	0x00009069
    91fc:	100000f4 	.word	0x100000f4

00009200 <__fp_lock>:
    9200:	2000      	movs	r0, #0
    9202:	4770      	bx	lr

00009204 <__fp_unlock>:
    9204:	2000      	movs	r0, #0
    9206:	4770      	bx	lr

00009208 <_cleanup_r>:
    9208:	4901      	ldr	r1, [pc, #4]	; (9210 <_cleanup_r+0x8>)
    920a:	f000 ba47 	b.w	969c <_fwalk>
    920e:	bf00      	nop
    9210:	0000d8e5 	.word	0x0000d8e5

00009214 <std.clone.0>:
    9214:	2300      	movs	r3, #0
    9216:	b510      	push	{r4, lr}
    9218:	4604      	mov	r4, r0
    921a:	6003      	str	r3, [r0, #0]
    921c:	6043      	str	r3, [r0, #4]
    921e:	6083      	str	r3, [r0, #8]
    9220:	8181      	strh	r1, [r0, #12]
    9222:	4619      	mov	r1, r3
    9224:	6643      	str	r3, [r0, #100]	; 0x64
    9226:	81c2      	strh	r2, [r0, #14]
    9228:	2208      	movs	r2, #8
    922a:	6103      	str	r3, [r0, #16]
    922c:	6143      	str	r3, [r0, #20]
    922e:	6183      	str	r3, [r0, #24]
    9230:	305c      	adds	r0, #92	; 0x5c
    9232:	f000 fdd2 	bl	9dda <memset>
    9236:	4b05      	ldr	r3, [pc, #20]	; (924c <std.clone.0+0x38>)
    9238:	6224      	str	r4, [r4, #32]
    923a:	6263      	str	r3, [r4, #36]	; 0x24
    923c:	4b04      	ldr	r3, [pc, #16]	; (9250 <std.clone.0+0x3c>)
    923e:	62a3      	str	r3, [r4, #40]	; 0x28
    9240:	4b04      	ldr	r3, [pc, #16]	; (9254 <std.clone.0+0x40>)
    9242:	62e3      	str	r3, [r4, #44]	; 0x2c
    9244:	4b04      	ldr	r3, [pc, #16]	; (9258 <std.clone.0+0x44>)
    9246:	6323      	str	r3, [r4, #48]	; 0x30
    9248:	bd10      	pop	{r4, pc}
    924a:	bf00      	nop
    924c:	0000a8cd 	.word	0x0000a8cd
    9250:	0000a8f3 	.word	0x0000a8f3
    9254:	0000a92d 	.word	0x0000a92d
    9258:	0000a953 	.word	0x0000a953

0000925c <__sfmoreglue>:
    925c:	b570      	push	{r4, r5, r6, lr}
    925e:	460e      	mov	r6, r1
    9260:	2568      	movs	r5, #104	; 0x68
    9262:	434d      	muls	r5, r1
    9264:	f105 010c 	add.w	r1, r5, #12
    9268:	f000 fb30 	bl	98cc <_malloc_r>
    926c:	4604      	mov	r4, r0
    926e:	b138      	cbz	r0, 9280 <__sfmoreglue+0x24>
    9270:	300c      	adds	r0, #12
    9272:	2100      	movs	r1, #0
    9274:	6066      	str	r6, [r4, #4]
    9276:	462a      	mov	r2, r5
    9278:	6021      	str	r1, [r4, #0]
    927a:	60a0      	str	r0, [r4, #8]
    927c:	f000 fdad 	bl	9dda <memset>
    9280:	4620      	mov	r0, r4
    9282:	bd70      	pop	{r4, r5, r6, pc}

00009284 <_cleanup>:
    9284:	4b01      	ldr	r3, [pc, #4]	; (928c <_cleanup+0x8>)
    9286:	6818      	ldr	r0, [r3, #0]
    9288:	f7ff bfbe 	b.w	9208 <_cleanup_r>
    928c:	0001120c 	.word	0x0001120c

00009290 <__sinit>:
    9290:	b570      	push	{r4, r5, r6, lr}
    9292:	4604      	mov	r4, r0
    9294:	6986      	ldr	r6, [r0, #24]
    9296:	2e00      	cmp	r6, #0
    9298:	d125      	bne.n	92e6 <__sinit+0x56>
    929a:	4b13      	ldr	r3, [pc, #76]	; (92e8 <__sinit+0x58>)
    929c:	2501      	movs	r5, #1
    929e:	f8c0 60d8 	str.w	r6, [r0, #216]	; 0xd8
    92a2:	6185      	str	r5, [r0, #24]
    92a4:	6283      	str	r3, [r0, #40]	; 0x28
    92a6:	f8c0 60dc 	str.w	r6, [r0, #220]	; 0xdc
    92aa:	f8c0 60e0 	str.w	r6, [r0, #224]	; 0xe0
    92ae:	f000 f81d 	bl	92ec <__sfp>
    92b2:	6060      	str	r0, [r4, #4]
    92b4:	4620      	mov	r0, r4
    92b6:	f000 f819 	bl	92ec <__sfp>
    92ba:	60a0      	str	r0, [r4, #8]
    92bc:	4620      	mov	r0, r4
    92be:	f000 f815 	bl	92ec <__sfp>
    92c2:	2104      	movs	r1, #4
    92c4:	4632      	mov	r2, r6
    92c6:	60e0      	str	r0, [r4, #12]
    92c8:	6860      	ldr	r0, [r4, #4]
    92ca:	f7ff ffa3 	bl	9214 <std.clone.0>
    92ce:	68a0      	ldr	r0, [r4, #8]
    92d0:	2109      	movs	r1, #9
    92d2:	462a      	mov	r2, r5
    92d4:	f7ff ff9e 	bl	9214 <std.clone.0>
    92d8:	68e0      	ldr	r0, [r4, #12]
    92da:	2112      	movs	r1, #18
    92dc:	2202      	movs	r2, #2
    92de:	e8bd 4070 	ldmia.w	sp!, {r4, r5, r6, lr}
    92e2:	f7ff bf97 	b.w	9214 <std.clone.0>
    92e6:	bd70      	pop	{r4, r5, r6, pc}
    92e8:	00009209 	.word	0x00009209

000092ec <__sfp>:
    92ec:	b5f8      	push	{r3, r4, r5, r6, r7, lr}
    92ee:	4607      	mov	r7, r0
    92f0:	4b1b      	ldr	r3, [pc, #108]	; (9360 <__sfp+0x74>)
    92f2:	681e      	ldr	r6, [r3, #0]
    92f4:	69b3      	ldr	r3, [r6, #24]
    92f6:	b913      	cbnz	r3, 92fe <__sfp+0x12>
    92f8:	4630      	mov	r0, r6
    92fa:	f7ff ffc9 	bl	9290 <__sinit>
    92fe:	36d8      	adds	r6, #216	; 0xd8
    9300:	68b4      	ldr	r4, [r6, #8]
    9302:	6873      	ldr	r3, [r6, #4]
    9304:	e003      	b.n	930e <__sfp+0x22>
    9306:	f9b4 500c 	ldrsh.w	r5, [r4, #12]
    930a:	b185      	cbz	r5, 932e <__sfp+0x42>
    930c:	3468      	adds	r4, #104	; 0x68
    930e:	3b01      	subs	r3, #1
    9310:	d5f9      	bpl.n	9306 <__sfp+0x1a>
    9312:	6833      	ldr	r3, [r6, #0]
    9314:	b92b      	cbnz	r3, 9322 <__sfp+0x36>
    9316:	4638      	mov	r0, r7
    9318:	2104      	movs	r1, #4
    931a:	f7ff ff9f 	bl	925c <__sfmoreglue>
    931e:	6030      	str	r0, [r6, #0]
    9320:	b108      	cbz	r0, 9326 <__sfp+0x3a>
    9322:	6836      	ldr	r6, [r6, #0]
    9324:	e7ec      	b.n	9300 <__sfp+0x14>
    9326:	230c      	movs	r3, #12
    9328:	4604      	mov	r4, r0
    932a:	603b      	str	r3, [r7, #0]
    932c:	e015      	b.n	935a <__sfp+0x6e>
    932e:	f04f 33ff 	mov.w	r3, #4294967295
    9332:	6665      	str	r5, [r4, #100]	; 0x64
    9334:	81e3      	strh	r3, [r4, #14]
    9336:	f104 005c 	add.w	r0, r4, #92	; 0x5c
    933a:	2301      	movs	r3, #1
    933c:	6025      	str	r5, [r4, #0]
    933e:	81a3      	strh	r3, [r4, #12]
    9340:	4629      	mov	r1, r5
    9342:	60a5      	str	r5, [r4, #8]
    9344:	2208      	movs	r2, #8
    9346:	6065      	str	r5, [r4, #4]
    9348:	6125      	str	r5, [r4, #16]
    934a:	6165      	str	r5, [r4, #20]
    934c:	61a5      	str	r5, [r4, #24]
    934e:	f000 fd44 	bl	9dda <memset>
    9352:	6365      	str	r5, [r4, #52]	; 0x34
    9354:	63a5      	str	r5, [r4, #56]	; 0x38
    9356:	64a5      	str	r5, [r4, #72]	; 0x48
    9358:	64e5      	str	r5, [r4, #76]	; 0x4c
    935a:	4620      	mov	r0, r4
    935c:	bdf8      	pop	{r3, r4, r5, r6, r7, pc}
    935e:	bf00      	nop
    9360:	0001120c 	.word	0x0001120c

00009364 <__sfp_lock_acquire>:
    9364:	4770      	bx	lr

00009366 <__sfp_lock_release>:
    9366:	4770      	bx	lr

00009368 <__sinit_lock_acquire>:
    9368:	4770      	bx	lr

0000936a <__sinit_lock_release>:
    936a:	4770      	bx	lr

0000936c <__fp_lock_all>:
    936c:	4b02      	ldr	r3, [pc, #8]	; (9378 <__fp_lock_all+0xc>)
    936e:	4903      	ldr	r1, [pc, #12]	; (937c <__fp_lock_all+0x10>)
    9370:	6818      	ldr	r0, [r3, #0]
    9372:	f000 b993 	b.w	969c <_fwalk>
    9376:	bf00      	nop
    9378:	100000f4 	.word	0x100000f4
    937c:	00009201 	.word	0x00009201

00009380 <__fp_unlock_all>:
    9380:	4b02      	ldr	r3, [pc, #8]	; (938c <__fp_unlock_all+0xc>)
    9382:	4903      	ldr	r1, [pc, #12]	; (9390 <__fp_unlock_all+0x10>)
    9384:	6818      	ldr	r0, [r3, #0]
    9386:	f000 b989 	b.w	969c <_fwalk>
    938a:	bf00      	nop
    938c:	100000f4 	.word	0x100000f4
    9390:	00009205 	.word	0x00009205

00009394 <_fread_r>:
    9394:	e92d 4ff8 	stmdb	sp!, {r3, r4, r5, r6, r7, r8, r9, sl, fp, lr}
    9398:	461f      	mov	r7, r3
    939a:	4604      	mov	r4, r0
    939c:	4613      	mov	r3, r2
    939e:	4689      	mov	r9, r1
    93a0:	437b      	muls	r3, r7
    93a2:	4693      	mov	fp, r2
    93a4:	9d0a      	ldr	r5, [sp, #40]	; 0x28
    93a6:	469a      	mov	sl, r3
    93a8:	d051      	beq.n	944e <_fread_r+0xba>
    93aa:	b118      	cbz	r0, 93b4 <_fread_r+0x20>
    93ac:	6983      	ldr	r3, [r0, #24]
    93ae:	b90b      	cbnz	r3, 93b4 <_fread_r+0x20>
    93b0:	f7ff ff6e 	bl	9290 <__sinit>
    93b4:	4b28      	ldr	r3, [pc, #160]	; (9458 <_fread_r+0xc4>)
    93b6:	429d      	cmp	r5, r3
    93b8:	d101      	bne.n	93be <_fread_r+0x2a>
    93ba:	6865      	ldr	r5, [r4, #4]
    93bc:	e008      	b.n	93d0 <_fread_r+0x3c>
    93be:	4b27      	ldr	r3, [pc, #156]	; (945c <_fread_r+0xc8>)
    93c0:	429d      	cmp	r5, r3
    93c2:	d101      	bne.n	93c8 <_fread_r+0x34>
    93c4:	68a5      	ldr	r5, [r4, #8]
    93c6:	e003      	b.n	93d0 <_fread_r+0x3c>
    93c8:	4b25      	ldr	r3, [pc, #148]	; (9460 <_fread_r+0xcc>)
    93ca:	429d      	cmp	r5, r3
    93cc:	bf08      	it	eq
    93ce:	68e5      	ldreq	r5, [r4, #12]
    93d0:	f7ff ffc8 	bl	9364 <__sfp_lock_acquire>
    93d4:	89ab      	ldrh	r3, [r5, #12]
    93d6:	f413 5f00 	tst.w	r3, #8192	; 0x2000
    93da:	d106      	bne.n	93ea <_fread_r+0x56>
    93dc:	f443 5300 	orr.w	r3, r3, #8192	; 0x2000
    93e0:	81ab      	strh	r3, [r5, #12]
    93e2:	6e6b      	ldr	r3, [r5, #100]	; 0x64
    93e4:	f423 5300 	bic.w	r3, r3, #8192	; 0x2000
    93e8:	666b      	str	r3, [r5, #100]	; 0x64
    93ea:	686b      	ldr	r3, [r5, #4]
    93ec:	2b00      	cmp	r3, #0
    93ee:	da01      	bge.n	93f4 <_fread_r+0x60>
    93f0:	2300      	movs	r3, #0
    93f2:	606b      	str	r3, [r5, #4]
    93f4:	4656      	mov	r6, sl
    93f6:	e018      	b.n	942a <_fread_r+0x96>
    93f8:	6829      	ldr	r1, [r5, #0]
    93fa:	4648      	mov	r0, r9
    93fc:	4642      	mov	r2, r8
    93fe:	ebc8 0606 	rsb	r6, r8, r6
    9402:	f000 fcdf 	bl	9dc4 <memcpy>
    9406:	682b      	ldr	r3, [r5, #0]
    9408:	4620      	mov	r0, r4
    940a:	4629      	mov	r1, r5
    940c:	4443      	add	r3, r8
    940e:	602b      	str	r3, [r5, #0]
    9410:	f001 f912 	bl	a638 <__srefill_r>
    9414:	b140      	cbz	r0, 9428 <_fread_r+0x94>
    9416:	f7ff ffa6 	bl	9366 <__sfp_lock_release>
    941a:	ebc6 000a 	rsb	r0, r6, sl
    941e:	4659      	mov	r1, fp
    9420:	f006 f906 	bl	f630 <__aeabi_uidiv>
    9424:	4607      	mov	r7, r0
    9426:	e013      	b.n	9450 <_fread_r+0xbc>
    9428:	44c1      	add	r9, r8
    942a:	f8d5 8004 	ldr.w	r8, [r5, #4]
    942e:	4546      	cmp	r6, r8
    9430:	d8e2      	bhi.n	93f8 <_fread_r+0x64>
    9432:	4632      	mov	r2, r6
    9434:	4648      	mov	r0, r9
    9436:	6829      	ldr	r1, [r5, #0]
    9438:	f000 fcc4 	bl	9dc4 <memcpy>
    943c:	686b      	ldr	r3, [r5, #4]
    943e:	1b9b      	subs	r3, r3, r6
    9440:	606b      	str	r3, [r5, #4]
    9442:	682b      	ldr	r3, [r5, #0]
    9444:	199e      	adds	r6, r3, r6
    9446:	602e      	str	r6, [r5, #0]
    9448:	f7ff ff8d 	bl	9366 <__sfp_lock_release>
    944c:	e000      	b.n	9450 <_fread_r+0xbc>
    944e:	461f      	mov	r7, r3
    9450:	4638      	mov	r0, r7
    9452:	e8bd 8ff8 	ldmia.w	sp!, {r3, r4, r5, r6, r7, r8, r9, sl, fp, pc}
    9456:	bf00      	nop
    9458:	000111a8 	.word	0x000111a8
    945c:	000111c8 	.word	0x000111c8
    9460:	000111e8 	.word	0x000111e8

00009464 <fread>:
    9464:	b573      	push	{r0, r1, r4, r5, r6, lr}
    9466:	4606      	mov	r6, r0
    9468:	9300      	str	r3, [sp, #0]
    946a:	460d      	mov	r5, r1
    946c:	4b04      	ldr	r3, [pc, #16]	; (9480 <fread+0x1c>)
    946e:	4614      	mov	r4, r2
    9470:	4631      	mov	r1, r6
    9472:	462a      	mov	r2, r5
    9474:	6818      	ldr	r0, [r3, #0]
    9476:	4623      	mov	r3, r4
    9478:	f7ff ff8c 	bl	9394 <_fread_r>
    947c:	bd7c      	pop	{r2, r3, r4, r5, r6, pc}
    947e:	bf00      	nop
    9480:	100000f4 	.word	0x100000f4

00009484 <_malloc_trim_r>:
    9484:	b5f8      	push	{r3, r4, r5, r6, r7, lr}
    9486:	460d      	mov	r5, r1
    9488:	4e21      	ldr	r6, [pc, #132]	; (9510 <_malloc_trim_r+0x8c>)
    948a:	4604      	mov	r4, r0
    948c:	f000 fcad 	bl	9dea <__malloc_lock>
    9490:	68b3      	ldr	r3, [r6, #8]
    9492:	685f      	ldr	r7, [r3, #4]
    9494:	f027 0703 	bic.w	r7, r7, #3
    9498:	f507 637e 	add.w	r3, r7, #4064	; 0xfe0
    949c:	330f      	adds	r3, #15
    949e:	1b5d      	subs	r5, r3, r5
    94a0:	0b2d      	lsrs	r5, r5, #12
    94a2:	3d01      	subs	r5, #1
    94a4:	032d      	lsls	r5, r5, #12
    94a6:	f5b5 5f80 	cmp.w	r5, #4096	; 0x1000
    94aa:	db1e      	blt.n	94ea <_malloc_trim_r+0x66>
    94ac:	2100      	movs	r1, #0
    94ae:	4620      	mov	r0, r4
    94b0:	f001 f980 	bl	a7b4 <_sbrk_r>
    94b4:	68b3      	ldr	r3, [r6, #8]
    94b6:	19db      	adds	r3, r3, r7
    94b8:	4298      	cmp	r0, r3
    94ba:	d116      	bne.n	94ea <_malloc_trim_r+0x66>
    94bc:	4269      	negs	r1, r5
    94be:	4620      	mov	r0, r4
    94c0:	f001 f978 	bl	a7b4 <_sbrk_r>
    94c4:	f1b0 3fff 	cmp.w	r0, #4294967295
    94c8:	d114      	bne.n	94f4 <_malloc_trim_r+0x70>
    94ca:	2100      	movs	r1, #0
    94cc:	4620      	mov	r0, r4
    94ce:	f001 f971 	bl	a7b4 <_sbrk_r>
    94d2:	68b3      	ldr	r3, [r6, #8]
    94d4:	1ac2      	subs	r2, r0, r3
    94d6:	2a0f      	cmp	r2, #15
    94d8:	dd07      	ble.n	94ea <_malloc_trim_r+0x66>
    94da:	490e      	ldr	r1, [pc, #56]	; (9514 <_malloc_trim_r+0x90>)
    94dc:	f042 0201 	orr.w	r2, r2, #1
    94e0:	605a      	str	r2, [r3, #4]
    94e2:	6809      	ldr	r1, [r1, #0]
    94e4:	1a40      	subs	r0, r0, r1
    94e6:	490c      	ldr	r1, [pc, #48]	; (9518 <_malloc_trim_r+0x94>)
    94e8:	6008      	str	r0, [r1, #0]
    94ea:	4620      	mov	r0, r4
    94ec:	f000 fc7e 	bl	9dec <__malloc_unlock>
    94f0:	2000      	movs	r0, #0
    94f2:	bdf8      	pop	{r3, r4, r5, r6, r7, pc}
    94f4:	68b3      	ldr	r3, [r6, #8]
    94f6:	1b7f      	subs	r7, r7, r5
    94f8:	f047 0701 	orr.w	r7, r7, #1
    94fc:	4620      	mov	r0, r4
    94fe:	605f      	str	r7, [r3, #4]
    9500:	4b05      	ldr	r3, [pc, #20]	; (9518 <_malloc_trim_r+0x94>)
    9502:	681a      	ldr	r2, [r3, #0]
    9504:	1b55      	subs	r5, r2, r5
    9506:	601d      	str	r5, [r3, #0]
    9508:	f000 fc70 	bl	9dec <__malloc_unlock>
    950c:	2001      	movs	r0, #1
    950e:	bdf8      	pop	{r3, r4, r5, r6, r7, pc}
    9510:	10000174 	.word	0x10000174
    9514:	10000580 	.word	0x10000580
    9518:	100005d8 	.word	0x100005d8

0000951c <_free_r>:
    951c:	e92d 41f0 	stmdb	sp!, {r4, r5, r6, r7, r8, lr}
    9520:	4604      	mov	r4, r0
    9522:	460d      	mov	r5, r1
    9524:	2900      	cmp	r1, #0
    9526:	f000 80ae 	beq.w	9686 <_free_r+0x16a>
    952a:	f000 fc5e 	bl	9dea <__malloc_lock>
    952e:	f1a5 0308 	sub.w	r3, r5, #8
    9532:	4856      	ldr	r0, [pc, #344]	; (968c <_free_r+0x170>)
    9534:	685f      	ldr	r7, [r3, #4]
    9536:	f027 0201 	bic.w	r2, r7, #1
    953a:	f8d0 c008 	ldr.w	ip, [r0, #8]
    953e:	1899      	adds	r1, r3, r2
    9540:	f007 0701 	and.w	r7, r7, #1
    9544:	4561      	cmp	r1, ip
    9546:	684e      	ldr	r6, [r1, #4]
    9548:	f026 0603 	bic.w	r6, r6, #3
    954c:	d118      	bne.n	9580 <_free_r+0x64>
    954e:	18b2      	adds	r2, r6, r2
    9550:	b93f      	cbnz	r7, 9562 <_free_r+0x46>
    9552:	f855 1c08 	ldr.w	r1, [r5, #-8]
    9556:	1a5b      	subs	r3, r3, r1
    9558:	1852      	adds	r2, r2, r1
    955a:	689d      	ldr	r5, [r3, #8]
    955c:	68d9      	ldr	r1, [r3, #12]
    955e:	60e9      	str	r1, [r5, #12]
    9560:	608d      	str	r5, [r1, #8]
    9562:	f042 0101 	orr.w	r1, r2, #1
    9566:	6083      	str	r3, [r0, #8]
    9568:	6059      	str	r1, [r3, #4]
    956a:	4b49      	ldr	r3, [pc, #292]	; (9690 <_free_r+0x174>)
    956c:	681b      	ldr	r3, [r3, #0]
    956e:	429a      	cmp	r2, r3
    9570:	f0c0 8084 	bcc.w	967c <_free_r+0x160>
    9574:	4b47      	ldr	r3, [pc, #284]	; (9694 <_free_r+0x178>)
    9576:	4620      	mov	r0, r4
    9578:	6819      	ldr	r1, [r3, #0]
    957a:	f7ff ff83 	bl	9484 <_malloc_trim_r>
    957e:	e07d      	b.n	967c <_free_r+0x160>
    9580:	604e      	str	r6, [r1, #4]
    9582:	b987      	cbnz	r7, 95a6 <_free_r+0x8a>
    9584:	f855 5c08 	ldr.w	r5, [r5, #-8]
    9588:	f100 0c08 	add.w	ip, r0, #8
    958c:	1b5b      	subs	r3, r3, r5
    958e:	1952      	adds	r2, r2, r5
    9590:	689d      	ldr	r5, [r3, #8]
    9592:	4565      	cmp	r5, ip
    9594:	d009      	beq.n	95aa <_free_r+0x8e>
    9596:	f8d3 c00c 	ldr.w	ip, [r3, #12]
    959a:	f8c5 c00c 	str.w	ip, [r5, #12]
    959e:	f8cc 5008 	str.w	r5, [ip, #8]
    95a2:	463d      	mov	r5, r7
    95a4:	e002      	b.n	95ac <_free_r+0x90>
    95a6:	2500      	movs	r5, #0
    95a8:	e000      	b.n	95ac <_free_r+0x90>
    95aa:	2501      	movs	r5, #1
    95ac:	198f      	adds	r7, r1, r6
    95ae:	687f      	ldr	r7, [r7, #4]
    95b0:	f017 0f01 	tst.w	r7, #1
    95b4:	d10f      	bne.n	95d6 <_free_r+0xba>
    95b6:	1992      	adds	r2, r2, r6
    95b8:	b94d      	cbnz	r5, 95ce <_free_r+0xb2>
    95ba:	688e      	ldr	r6, [r1, #8]
    95bc:	4f36      	ldr	r7, [pc, #216]	; (9698 <_free_r+0x17c>)
    95be:	42be      	cmp	r6, r7
    95c0:	d105      	bne.n	95ce <_free_r+0xb2>
    95c2:	60f3      	str	r3, [r6, #12]
    95c4:	3501      	adds	r5, #1
    95c6:	60b3      	str	r3, [r6, #8]
    95c8:	60de      	str	r6, [r3, #12]
    95ca:	609e      	str	r6, [r3, #8]
    95cc:	e003      	b.n	95d6 <_free_r+0xba>
    95ce:	68ce      	ldr	r6, [r1, #12]
    95d0:	6889      	ldr	r1, [r1, #8]
    95d2:	60ce      	str	r6, [r1, #12]
    95d4:	60b1      	str	r1, [r6, #8]
    95d6:	f042 0101 	orr.w	r1, r2, #1
    95da:	509a      	str	r2, [r3, r2]
    95dc:	6059      	str	r1, [r3, #4]
    95de:	2d00      	cmp	r5, #0
    95e0:	d14c      	bne.n	967c <_free_r+0x160>
    95e2:	f5b2 7f00 	cmp.w	r2, #512	; 0x200
    95e6:	d210      	bcs.n	960a <_free_r+0xee>
    95e8:	08d2      	lsrs	r2, r2, #3
    95ea:	3501      	adds	r5, #1
    95ec:	1091      	asrs	r1, r2, #2
    95ee:	fa15 f101 	lsls.w	r1, r5, r1
    95f2:	6845      	ldr	r5, [r0, #4]
    95f4:	ea45 0101 	orr.w	r1, r5, r1
    95f8:	6041      	str	r1, [r0, #4]
    95fa:	eb00 00c2 	add.w	r0, r0, r2, lsl #3
    95fe:	60d8      	str	r0, [r3, #12]
    9600:	6882      	ldr	r2, [r0, #8]
    9602:	609a      	str	r2, [r3, #8]
    9604:	60d3      	str	r3, [r2, #12]
    9606:	6083      	str	r3, [r0, #8]
    9608:	e038      	b.n	967c <_free_r+0x160>
    960a:	0a55      	lsrs	r5, r2, #9
    960c:	2d04      	cmp	r5, #4
    960e:	d802      	bhi.n	9616 <_free_r+0xfa>
    9610:	0995      	lsrs	r5, r2, #6
    9612:	3538      	adds	r5, #56	; 0x38
    9614:	e016      	b.n	9644 <_free_r+0x128>
    9616:	2d14      	cmp	r5, #20
    9618:	d801      	bhi.n	961e <_free_r+0x102>
    961a:	355b      	adds	r5, #91	; 0x5b
    961c:	e012      	b.n	9644 <_free_r+0x128>
    961e:	2d54      	cmp	r5, #84	; 0x54
    9620:	d802      	bhi.n	9628 <_free_r+0x10c>
    9622:	0b15      	lsrs	r5, r2, #12
    9624:	356e      	adds	r5, #110	; 0x6e
    9626:	e00d      	b.n	9644 <_free_r+0x128>
    9628:	f5b5 7faa 	cmp.w	r5, #340	; 0x154
    962c:	d802      	bhi.n	9634 <_free_r+0x118>
    962e:	0bd5      	lsrs	r5, r2, #15
    9630:	3577      	adds	r5, #119	; 0x77
    9632:	e007      	b.n	9644 <_free_r+0x128>
    9634:	f240 5154 	movw	r1, #1364	; 0x554
    9638:	428d      	cmp	r5, r1
    963a:	d802      	bhi.n	9642 <_free_r+0x126>
    963c:	0c95      	lsrs	r5, r2, #18
    963e:	357c      	adds	r5, #124	; 0x7c
    9640:	e000      	b.n	9644 <_free_r+0x128>
    9642:	257e      	movs	r5, #126	; 0x7e
    9644:	eb00 06c5 	add.w	r6, r0, r5, lsl #3
    9648:	68b1      	ldr	r1, [r6, #8]
    964a:	42b1      	cmp	r1, r6
    964c:	d10c      	bne.n	9668 <_free_r+0x14c>
    964e:	2201      	movs	r2, #1
    9650:	10ad      	asrs	r5, r5, #2
    9652:	fa12 f505 	lsls.w	r5, r2, r5
    9656:	6842      	ldr	r2, [r0, #4]
    9658:	ea42 0505 	orr.w	r5, r2, r5
    965c:	460a      	mov	r2, r1
    965e:	6045      	str	r5, [r0, #4]
    9660:	e008      	b.n	9674 <_free_r+0x158>
    9662:	6889      	ldr	r1, [r1, #8]
    9664:	42b1      	cmp	r1, r6
    9666:	d004      	beq.n	9672 <_free_r+0x156>
    9668:	6848      	ldr	r0, [r1, #4]
    966a:	f020 0003 	bic.w	r0, r0, #3
    966e:	4282      	cmp	r2, r0
    9670:	d3f7      	bcc.n	9662 <_free_r+0x146>
    9672:	68ca      	ldr	r2, [r1, #12]
    9674:	60da      	str	r2, [r3, #12]
    9676:	6099      	str	r1, [r3, #8]
    9678:	60cb      	str	r3, [r1, #12]
    967a:	6093      	str	r3, [r2, #8]
    967c:	4620      	mov	r0, r4
    967e:	e8bd 41f0 	ldmia.w	sp!, {r4, r5, r6, r7, r8, lr}
    9682:	f000 bbb3 	b.w	9dec <__malloc_unlock>
    9686:	e8bd 81f0 	ldmia.w	sp!, {r4, r5, r6, r7, r8, pc}
    968a:	bf00      	nop
    968c:	10000174 	.word	0x10000174
    9690:	1000057c 	.word	0x1000057c
    9694:	100005d4 	.word	0x100005d4
    9698:	1000017c 	.word	0x1000017c

0000969c <_fwalk>:
    969c:	e92d 41f0 	stmdb	sp!, {r4, r5, r6, r7, r8, lr}
    96a0:	4604      	mov	r4, r0
    96a2:	4688      	mov	r8, r1
    96a4:	34d8      	adds	r4, #216	; 0xd8
    96a6:	f7ff fe5d 	bl	9364 <__sfp_lock_acquire>
    96aa:	2600      	movs	r6, #0
    96ac:	e011      	b.n	96d2 <_fwalk+0x36>
    96ae:	68a5      	ldr	r5, [r4, #8]
    96b0:	6867      	ldr	r7, [r4, #4]
    96b2:	e00b      	b.n	96cc <_fwalk+0x30>
    96b4:	f9b5 300c 	ldrsh.w	r3, [r5, #12]
    96b8:	b13b      	cbz	r3, 96ca <_fwalk+0x2e>
    96ba:	f9b5 300e 	ldrsh.w	r3, [r5, #14]
    96be:	f1b3 3fff 	cmp.w	r3, #4294967295
    96c2:	d002      	beq.n	96ca <_fwalk+0x2e>
    96c4:	4628      	mov	r0, r5
    96c6:	47c0      	blx	r8
    96c8:	4306      	orrs	r6, r0
    96ca:	3568      	adds	r5, #104	; 0x68
    96cc:	3f01      	subs	r7, #1
    96ce:	d5f1      	bpl.n	96b4 <_fwalk+0x18>
    96d0:	6824      	ldr	r4, [r4, #0]
    96d2:	2c00      	cmp	r4, #0
    96d4:	d1eb      	bne.n	96ae <_fwalk+0x12>
    96d6:	f7ff fe46 	bl	9366 <__sfp_lock_release>
    96da:	4630      	mov	r0, r6
    96dc:	e8bd 81f0 	ldmia.w	sp!, {r4, r5, r6, r7, r8, pc}

000096e0 <_fwalk_reent>:
    96e0:	e92d 43f8 	stmdb	sp!, {r3, r4, r5, r6, r7, r8, r9, lr}
    96e4:	4680      	mov	r8, r0
    96e6:	4689      	mov	r9, r1
    96e8:	f108 04d8 	add.w	r4, r8, #216	; 0xd8
    96ec:	f7ff fe3a 	bl	9364 <__sfp_lock_acquire>
    96f0:	2600      	movs	r6, #0
    96f2:	e012      	b.n	971a <_fwalk_reent+0x3a>
    96f4:	68a5      	ldr	r5, [r4, #8]
    96f6:	6867      	ldr	r7, [r4, #4]
    96f8:	e00c      	b.n	9714 <_fwalk_reent+0x34>
    96fa:	f9b5 300c 	ldrsh.w	r3, [r5, #12]
    96fe:	b143      	cbz	r3, 9712 <_fwalk_reent+0x32>
    9700:	f9b5 300e 	ldrsh.w	r3, [r5, #14]
    9704:	f1b3 3fff 	cmp.w	r3, #4294967295
    9708:	d003      	beq.n	9712 <_fwalk_reent+0x32>
    970a:	4640      	mov	r0, r8
    970c:	4629      	mov	r1, r5
    970e:	47c8      	blx	r9
    9710:	4306      	orrs	r6, r0
    9712:	3568      	adds	r5, #104	; 0x68
    9714:	3f01      	subs	r7, #1
    9716:	d5f0      	bpl.n	96fa <_fwalk_reent+0x1a>
    9718:	6824      	ldr	r4, [r4, #0]
    971a:	2c00      	cmp	r4, #0
    971c:	d1ea      	bne.n	96f4 <_fwalk_reent+0x14>
    971e:	f7ff fe22 	bl	9366 <__sfp_lock_release>
    9722:	4630      	mov	r0, r6
    9724:	e8bd 83f8 	ldmia.w	sp!, {r3, r4, r5, r6, r7, r8, r9, pc}

00009728 <iswspace>:
    9728:	28ff      	cmp	r0, #255	; 0xff
    972a:	d806      	bhi.n	973a <iswspace+0x12>
    972c:	4b04      	ldr	r3, [pc, #16]	; (9740 <iswspace+0x18>)
    972e:	681b      	ldr	r3, [r3, #0]
    9730:	1818      	adds	r0, r3, r0
    9732:	7840      	ldrb	r0, [r0, #1]
    9734:	f000 0008 	and.w	r0, r0, #8
    9738:	4770      	bx	lr
    973a:	2000      	movs	r0, #0
    973c:	4770      	bx	lr
    973e:	bf00      	nop
    9740:	10000000 	.word	0x10000000

00009744 <_setlocale_r>:
    9744:	b510      	push	{r4, lr}
    9746:	4614      	mov	r4, r2
    9748:	b19a      	cbz	r2, 9772 <_setlocale_r+0x2e>
    974a:	4610      	mov	r0, r2
    974c:	490b      	ldr	r1, [pc, #44]	; (977c <_setlocale_r+0x38>)
    974e:	f001 f904 	bl	a95a <strcmp>
    9752:	b170      	cbz	r0, 9772 <_setlocale_r+0x2e>
    9754:	4620      	mov	r0, r4
    9756:	490a      	ldr	r1, [pc, #40]	; (9780 <_setlocale_r+0x3c>)
    9758:	f001 f8ff 	bl	a95a <strcmp>
    975c:	b158      	cbz	r0, 9776 <_setlocale_r+0x32>
    975e:	4620      	mov	r0, r4
    9760:	4908      	ldr	r1, [pc, #32]	; (9784 <_setlocale_r+0x40>)
    9762:	f001 f8fa 	bl	a95a <strcmp>
    9766:	4b06      	ldr	r3, [pc, #24]	; (9780 <_setlocale_r+0x3c>)
    9768:	2800      	cmp	r0, #0
    976a:	bf0c      	ite	eq
    976c:	4618      	moveq	r0, r3
    976e:	2000      	movne	r0, #0
    9770:	bd10      	pop	{r4, pc}
    9772:	4803      	ldr	r0, [pc, #12]	; (9780 <_setlocale_r+0x3c>)
    9774:	bd10      	pop	{r4, pc}
    9776:	4802      	ldr	r0, [pc, #8]	; (9780 <_setlocale_r+0x3c>)
    9778:	bd10      	pop	{r4, pc}
    977a:	bf00      	nop
    977c:	00011210 	.word	0x00011210
    9780:	00011208 	.word	0x00011208
    9784:	00011217 	.word	0x00011217

00009788 <__locale_charset>:
    9788:	4800      	ldr	r0, [pc, #0]	; (978c <__locale_charset+0x4>)
    978a:	4770      	bx	lr
    978c:	10000150 	.word	0x10000150

00009790 <__locale_mb_cur_max>:
    9790:	4b01      	ldr	r3, [pc, #4]	; (9798 <__locale_mb_cur_max+0x8>)
    9792:	6818      	ldr	r0, [r3, #0]
    9794:	4770      	bx	lr
    9796:	bf00      	nop
    9798:	10000170 	.word	0x10000170

0000979c <__locale_msgcharset>:
    979c:	4800      	ldr	r0, [pc, #0]	; (97a0 <__locale_msgcharset+0x4>)
    979e:	4770      	bx	lr
    97a0:	100000f8 	.word	0x100000f8

000097a4 <__locale_cjk_lang>:
    97a4:	2000      	movs	r0, #0
    97a6:	4770      	bx	lr

000097a8 <_localeconv_r>:
    97a8:	4800      	ldr	r0, [pc, #0]	; (97ac <_localeconv_r+0x4>)
    97aa:	4770      	bx	lr
    97ac:	10000118 	.word	0x10000118

000097b0 <setlocale>:
    97b0:	460a      	mov	r2, r1
    97b2:	4903      	ldr	r1, [pc, #12]	; (97c0 <setlocale+0x10>)
    97b4:	4603      	mov	r3, r0
    97b6:	6808      	ldr	r0, [r1, #0]
    97b8:	4619      	mov	r1, r3
    97ba:	f7ff bfc3 	b.w	9744 <_setlocale_r>
    97be:	bf00      	nop
    97c0:	100000f4 	.word	0x100000f4

000097c4 <localeconv>:
    97c4:	4800      	ldr	r0, [pc, #0]	; (97c8 <localeconv+0x4>)
    97c6:	4770      	bx	lr
    97c8:	10000118 	.word	0x10000118

000097cc <__smakebuf_r>:
    97cc:	898b      	ldrh	r3, [r1, #12]
    97ce:	b5f0      	push	{r4, r5, r6, r7, lr}
    97d0:	f013 0f02 	tst.w	r3, #2
    97d4:	b091      	sub	sp, #68	; 0x44
    97d6:	4605      	mov	r5, r0
    97d8:	460c      	mov	r4, r1
    97da:	d006      	beq.n	97ea <__smakebuf_r+0x1e>
    97dc:	f101 0347 	add.w	r3, r1, #71	; 0x47
    97e0:	600b      	str	r3, [r1, #0]
    97e2:	610b      	str	r3, [r1, #16]
    97e4:	2301      	movs	r3, #1
    97e6:	614b      	str	r3, [r1, #20]
    97e8:	e059      	b.n	989e <__smakebuf_r+0xd2>
    97ea:	f9b1 100e 	ldrsh.w	r1, [r1, #14]
    97ee:	2900      	cmp	r1, #0
    97f0:	db04      	blt.n	97fc <__smakebuf_r+0x30>
    97f2:	aa01      	add	r2, sp, #4
    97f4:	f004 f908 	bl	da08 <_fstat_r>
    97f8:	2800      	cmp	r0, #0
    97fa:	da0c      	bge.n	9816 <__smakebuf_r+0x4a>
    97fc:	89a3      	ldrh	r3, [r4, #12]
    97fe:	2700      	movs	r7, #0
    9800:	f003 0680 	and.w	r6, r3, #128	; 0x80
    9804:	f443 6300 	orr.w	r3, r3, #2048	; 0x800
    9808:	2e00      	cmp	r6, #0
    980a:	bf0c      	ite	eq
    980c:	f44f 7680 	moveq.w	r6, #256	; 0x100
    9810:	2640      	movne	r6, #64	; 0x40
    9812:	81a3      	strh	r3, [r4, #12]
    9814:	e01c      	b.n	9850 <__smakebuf_r+0x84>
    9816:	9b02      	ldr	r3, [sp, #8]
    9818:	f403 4370 	and.w	r3, r3, #61440	; 0xf000
    981c:	f5a3 5200 	sub.w	r2, r3, #8192	; 0x2000
    9820:	4257      	negs	r7, r2
    9822:	eb47 0702 	adc.w	r7, r7, r2
    9826:	f5b3 4f00 	cmp.w	r3, #32768	; 0x8000
    982a:	d10b      	bne.n	9844 <__smakebuf_r+0x78>
    982c:	6ae2      	ldr	r2, [r4, #44]	; 0x2c
    982e:	4b1d      	ldr	r3, [pc, #116]	; (98a4 <__smakebuf_r+0xd8>)
    9830:	429a      	cmp	r2, r3
    9832:	d107      	bne.n	9844 <__smakebuf_r+0x78>
    9834:	89a3      	ldrh	r3, [r4, #12]
    9836:	f443 6380 	orr.w	r3, r3, #1024	; 0x400
    983a:	81a3      	strh	r3, [r4, #12]
    983c:	f44f 6380 	mov.w	r3, #1024	; 0x400
    9840:	6523      	str	r3, [r4, #80]	; 0x50
    9842:	e003      	b.n	984c <__smakebuf_r+0x80>
    9844:	89a3      	ldrh	r3, [r4, #12]
    9846:	f443 6300 	orr.w	r3, r3, #2048	; 0x800
    984a:	81a3      	strh	r3, [r4, #12]
    984c:	f44f 7680 	mov.w	r6, #256	; 0x100
    9850:	4628      	mov	r0, r5
    9852:	4631      	mov	r1, r6
    9854:	f000 f83a 	bl	98cc <_malloc_r>
    9858:	b968      	cbnz	r0, 9876 <__smakebuf_r+0xaa>
    985a:	89a3      	ldrh	r3, [r4, #12]
    985c:	f413 7f00 	tst.w	r3, #512	; 0x200
    9860:	d11d      	bne.n	989e <__smakebuf_r+0xd2>
    9862:	f043 0302 	orr.w	r3, r3, #2
    9866:	81a3      	strh	r3, [r4, #12]
    9868:	f104 0347 	add.w	r3, r4, #71	; 0x47
    986c:	6023      	str	r3, [r4, #0]
    986e:	6123      	str	r3, [r4, #16]
    9870:	2301      	movs	r3, #1
    9872:	6163      	str	r3, [r4, #20]
    9874:	e013      	b.n	989e <__smakebuf_r+0xd2>
    9876:	4b0c      	ldr	r3, [pc, #48]	; (98a8 <__smakebuf_r+0xdc>)
    9878:	62ab      	str	r3, [r5, #40]	; 0x28
    987a:	89a3      	ldrh	r3, [r4, #12]
    987c:	6020      	str	r0, [r4, #0]
    987e:	f043 0380 	orr.w	r3, r3, #128	; 0x80
    9882:	6120      	str	r0, [r4, #16]
    9884:	81a3      	strh	r3, [r4, #12]
    9886:	6166      	str	r6, [r4, #20]
    9888:	b14f      	cbz	r7, 989e <__smakebuf_r+0xd2>
    988a:	4628      	mov	r0, r5
    988c:	f9b4 100e 	ldrsh.w	r1, [r4, #14]
    9890:	f004 fd4a 	bl	e328 <_isatty_r>
    9894:	b118      	cbz	r0, 989e <__smakebuf_r+0xd2>
    9896:	89a3      	ldrh	r3, [r4, #12]
    9898:	f043 0301 	orr.w	r3, r3, #1
    989c:	81a3      	strh	r3, [r4, #12]
    989e:	b011      	add	sp, #68	; 0x44
    98a0:	bdf0      	pop	{r4, r5, r6, r7, pc}
    98a2:	bf00      	nop
    98a4:	0000a92d 	.word	0x0000a92d
    98a8:	00009209 	.word	0x00009209

000098ac <malloc>:
    98ac:	4b02      	ldr	r3, [pc, #8]	; (98b8 <malloc+0xc>)
    98ae:	4601      	mov	r1, r0
    98b0:	6818      	ldr	r0, [r3, #0]
    98b2:	f000 b80b 	b.w	98cc <_malloc_r>
    98b6:	bf00      	nop
    98b8:	100000f4 	.word	0x100000f4

000098bc <free>:
    98bc:	4b02      	ldr	r3, [pc, #8]	; (98c8 <free+0xc>)
    98be:	4601      	mov	r1, r0
    98c0:	6818      	ldr	r0, [r3, #0]
    98c2:	f7ff be2b 	b.w	951c <_free_r>
    98c6:	bf00      	nop
    98c8:	100000f4 	.word	0x100000f4

000098cc <_malloc_r>:
    98cc:	e92d 4ff7 	stmdb	sp!, {r0, r1, r2, r4, r5, r6, r7, r8, r9, sl, fp, lr}
    98d0:	f101 040b 	add.w	r4, r1, #11
    98d4:	2c16      	cmp	r4, #22
    98d6:	4607      	mov	r7, r0
    98d8:	d903      	bls.n	98e2 <_malloc_r+0x16>
    98da:	f034 0407 	bics.w	r4, r4, #7
    98de:	d501      	bpl.n	98e4 <_malloc_r+0x18>
    98e0:	e002      	b.n	98e8 <_malloc_r+0x1c>
    98e2:	2410      	movs	r4, #16
    98e4:	428c      	cmp	r4, r1
    98e6:	d202      	bcs.n	98ee <_malloc_r+0x22>
    98e8:	230c      	movs	r3, #12
    98ea:	603b      	str	r3, [r7, #0]
    98ec:	e1dd      	b.n	9caa <_malloc_r+0x3de>
    98ee:	4638      	mov	r0, r7
    98f0:	f000 fa7b 	bl	9dea <__malloc_lock>
    98f4:	f5b4 7ffc 	cmp.w	r4, #504	; 0x1f8
    98f8:	4a97      	ldr	r2, [pc, #604]	; (9b58 <_malloc_r+0x28c>)
    98fa:	d210      	bcs.n	991e <_malloc_r+0x52>
    98fc:	08e1      	lsrs	r1, r4, #3
    98fe:	eb02 02c1 	add.w	r2, r2, r1, lsl #3
    9902:	68d6      	ldr	r6, [r2, #12]
    9904:	4296      	cmp	r6, r2
    9906:	d104      	bne.n	9912 <_malloc_r+0x46>
    9908:	f106 0308 	add.w	r3, r6, #8
    990c:	6976      	ldr	r6, [r6, #20]
    990e:	429e      	cmp	r6, r3
    9910:	d003      	beq.n	991a <_malloc_r+0x4e>
    9912:	6873      	ldr	r3, [r6, #4]
    9914:	f023 0303 	bic.w	r3, r3, #3
    9918:	e02f      	b.n	997a <_malloc_r+0xae>
    991a:	3102      	adds	r1, #2
    991c:	e036      	b.n	998c <_malloc_r+0xc0>
    991e:	0a61      	lsrs	r1, r4, #9
    9920:	d101      	bne.n	9926 <_malloc_r+0x5a>
    9922:	08e1      	lsrs	r1, r4, #3
    9924:	e01b      	b.n	995e <_malloc_r+0x92>
    9926:	2904      	cmp	r1, #4
    9928:	d802      	bhi.n	9930 <_malloc_r+0x64>
    992a:	09a1      	lsrs	r1, r4, #6
    992c:	3138      	adds	r1, #56	; 0x38
    992e:	e016      	b.n	995e <_malloc_r+0x92>
    9930:	2914      	cmp	r1, #20
    9932:	d801      	bhi.n	9938 <_malloc_r+0x6c>
    9934:	315b      	adds	r1, #91	; 0x5b
    9936:	e012      	b.n	995e <_malloc_r+0x92>
    9938:	2954      	cmp	r1, #84	; 0x54
    993a:	d802      	bhi.n	9942 <_malloc_r+0x76>
    993c:	0b21      	lsrs	r1, r4, #12
    993e:	316e      	adds	r1, #110	; 0x6e
    9940:	e00d      	b.n	995e <_malloc_r+0x92>
    9942:	f5b1 7faa 	cmp.w	r1, #340	; 0x154
    9946:	d802      	bhi.n	994e <_malloc_r+0x82>
    9948:	0be1      	lsrs	r1, r4, #15
    994a:	3177      	adds	r1, #119	; 0x77
    994c:	e007      	b.n	995e <_malloc_r+0x92>
    994e:	f240 5354 	movw	r3, #1364	; 0x554
    9952:	4299      	cmp	r1, r3
    9954:	d802      	bhi.n	995c <_malloc_r+0x90>
    9956:	0ca1      	lsrs	r1, r4, #18
    9958:	317c      	adds	r1, #124	; 0x7c
    995a:	e000      	b.n	995e <_malloc_r+0x92>
    995c:	217e      	movs	r1, #126	; 0x7e
    995e:	eb02 02c1 	add.w	r2, r2, r1, lsl #3
    9962:	68d6      	ldr	r6, [r2, #12]
    9964:	e00f      	b.n	9986 <_malloc_r+0xba>
    9966:	6873      	ldr	r3, [r6, #4]
    9968:	f023 0303 	bic.w	r3, r3, #3
    996c:	1b18      	subs	r0, r3, r4
    996e:	280f      	cmp	r0, #15
    9970:	dd01      	ble.n	9976 <_malloc_r+0xaa>
    9972:	3901      	subs	r1, #1
    9974:	e009      	b.n	998a <_malloc_r+0xbe>
    9976:	2800      	cmp	r0, #0
    9978:	db04      	blt.n	9984 <_malloc_r+0xb8>
    997a:	68f2      	ldr	r2, [r6, #12]
    997c:	68b1      	ldr	r1, [r6, #8]
    997e:	60ca      	str	r2, [r1, #12]
    9980:	6091      	str	r1, [r2, #8]
    9982:	e020      	b.n	99c6 <_malloc_r+0xfa>
    9984:	68f6      	ldr	r6, [r6, #12]
    9986:	4296      	cmp	r6, r2
    9988:	d1ed      	bne.n	9966 <_malloc_r+0x9a>
    998a:	3101      	adds	r1, #1
    998c:	4d72      	ldr	r5, [pc, #456]	; (9b58 <_malloc_r+0x28c>)
    998e:	f105 0208 	add.w	r2, r5, #8
    9992:	6896      	ldr	r6, [r2, #8]
    9994:	4296      	cmp	r6, r2
    9996:	d077      	beq.n	9a88 <_malloc_r+0x1bc>
    9998:	6873      	ldr	r3, [r6, #4]
    999a:	f023 0303 	bic.w	r3, r3, #3
    999e:	1b18      	subs	r0, r3, r4
    99a0:	280f      	cmp	r0, #15
    99a2:	dd0c      	ble.n	99be <_malloc_r+0xf2>
    99a4:	1933      	adds	r3, r6, r4
    99a6:	f044 0401 	orr.w	r4, r4, #1
    99aa:	60d3      	str	r3, [r2, #12]
    99ac:	6093      	str	r3, [r2, #8]
    99ae:	6074      	str	r4, [r6, #4]
    99b0:	60da      	str	r2, [r3, #12]
    99b2:	609a      	str	r2, [r3, #8]
    99b4:	f040 0201 	orr.w	r2, r0, #1
    99b8:	5018      	str	r0, [r3, r0]
    99ba:	605a      	str	r2, [r3, #4]
    99bc:	e180      	b.n	9cc0 <_malloc_r+0x3f4>
    99be:	2800      	cmp	r0, #0
    99c0:	60d2      	str	r2, [r2, #12]
    99c2:	6092      	str	r2, [r2, #8]
    99c4:	db05      	blt.n	99d2 <_malloc_r+0x106>
    99c6:	18f3      	adds	r3, r6, r3
    99c8:	685a      	ldr	r2, [r3, #4]
    99ca:	f042 0201 	orr.w	r2, r2, #1
    99ce:	605a      	str	r2, [r3, #4]
    99d0:	e176      	b.n	9cc0 <_malloc_r+0x3f4>
    99d2:	f5b3 7f00 	cmp.w	r3, #512	; 0x200
    99d6:	d20e      	bcs.n	99f6 <_malloc_r+0x12a>
    99d8:	08db      	lsrs	r3, r3, #3
    99da:	f04f 0e01 	mov.w	lr, #1
    99de:	1098      	asrs	r0, r3, #2
    99e0:	eb05 03c3 	add.w	r3, r5, r3, lsl #3
    99e4:	fa0e f000 	lsl.w	r0, lr, r0
    99e8:	f8d5 e004 	ldr.w	lr, [r5, #4]
    99ec:	ea4e 0000 	orr.w	r0, lr, r0
    99f0:	6068      	str	r0, [r5, #4]
    99f2:	6898      	ldr	r0, [r3, #8]
    99f4:	e044      	b.n	9a80 <_malloc_r+0x1b4>
    99f6:	ea4f 2e53 	mov.w	lr, r3, lsr #9
    99fa:	f1be 0f04 	cmp.w	lr, #4
    99fe:	d804      	bhi.n	9a0a <_malloc_r+0x13e>
    9a00:	ea4f 1e93 	mov.w	lr, r3, lsr #6
    9a04:	f10e 0e38 	add.w	lr, lr, #56	; 0x38
    9a08:	e01f      	b.n	9a4a <_malloc_r+0x17e>
    9a0a:	f1be 0f14 	cmp.w	lr, #20
    9a0e:	d802      	bhi.n	9a16 <_malloc_r+0x14a>
    9a10:	f10e 0e5b 	add.w	lr, lr, #91	; 0x5b
    9a14:	e019      	b.n	9a4a <_malloc_r+0x17e>
    9a16:	f1be 0f54 	cmp.w	lr, #84	; 0x54
    9a1a:	d804      	bhi.n	9a26 <_malloc_r+0x15a>
    9a1c:	ea4f 3e13 	mov.w	lr, r3, lsr #12
    9a20:	f10e 0e6e 	add.w	lr, lr, #110	; 0x6e
    9a24:	e011      	b.n	9a4a <_malloc_r+0x17e>
    9a26:	f5be 7faa 	cmp.w	lr, #340	; 0x154
    9a2a:	d804      	bhi.n	9a36 <_malloc_r+0x16a>
    9a2c:	ea4f 3ed3 	mov.w	lr, r3, lsr #15
    9a30:	f10e 0e77 	add.w	lr, lr, #119	; 0x77
    9a34:	e009      	b.n	9a4a <_malloc_r+0x17e>
    9a36:	f240 5054 	movw	r0, #1364	; 0x554
    9a3a:	4586      	cmp	lr, r0
    9a3c:	bf96      	itet	ls
    9a3e:	ea4f 4e93 	movls.w	lr, r3, lsr #18
    9a42:	f04f 0e7e 	movhi.w	lr, #126	; 0x7e
    9a46:	f10e 0e7c 	addls.w	lr, lr, #124	; 0x7c
    9a4a:	eb05 0cce 	add.w	ip, r5, lr, lsl #3
    9a4e:	f8dc 0008 	ldr.w	r0, [ip, #8]
    9a52:	4560      	cmp	r0, ip
    9a54:	d10d      	bne.n	9a72 <_malloc_r+0x1a6>
    9a56:	2301      	movs	r3, #1
    9a58:	ea4f 0eae 	mov.w	lr, lr, asr #2
    9a5c:	fa03 fe0e 	lsl.w	lr, r3, lr
    9a60:	686b      	ldr	r3, [r5, #4]
    9a62:	ea43 030e 	orr.w	r3, r3, lr
    9a66:	606b      	str	r3, [r5, #4]
    9a68:	4603      	mov	r3, r0
    9a6a:	e009      	b.n	9a80 <_malloc_r+0x1b4>
    9a6c:	6880      	ldr	r0, [r0, #8]
    9a6e:	4560      	cmp	r0, ip
    9a70:	d005      	beq.n	9a7e <_malloc_r+0x1b2>
    9a72:	f8d0 e004 	ldr.w	lr, [r0, #4]
    9a76:	f02e 0e03 	bic.w	lr, lr, #3
    9a7a:	4573      	cmp	r3, lr
    9a7c:	d3f6      	bcc.n	9a6c <_malloc_r+0x1a0>
    9a7e:	68c3      	ldr	r3, [r0, #12]
    9a80:	60f3      	str	r3, [r6, #12]
    9a82:	60b0      	str	r0, [r6, #8]
    9a84:	609e      	str	r6, [r3, #8]
    9a86:	60c6      	str	r6, [r0, #12]
    9a88:	2001      	movs	r0, #1
    9a8a:	108b      	asrs	r3, r1, #2
    9a8c:	fa10 f303 	lsls.w	r3, r0, r3
    9a90:	6868      	ldr	r0, [r5, #4]
    9a92:	4283      	cmp	r3, r0
    9a94:	d862      	bhi.n	9b5c <_malloc_r+0x290>
    9a96:	4203      	tst	r3, r0
    9a98:	d105      	bne.n	9aa6 <_malloc_r+0x1da>
    9a9a:	f021 0103 	bic.w	r1, r1, #3
    9a9e:	005b      	lsls	r3, r3, #1
    9aa0:	3104      	adds	r1, #4
    9aa2:	4203      	tst	r3, r0
    9aa4:	d0fb      	beq.n	9a9e <_malloc_r+0x1d2>
    9aa6:	eb05 09c1 	add.w	r9, r5, r1, lsl #3
    9aaa:	468e      	mov	lr, r1
    9aac:	46cc      	mov	ip, r9
    9aae:	f8dc 600c 	ldr.w	r6, [ip, #12]
    9ab2:	e02a      	b.n	9b0a <_malloc_r+0x23e>
    9ab4:	6870      	ldr	r0, [r6, #4]
    9ab6:	f020 0803 	bic.w	r8, r0, #3
    9aba:	ebc4 0008 	rsb	r0, r4, r8
    9abe:	280f      	cmp	r0, #15
    9ac0:	dd11      	ble.n	9ae6 <_malloc_r+0x21a>
    9ac2:	1933      	adds	r3, r6, r4
    9ac4:	68f1      	ldr	r1, [r6, #12]
    9ac6:	f044 0401 	orr.w	r4, r4, #1
    9aca:	6074      	str	r4, [r6, #4]
    9acc:	f856 4f08 	ldr.w	r4, [r6, #8]!
    9ad0:	5018      	str	r0, [r3, r0]
    9ad2:	60e1      	str	r1, [r4, #12]
    9ad4:	608c      	str	r4, [r1, #8]
    9ad6:	60d3      	str	r3, [r2, #12]
    9ad8:	6093      	str	r3, [r2, #8]
    9ada:	60da      	str	r2, [r3, #12]
    9adc:	609a      	str	r2, [r3, #8]
    9ade:	f040 0201 	orr.w	r2, r0, #1
    9ae2:	605a      	str	r2, [r3, #4]
    9ae4:	e00c      	b.n	9b00 <_malloc_r+0x234>
    9ae6:	2800      	cmp	r0, #0
    9ae8:	db0e      	blt.n	9b08 <_malloc_r+0x23c>
    9aea:	eb06 0308 	add.w	r3, r6, r8
    9aee:	685a      	ldr	r2, [r3, #4]
    9af0:	f042 0201 	orr.w	r2, r2, #1
    9af4:	605a      	str	r2, [r3, #4]
    9af6:	68f3      	ldr	r3, [r6, #12]
    9af8:	f856 2f08 	ldr.w	r2, [r6, #8]!
    9afc:	60d3      	str	r3, [r2, #12]
    9afe:	609a      	str	r2, [r3, #8]
    9b00:	4638      	mov	r0, r7
    9b02:	f000 f973 	bl	9dec <__malloc_unlock>
    9b06:	e0df      	b.n	9cc8 <_malloc_r+0x3fc>
    9b08:	68f6      	ldr	r6, [r6, #12]
    9b0a:	4566      	cmp	r6, ip
    9b0c:	d1d2      	bne.n	9ab4 <_malloc_r+0x1e8>
    9b0e:	f10e 0e01 	add.w	lr, lr, #1
    9b12:	f01e 0f03 	tst.w	lr, #3
    9b16:	d101      	bne.n	9b1c <_malloc_r+0x250>
    9b18:	4648      	mov	r0, r9
    9b1a:	e002      	b.n	9b22 <_malloc_r+0x256>
    9b1c:	f10c 0c08 	add.w	ip, ip, #8
    9b20:	e7c5      	b.n	9aae <_malloc_r+0x1e2>
    9b22:	f011 0f03 	tst.w	r1, #3
    9b26:	d104      	bne.n	9b32 <_malloc_r+0x266>
    9b28:	6869      	ldr	r1, [r5, #4]
    9b2a:	ea21 0103 	bic.w	r1, r1, r3
    9b2e:	6069      	str	r1, [r5, #4]
    9b30:	e006      	b.n	9b40 <_malloc_r+0x274>
    9b32:	4606      	mov	r6, r0
    9b34:	f856 0908 	ldr.w	r0, [r6], #-8
    9b38:	42b0      	cmp	r0, r6
    9b3a:	d101      	bne.n	9b40 <_malloc_r+0x274>
    9b3c:	3901      	subs	r1, #1
    9b3e:	e7f0      	b.n	9b22 <_malloc_r+0x256>
    9b40:	6868      	ldr	r0, [r5, #4]
    9b42:	005b      	lsls	r3, r3, #1
    9b44:	4283      	cmp	r3, r0
    9b46:	d809      	bhi.n	9b5c <_malloc_r+0x290>
    9b48:	b143      	cbz	r3, 9b5c <_malloc_r+0x290>
    9b4a:	4671      	mov	r1, lr
    9b4c:	e001      	b.n	9b52 <_malloc_r+0x286>
    9b4e:	3104      	adds	r1, #4
    9b50:	005b      	lsls	r3, r3, #1
    9b52:	4203      	tst	r3, r0
    9b54:	d1a7      	bne.n	9aa6 <_malloc_r+0x1da>
    9b56:	e7fa      	b.n	9b4e <_malloc_r+0x282>
    9b58:	10000174 	.word	0x10000174
    9b5c:	f8d5 8008 	ldr.w	r8, [r5, #8]
    9b60:	f8d8 3004 	ldr.w	r3, [r8, #4]
    9b64:	f023 0a03 	bic.w	sl, r3, #3
    9b68:	45a2      	cmp	sl, r4
    9b6a:	d304      	bcc.n	9b76 <_malloc_r+0x2aa>
    9b6c:	ebc4 030a 	rsb	r3, r4, sl
    9b70:	2b0f      	cmp	r3, #15
    9b72:	f300 809c 	bgt.w	9cae <_malloc_r+0x3e2>
    9b76:	4b56      	ldr	r3, [pc, #344]	; (9cd0 <_malloc_r+0x404>)
    9b78:	681b      	ldr	r3, [r3, #0]
    9b7a:	f103 0910 	add.w	r9, r3, #16
    9b7e:	4b55      	ldr	r3, [pc, #340]	; (9cd4 <_malloc_r+0x408>)
    9b80:	44a1      	add	r9, r4
    9b82:	681a      	ldr	r2, [r3, #0]
    9b84:	f1b2 3fff 	cmp.w	r2, #4294967295
    9b88:	d007      	beq.n	9b9a <_malloc_r+0x2ce>
    9b8a:	f509 697e 	add.w	r9, r9, #4064	; 0xfe0
    9b8e:	f109 091f 	add.w	r9, r9, #31
    9b92:	f429 697e 	bic.w	r9, r9, #4064	; 0xfe0
    9b96:	f029 091f 	bic.w	r9, r9, #31
    9b9a:	4638      	mov	r0, r7
    9b9c:	4649      	mov	r1, r9
    9b9e:	9301      	str	r3, [sp, #4]
    9ba0:	f000 fe08 	bl	a7b4 <_sbrk_r>
    9ba4:	9b01      	ldr	r3, [sp, #4]
    9ba6:	f1b0 3fff 	cmp.w	r0, #4294967295
    9baa:	4606      	mov	r6, r0
    9bac:	d071      	beq.n	9c92 <_malloc_r+0x3c6>
    9bae:	eb08 020a 	add.w	r2, r8, sl
    9bb2:	4290      	cmp	r0, r2
    9bb4:	d201      	bcs.n	9bba <_malloc_r+0x2ee>
    9bb6:	45a8      	cmp	r8, r5
    9bb8:	d16b      	bne.n	9c92 <_malloc_r+0x3c6>
    9bba:	4947      	ldr	r1, [pc, #284]	; (9cd8 <_malloc_r+0x40c>)
    9bbc:	4296      	cmp	r6, r2
    9bbe:	468b      	mov	fp, r1
    9bc0:	6808      	ldr	r0, [r1, #0]
    9bc2:	4448      	add	r0, r9
    9bc4:	6008      	str	r0, [r1, #0]
    9bc6:	d108      	bne.n	9bda <_malloc_r+0x30e>
    9bc8:	0531      	lsls	r1, r6, #20
    9bca:	0d09      	lsrs	r1, r1, #20
    9bcc:	b929      	cbnz	r1, 9bda <_malloc_r+0x30e>
    9bce:	68ab      	ldr	r3, [r5, #8]
    9bd0:	44d1      	add	r9, sl
    9bd2:	f049 0201 	orr.w	r2, r9, #1
    9bd6:	605a      	str	r2, [r3, #4]
    9bd8:	e04f      	b.n	9c7a <_malloc_r+0x3ae>
    9bda:	681b      	ldr	r3, [r3, #0]
    9bdc:	f1b3 3fff 	cmp.w	r3, #4294967295
    9be0:	d102      	bne.n	9be8 <_malloc_r+0x31c>
    9be2:	4b3c      	ldr	r3, [pc, #240]	; (9cd4 <_malloc_r+0x408>)
    9be4:	601e      	str	r6, [r3, #0]
    9be6:	e003      	b.n	9bf0 <_malloc_r+0x324>
    9be8:	1830      	adds	r0, r6, r0
    9bea:	1a82      	subs	r2, r0, r2
    9bec:	f8cb 2000 	str.w	r2, [fp]
    9bf0:	f016 0307 	ands.w	r3, r6, #7
    9bf4:	4638      	mov	r0, r7
    9bf6:	bf1c      	itt	ne
    9bf8:	f1c3 0308 	rsbne	r3, r3, #8
    9bfc:	18f6      	addne	r6, r6, r3
    9bfe:	f503 5380 	add.w	r3, r3, #4096	; 0x1000
    9c02:	44b1      	add	r9, r6
    9c04:	ea4f 5909 	mov.w	r9, r9, lsl #20
    9c08:	ea4f 5919 	mov.w	r9, r9, lsr #20
    9c0c:	ebc9 0903 	rsb	r9, r9, r3
    9c10:	4649      	mov	r1, r9
    9c12:	f000 fdcf 	bl	a7b4 <_sbrk_r>
    9c16:	f8db 3000 	ldr.w	r3, [fp]
    9c1a:	60ae      	str	r6, [r5, #8]
    9c1c:	f1b0 3fff 	cmp.w	r0, #4294967295
    9c20:	bf04      	itt	eq
    9c22:	4630      	moveq	r0, r6
    9c24:	f04f 0900 	moveq.w	r9, #0
    9c28:	1b80      	subs	r0, r0, r6
    9c2a:	45a8      	cmp	r8, r5
    9c2c:	4448      	add	r0, r9
    9c2e:	444b      	add	r3, r9
    9c30:	f040 0001 	orr.w	r0, r0, #1
    9c34:	f8cb 3000 	str.w	r3, [fp]
    9c38:	6070      	str	r0, [r6, #4]
    9c3a:	d01e      	beq.n	9c7a <_malloc_r+0x3ae>
    9c3c:	f1ba 0f0f 	cmp.w	sl, #15
    9c40:	d802      	bhi.n	9c48 <_malloc_r+0x37c>
    9c42:	2301      	movs	r3, #1
    9c44:	6073      	str	r3, [r6, #4]
    9c46:	e024      	b.n	9c92 <_malloc_r+0x3c6>
    9c48:	f8d8 3004 	ldr.w	r3, [r8, #4]
    9c4c:	f1aa 0a0c 	sub.w	sl, sl, #12
    9c50:	f02a 0a07 	bic.w	sl, sl, #7
    9c54:	2205      	movs	r2, #5
    9c56:	f003 0301 	and.w	r3, r3, #1
    9c5a:	f1ba 0f0f 	cmp.w	sl, #15
    9c5e:	ea4a 0303 	orr.w	r3, sl, r3
    9c62:	f8c8 3004 	str.w	r3, [r8, #4]
    9c66:	eb08 030a 	add.w	r3, r8, sl
    9c6a:	605a      	str	r2, [r3, #4]
    9c6c:	609a      	str	r2, [r3, #8]
    9c6e:	d904      	bls.n	9c7a <_malloc_r+0x3ae>
    9c70:	4638      	mov	r0, r7
    9c72:	f108 0108 	add.w	r1, r8, #8
    9c76:	f7ff fc51 	bl	951c <_free_r>
    9c7a:	4a18      	ldr	r2, [pc, #96]	; (9cdc <_malloc_r+0x410>)
    9c7c:	f8db 3000 	ldr.w	r3, [fp]
    9c80:	6811      	ldr	r1, [r2, #0]
    9c82:	428b      	cmp	r3, r1
    9c84:	bf88      	it	hi
    9c86:	6013      	strhi	r3, [r2, #0]
    9c88:	4a15      	ldr	r2, [pc, #84]	; (9ce0 <_malloc_r+0x414>)
    9c8a:	6811      	ldr	r1, [r2, #0]
    9c8c:	428b      	cmp	r3, r1
    9c8e:	bf88      	it	hi
    9c90:	6013      	strhi	r3, [r2, #0]
    9c92:	68ab      	ldr	r3, [r5, #8]
    9c94:	685b      	ldr	r3, [r3, #4]
    9c96:	f023 0303 	bic.w	r3, r3, #3
    9c9a:	42a3      	cmp	r3, r4
    9c9c:	d302      	bcc.n	9ca4 <_malloc_r+0x3d8>
    9c9e:	1b1b      	subs	r3, r3, r4
    9ca0:	2b0f      	cmp	r3, #15
    9ca2:	dc04      	bgt.n	9cae <_malloc_r+0x3e2>
    9ca4:	4638      	mov	r0, r7
    9ca6:	f000 f8a1 	bl	9dec <__malloc_unlock>
    9caa:	2600      	movs	r6, #0
    9cac:	e00c      	b.n	9cc8 <_malloc_r+0x3fc>
    9cae:	68ae      	ldr	r6, [r5, #8]
    9cb0:	f044 0201 	orr.w	r2, r4, #1
    9cb4:	f043 0301 	orr.w	r3, r3, #1
    9cb8:	1934      	adds	r4, r6, r4
    9cba:	60ac      	str	r4, [r5, #8]
    9cbc:	6072      	str	r2, [r6, #4]
    9cbe:	6063      	str	r3, [r4, #4]
    9cc0:	4638      	mov	r0, r7
    9cc2:	3608      	adds	r6, #8
    9cc4:	f000 f892 	bl	9dec <__malloc_unlock>
    9cc8:	4630      	mov	r0, r6
    9cca:	e8bd 8ffe 	ldmia.w	sp!, {r1, r2, r3, r4, r5, r6, r7, r8, r9, sl, fp, pc}
    9cce:	bf00      	nop
    9cd0:	100005d4 	.word	0x100005d4
    9cd4:	10000580 	.word	0x10000580
    9cd8:	100005d8 	.word	0x100005d8
    9cdc:	100005d0 	.word	0x100005d0
    9ce0:	100005cc 	.word	0x100005cc

00009ce4 <_mbrtowc_r>:
    9ce4:	e92d 43f7 	stmdb	sp!, {r0, r1, r2, r4, r5, r6, r7, r8, r9, lr}
    9ce8:	461f      	mov	r7, r3
    9cea:	4604      	mov	r4, r0
    9cec:	4688      	mov	r8, r1
    9cee:	9d0a      	ldr	r5, [sp, #40]	; 0x28
    9cf0:	4691      	mov	r9, r2
    9cf2:	4b0f      	ldr	r3, [pc, #60]	; (9d30 <_mbrtowc_r+0x4c>)
    9cf4:	b94a      	cbnz	r2, 9d0a <_mbrtowc_r+0x26>
    9cf6:	681e      	ldr	r6, [r3, #0]
    9cf8:	f7ff fd46 	bl	9788 <__locale_charset>
    9cfc:	9501      	str	r5, [sp, #4]
    9cfe:	4649      	mov	r1, r9
    9d00:	4a0c      	ldr	r2, [pc, #48]	; (9d34 <_mbrtowc_r+0x50>)
    9d02:	2301      	movs	r3, #1
    9d04:	9000      	str	r0, [sp, #0]
    9d06:	4620      	mov	r0, r4
    9d08:	e008      	b.n	9d1c <_mbrtowc_r+0x38>
    9d0a:	681e      	ldr	r6, [r3, #0]
    9d0c:	f7ff fd3c 	bl	9788 <__locale_charset>
    9d10:	4641      	mov	r1, r8
    9d12:	464a      	mov	r2, r9
    9d14:	463b      	mov	r3, r7
    9d16:	9501      	str	r5, [sp, #4]
    9d18:	9000      	str	r0, [sp, #0]
    9d1a:	4620      	mov	r0, r4
    9d1c:	47b0      	blx	r6
    9d1e:	f1b0 3fff 	cmp.w	r0, #4294967295
    9d22:	d103      	bne.n	9d2c <_mbrtowc_r+0x48>
    9d24:	2300      	movs	r3, #0
    9d26:	602b      	str	r3, [r5, #0]
    9d28:	338a      	adds	r3, #138	; 0x8a
    9d2a:	6023      	str	r3, [r4, #0]
    9d2c:	e8bd 83fe 	ldmia.w	sp!, {r1, r2, r3, r4, r5, r6, r7, r8, r9, pc}
    9d30:	10000584 	.word	0x10000584
    9d34:	00011217 	.word	0x00011217

00009d38 <mbrtowc>:
    9d38:	b573      	push	{r0, r1, r4, r5, r6, lr}
    9d3a:	4606      	mov	r6, r0
    9d3c:	9300      	str	r3, [sp, #0]
    9d3e:	460d      	mov	r5, r1
    9d40:	4b04      	ldr	r3, [pc, #16]	; (9d54 <mbrtowc+0x1c>)
    9d42:	4614      	mov	r4, r2
    9d44:	4631      	mov	r1, r6
    9d46:	462a      	mov	r2, r5
    9d48:	6818      	ldr	r0, [r3, #0]
    9d4a:	4623      	mov	r3, r4
    9d4c:	f7ff ffca 	bl	9ce4 <_mbrtowc_r>
    9d50:	bd7c      	pop	{r2, r3, r4, r5, r6, pc}
    9d52:	bf00      	nop
    9d54:	100000f4 	.word	0x100000f4

00009d58 <__ascii_mbtowc>:
    9d58:	b082      	sub	sp, #8
    9d5a:	b901      	cbnz	r1, 9d5e <__ascii_mbtowc+0x6>
    9d5c:	a901      	add	r1, sp, #4
    9d5e:	b13a      	cbz	r2, 9d70 <__ascii_mbtowc+0x18>
    9d60:	b143      	cbz	r3, 9d74 <__ascii_mbtowc+0x1c>
    9d62:	7813      	ldrb	r3, [r2, #0]
    9d64:	600b      	str	r3, [r1, #0]
    9d66:	7810      	ldrb	r0, [r2, #0]
    9d68:	3800      	subs	r0, #0
    9d6a:	bf18      	it	ne
    9d6c:	2001      	movne	r0, #1
    9d6e:	e003      	b.n	9d78 <__ascii_mbtowc+0x20>
    9d70:	4610      	mov	r0, r2
    9d72:	e001      	b.n	9d78 <__ascii_mbtowc+0x20>
    9d74:	f06f 0001 	mvn.w	r0, #1
    9d78:	b002      	add	sp, #8
    9d7a:	4770      	bx	lr

00009d7c <_mbtowc_r>:
    9d7c:	e92d 41f3 	stmdb	sp!, {r0, r1, r4, r5, r6, r7, r8, lr}
    9d80:	461e      	mov	r6, r3
    9d82:	4b08      	ldr	r3, [pc, #32]	; (9da4 <_mbtowc_r+0x28>)
    9d84:	4605      	mov	r5, r0
    9d86:	4688      	mov	r8, r1
    9d88:	4617      	mov	r7, r2
    9d8a:	681c      	ldr	r4, [r3, #0]
    9d8c:	f7ff fcfc 	bl	9788 <__locale_charset>
    9d90:	9b08      	ldr	r3, [sp, #32]
    9d92:	4641      	mov	r1, r8
    9d94:	463a      	mov	r2, r7
    9d96:	9301      	str	r3, [sp, #4]
    9d98:	4633      	mov	r3, r6
    9d9a:	9000      	str	r0, [sp, #0]
    9d9c:	4628      	mov	r0, r5
    9d9e:	47a0      	blx	r4
    9da0:	e8bd 81fc 	ldmia.w	sp!, {r2, r3, r4, r5, r6, r7, r8, pc}
    9da4:	10000584 	.word	0x10000584

00009da8 <memchr>:
    9da8:	b510      	push	{r4, lr}
    9daa:	b2c9      	uxtb	r1, r1
    9dac:	e003      	b.n	9db6 <memchr+0xe>
    9dae:	f810 4b01 	ldrb.w	r4, [r0], #1
    9db2:	428c      	cmp	r4, r1
    9db4:	d004      	beq.n	9dc0 <memchr+0x18>
    9db6:	3a01      	subs	r2, #1
    9db8:	4603      	mov	r3, r0
    9dba:	d2f8      	bcs.n	9dae <memchr+0x6>
    9dbc:	2000      	movs	r0, #0
    9dbe:	bd10      	pop	{r4, pc}
    9dc0:	4618      	mov	r0, r3
    9dc2:	bd10      	pop	{r4, pc}

00009dc4 <memcpy>:
    9dc4:	b510      	push	{r4, lr}
    9dc6:	1882      	adds	r2, r0, r2
    9dc8:	4603      	mov	r3, r0
    9dca:	e003      	b.n	9dd4 <memcpy+0x10>
    9dcc:	f811 4b01 	ldrb.w	r4, [r1], #1
    9dd0:	f803 4b01 	strb.w	r4, [r3], #1
    9dd4:	4293      	cmp	r3, r2
    9dd6:	d3f9      	bcc.n	9dcc <memcpy+0x8>
    9dd8:	bd10      	pop	{r4, pc}

00009dda <memset>:
    9dda:	1882      	adds	r2, r0, r2
    9ddc:	4603      	mov	r3, r0
    9dde:	e001      	b.n	9de4 <memset+0xa>
    9de0:	f803 1b01 	strb.w	r1, [r3], #1
    9de4:	4293      	cmp	r3, r2
    9de6:	d3fb      	bcc.n	9de0 <memset+0x6>
    9de8:	4770      	bx	lr

00009dea <__malloc_lock>:
    9dea:	4770      	bx	lr

00009dec <__malloc_unlock>:
    9dec:	4770      	bx	lr

00009dee <_Balloc>:
    9dee:	b570      	push	{r4, r5, r6, lr}
    9df0:	4604      	mov	r4, r0
    9df2:	6a46      	ldr	r6, [r0, #36]	; 0x24
    9df4:	460d      	mov	r5, r1
    9df6:	b93e      	cbnz	r6, 9e08 <_Balloc+0x1a>
    9df8:	2010      	movs	r0, #16
    9dfa:	f7ff fd57 	bl	98ac <malloc>
    9dfe:	6260      	str	r0, [r4, #36]	; 0x24
    9e00:	6046      	str	r6, [r0, #4]
    9e02:	6086      	str	r6, [r0, #8]
    9e04:	6006      	str	r6, [r0, #0]
    9e06:	60c6      	str	r6, [r0, #12]
    9e08:	6a66      	ldr	r6, [r4, #36]	; 0x24
    9e0a:	68f3      	ldr	r3, [r6, #12]
    9e0c:	b943      	cbnz	r3, 9e20 <_Balloc+0x32>
    9e0e:	4620      	mov	r0, r4
    9e10:	2104      	movs	r1, #4
    9e12:	2221      	movs	r2, #33	; 0x21
    9e14:	f003 fcd2 	bl	d7bc <_calloc_r>
    9e18:	6a63      	ldr	r3, [r4, #36]	; 0x24
    9e1a:	60f0      	str	r0, [r6, #12]
    9e1c:	68d8      	ldr	r0, [r3, #12]
    9e1e:	b1b0      	cbz	r0, 9e4e <_Balloc+0x60>
    9e20:	6a63      	ldr	r3, [r4, #36]	; 0x24
    9e22:	68db      	ldr	r3, [r3, #12]
    9e24:	f853 0025 	ldr.w	r0, [r3, r5, lsl #2]
    9e28:	b118      	cbz	r0, 9e32 <_Balloc+0x44>
    9e2a:	6802      	ldr	r2, [r0, #0]
    9e2c:	f843 2025 	str.w	r2, [r3, r5, lsl #2]
    9e30:	e00a      	b.n	9e48 <_Balloc+0x5a>
    9e32:	2101      	movs	r1, #1
    9e34:	4620      	mov	r0, r4
    9e36:	fa11 f605 	lsls.w	r6, r1, r5
    9e3a:	1d72      	adds	r2, r6, #5
    9e3c:	0092      	lsls	r2, r2, #2
    9e3e:	f003 fcbd 	bl	d7bc <_calloc_r>
    9e42:	b120      	cbz	r0, 9e4e <_Balloc+0x60>
    9e44:	6045      	str	r5, [r0, #4]
    9e46:	6086      	str	r6, [r0, #8]
    9e48:	2300      	movs	r3, #0
    9e4a:	6103      	str	r3, [r0, #16]
    9e4c:	60c3      	str	r3, [r0, #12]
    9e4e:	bd70      	pop	{r4, r5, r6, pc}

00009e50 <_Bfree>:
    9e50:	b570      	push	{r4, r5, r6, lr}
    9e52:	4604      	mov	r4, r0
    9e54:	6a45      	ldr	r5, [r0, #36]	; 0x24
    9e56:	460e      	mov	r6, r1
    9e58:	b93d      	cbnz	r5, 9e6a <_Bfree+0x1a>
    9e5a:	2010      	movs	r0, #16
    9e5c:	f7ff fd26 	bl	98ac <malloc>
    9e60:	6260      	str	r0, [r4, #36]	; 0x24
    9e62:	6045      	str	r5, [r0, #4]
    9e64:	6085      	str	r5, [r0, #8]
    9e66:	6005      	str	r5, [r0, #0]
    9e68:	60c5      	str	r5, [r0, #12]
    9e6a:	b13e      	cbz	r6, 9e7c <_Bfree+0x2c>
    9e6c:	6a63      	ldr	r3, [r4, #36]	; 0x24
    9e6e:	6872      	ldr	r2, [r6, #4]
    9e70:	68db      	ldr	r3, [r3, #12]
    9e72:	f853 1022 	ldr.w	r1, [r3, r2, lsl #2]
    9e76:	6031      	str	r1, [r6, #0]
    9e78:	f843 6022 	str.w	r6, [r3, r2, lsl #2]
    9e7c:	bd70      	pop	{r4, r5, r6, pc}

00009e7e <__multadd>:
    9e7e:	e92d 41f0 	stmdb	sp!, {r4, r5, r6, r7, r8, lr}
    9e82:	460c      	mov	r4, r1
    9e84:	461f      	mov	r7, r3
    9e86:	690e      	ldr	r6, [r1, #16]
    9e88:	4605      	mov	r5, r0
    9e8a:	3114      	adds	r1, #20
    9e8c:	2300      	movs	r3, #0
    9e8e:	f8d1 c000 	ldr.w	ip, [r1]
    9e92:	3301      	adds	r3, #1
    9e94:	42b3      	cmp	r3, r6
    9e96:	fa1f f08c 	uxth.w	r0, ip
    9e9a:	ea4f 4c1c 	mov.w	ip, ip, lsr #16
    9e9e:	fb00 7002 	mla	r0, r0, r2, r7
    9ea2:	fb0c fc02 	mul.w	ip, ip, r2
    9ea6:	eb0c 4c10 	add.w	ip, ip, r0, lsr #16
    9eaa:	b280      	uxth	r0, r0
    9eac:	ea4f 471c 	mov.w	r7, ip, lsr #16
    9eb0:	ea4f 4c0c 	mov.w	ip, ip, lsl #16
    9eb4:	4460      	add	r0, ip
    9eb6:	f841 0b04 	str.w	r0, [r1], #4
    9eba:	dbe8      	blt.n	9e8e <__multadd+0x10>
    9ebc:	b1d7      	cbz	r7, 9ef4 <__multadd+0x76>
    9ebe:	68a3      	ldr	r3, [r4, #8]
    9ec0:	429e      	cmp	r6, r3
    9ec2:	db12      	blt.n	9eea <__multadd+0x6c>
    9ec4:	6861      	ldr	r1, [r4, #4]
    9ec6:	4628      	mov	r0, r5
    9ec8:	3101      	adds	r1, #1
    9eca:	f7ff ff90 	bl	9dee <_Balloc>
    9ece:	6922      	ldr	r2, [r4, #16]
    9ed0:	f104 010c 	add.w	r1, r4, #12
    9ed4:	3202      	adds	r2, #2
    9ed6:	0092      	lsls	r2, r2, #2
    9ed8:	4680      	mov	r8, r0
    9eda:	300c      	adds	r0, #12
    9edc:	f7ff ff72 	bl	9dc4 <memcpy>
    9ee0:	4621      	mov	r1, r4
    9ee2:	4628      	mov	r0, r5
    9ee4:	4644      	mov	r4, r8
    9ee6:	f7ff ffb3 	bl	9e50 <_Bfree>
    9eea:	eb04 0386 	add.w	r3, r4, r6, lsl #2
    9eee:	3601      	adds	r6, #1
    9ef0:	6126      	str	r6, [r4, #16]
    9ef2:	615f      	str	r7, [r3, #20]
    9ef4:	4620      	mov	r0, r4
    9ef6:	e8bd 81f0 	ldmia.w	sp!, {r4, r5, r6, r7, r8, pc}

00009efa <__s2b>:
    9efa:	e92d 43f8 	stmdb	sp!, {r3, r4, r5, r6, r7, r8, r9, lr}
    9efe:	4606      	mov	r6, r0
    9f00:	460d      	mov	r5, r1
    9f02:	f103 0008 	add.w	r0, r3, #8
    9f06:	2109      	movs	r1, #9
    9f08:	4698      	mov	r8, r3
    9f0a:	4617      	mov	r7, r2
    9f0c:	f005 fccc 	bl	f8a8 <__aeabi_idiv>
    9f10:	2301      	movs	r3, #1
    9f12:	2100      	movs	r1, #0
    9f14:	e001      	b.n	9f1a <__s2b+0x20>
    9f16:	005b      	lsls	r3, r3, #1
    9f18:	3101      	adds	r1, #1
    9f1a:	4298      	cmp	r0, r3
    9f1c:	dcfb      	bgt.n	9f16 <__s2b+0x1c>
    9f1e:	4630      	mov	r0, r6
    9f20:	f7ff ff65 	bl	9dee <_Balloc>
    9f24:	9b08      	ldr	r3, [sp, #32]
    9f26:	6143      	str	r3, [r0, #20]
    9f28:	2301      	movs	r3, #1
    9f2a:	2f09      	cmp	r7, #9
    9f2c:	4601      	mov	r1, r0
    9f2e:	6103      	str	r3, [r0, #16]
    9f30:	dd10      	ble.n	9f54 <__s2b+0x5a>
    9f32:	f105 0909 	add.w	r9, r5, #9
    9f36:	2409      	movs	r4, #9
    9f38:	5d2b      	ldrb	r3, [r5, r4]
    9f3a:	220a      	movs	r2, #10
    9f3c:	4630      	mov	r0, r6
    9f3e:	3401      	adds	r4, #1
    9f40:	3b30      	subs	r3, #48	; 0x30
    9f42:	f7ff ff9c 	bl	9e7e <__multadd>
    9f46:	42bc      	cmp	r4, r7
    9f48:	4601      	mov	r1, r0
    9f4a:	d1f5      	bne.n	9f38 <__s2b+0x3e>
    9f4c:	eb09 0504 	add.w	r5, r9, r4
    9f50:	3d08      	subs	r5, #8
    9f52:	e00b      	b.n	9f6c <__s2b+0x72>
    9f54:	350a      	adds	r5, #10
    9f56:	2409      	movs	r4, #9
    9f58:	e008      	b.n	9f6c <__s2b+0x72>
    9f5a:	f815 3b01 	ldrb.w	r3, [r5], #1
    9f5e:	4630      	mov	r0, r6
    9f60:	220a      	movs	r2, #10
    9f62:	3401      	adds	r4, #1
    9f64:	3b30      	subs	r3, #48	; 0x30
    9f66:	f7ff ff8a 	bl	9e7e <__multadd>
    9f6a:	4601      	mov	r1, r0
    9f6c:	4544      	cmp	r4, r8
    9f6e:	dbf4      	blt.n	9f5a <__s2b+0x60>
    9f70:	4608      	mov	r0, r1
    9f72:	e8bd 83f8 	ldmia.w	sp!, {r3, r4, r5, r6, r7, r8, r9, pc}

00009f76 <__hi0bits>:
    9f76:	0c02      	lsrs	r2, r0, #16
    9f78:	4603      	mov	r3, r0
    9f7a:	0412      	lsls	r2, r2, #16
    9f7c:	b912      	cbnz	r2, 9f84 <__hi0bits+0xe>
    9f7e:	0403      	lsls	r3, r0, #16
    9f80:	2010      	movs	r0, #16
    9f82:	e000      	b.n	9f86 <__hi0bits+0x10>
    9f84:	2000      	movs	r0, #0
    9f86:	f013 4f7f 	tst.w	r3, #4278190080	; 0xff000000
    9f8a:	d101      	bne.n	9f90 <__hi0bits+0x1a>
    9f8c:	3008      	adds	r0, #8
    9f8e:	021b      	lsls	r3, r3, #8
    9f90:	f013 4f70 	tst.w	r3, #4026531840	; 0xf0000000
    9f94:	d101      	bne.n	9f9a <__hi0bits+0x24>
    9f96:	3004      	adds	r0, #4
    9f98:	011b      	lsls	r3, r3, #4
    9f9a:	f013 4f40 	tst.w	r3, #3221225472	; 0xc0000000
    9f9e:	d101      	bne.n	9fa4 <__hi0bits+0x2e>
    9fa0:	3002      	adds	r0, #2
    9fa2:	009b      	lsls	r3, r3, #2
    9fa4:	2b00      	cmp	r3, #0
    9fa6:	db05      	blt.n	9fb4 <__hi0bits+0x3e>
    9fa8:	f013 4f80 	tst.w	r3, #1073741824	; 0x40000000
    9fac:	d001      	beq.n	9fb2 <__hi0bits+0x3c>
    9fae:	3001      	adds	r0, #1
    9fb0:	4770      	bx	lr
    9fb2:	2020      	movs	r0, #32
    9fb4:	4770      	bx	lr

00009fb6 <__lo0bits>:
    9fb6:	6803      	ldr	r3, [r0, #0]
    9fb8:	4602      	mov	r2, r0
    9fba:	f013 0007 	ands.w	r0, r3, #7
    9fbe:	d00d      	beq.n	9fdc <__lo0bits+0x26>
    9fc0:	f013 0f01 	tst.w	r3, #1
    9fc4:	d125      	bne.n	a012 <__lo0bits+0x5c>
    9fc6:	f013 0f02 	tst.w	r3, #2
    9fca:	d003      	beq.n	9fd4 <__lo0bits+0x1e>
    9fcc:	085b      	lsrs	r3, r3, #1
    9fce:	2001      	movs	r0, #1
    9fd0:	6013      	str	r3, [r2, #0]
    9fd2:	4770      	bx	lr
    9fd4:	089b      	lsrs	r3, r3, #2
    9fd6:	2002      	movs	r0, #2
    9fd8:	6013      	str	r3, [r2, #0]
    9fda:	4770      	bx	lr
    9fdc:	b299      	uxth	r1, r3
    9fde:	b909      	cbnz	r1, 9fe4 <__lo0bits+0x2e>
    9fe0:	0c1b      	lsrs	r3, r3, #16
    9fe2:	2010      	movs	r0, #16
    9fe4:	f013 0fff 	tst.w	r3, #255	; 0xff
    9fe8:	d101      	bne.n	9fee <__lo0bits+0x38>
    9fea:	3008      	adds	r0, #8
    9fec:	0a1b      	lsrs	r3, r3, #8
    9fee:	f013 0f0f 	tst.w	r3, #15
    9ff2:	d101      	bne.n	9ff8 <__lo0bits+0x42>
    9ff4:	3004      	adds	r0, #4
    9ff6:	091b      	lsrs	r3, r3, #4
    9ff8:	f013 0f03 	tst.w	r3, #3
    9ffc:	d101      	bne.n	a002 <__lo0bits+0x4c>
    9ffe:	3002      	adds	r0, #2
    a000:	089b      	lsrs	r3, r3, #2
    a002:	f013 0f01 	tst.w	r3, #1
    a006:	d102      	bne.n	a00e <__lo0bits+0x58>
    a008:	085b      	lsrs	r3, r3, #1
    a00a:	d004      	beq.n	a016 <__lo0bits+0x60>
    a00c:	3001      	adds	r0, #1
    a00e:	6013      	str	r3, [r2, #0]
    a010:	4770      	bx	lr
    a012:	2000      	movs	r0, #0
    a014:	4770      	bx	lr
    a016:	2020      	movs	r0, #32
    a018:	4770      	bx	lr

0000a01a <__i2b>:
    a01a:	b510      	push	{r4, lr}
    a01c:	460c      	mov	r4, r1
    a01e:	2101      	movs	r1, #1
    a020:	f7ff fee5 	bl	9dee <_Balloc>
    a024:	2201      	movs	r2, #1
    a026:	6144      	str	r4, [r0, #20]
    a028:	6102      	str	r2, [r0, #16]
    a02a:	bd10      	pop	{r4, pc}

0000a02c <__multiply>:
    a02c:	e92d 4ff0 	stmdb	sp!, {r4, r5, r6, r7, r8, r9, sl, fp, lr}
    a030:	4616      	mov	r6, r2
    a032:	690a      	ldr	r2, [r1, #16]
    a034:	460d      	mov	r5, r1
    a036:	6933      	ldr	r3, [r6, #16]
    a038:	b085      	sub	sp, #20
    a03a:	429a      	cmp	r2, r3
    a03c:	bfbc      	itt	lt
    a03e:	4635      	movlt	r5, r6
    a040:	460e      	movlt	r6, r1
    a042:	f8d5 8010 	ldr.w	r8, [r5, #16]
    a046:	6937      	ldr	r7, [r6, #16]
    a048:	68ab      	ldr	r3, [r5, #8]
    a04a:	6869      	ldr	r1, [r5, #4]
    a04c:	eb07 0408 	add.w	r4, r7, r8
    a050:	429c      	cmp	r4, r3
    a052:	bfc8      	it	gt
    a054:	3101      	addgt	r1, #1
    a056:	f7ff feca 	bl	9dee <_Balloc>
    a05a:	f100 0314 	add.w	r3, r0, #20
    a05e:	eb00 0284 	add.w	r2, r0, r4, lsl #2
    a062:	3214      	adds	r2, #20
    a064:	9201      	str	r2, [sp, #4]
    a066:	461a      	mov	r2, r3
    a068:	e002      	b.n	a070 <__multiply+0x44>
    a06a:	2100      	movs	r1, #0
    a06c:	f842 1b04 	str.w	r1, [r2], #4
    a070:	9901      	ldr	r1, [sp, #4]
    a072:	428a      	cmp	r2, r1
    a074:	d3f9      	bcc.n	a06a <__multiply+0x3e>
    a076:	f105 0b14 	add.w	fp, r5, #20
    a07a:	eb06 0787 	add.w	r7, r6, r7, lsl #2
    a07e:	eb05 0588 	add.w	r5, r5, r8, lsl #2
    a082:	3714      	adds	r7, #20
    a084:	3514      	adds	r5, #20
    a086:	9703      	str	r7, [sp, #12]
    a088:	9502      	str	r5, [sp, #8]
    a08a:	f106 0214 	add.w	r2, r6, #20
    a08e:	e04e      	b.n	a12e <__multiply+0x102>
    a090:	f852 7b04 	ldr.w	r7, [r2], #4
    a094:	b2bf      	uxth	r7, r7
    a096:	b317      	cbz	r7, a0de <__multiply+0xb2>
    a098:	465e      	mov	r6, fp
    a09a:	4619      	mov	r1, r3
    a09c:	2500      	movs	r5, #0
    a09e:	f856 cb04 	ldr.w	ip, [r6], #4
    a0a2:	f8d1 a000 	ldr.w	sl, [r1]
    a0a6:	fa1f f98c 	uxth.w	r9, ip
    a0aa:	ea4f 4c1c 	mov.w	ip, ip, lsr #16
    a0ae:	fa1f f88a 	uxth.w	r8, sl
    a0b2:	ea4f 4a1a 	mov.w	sl, sl, lsr #16
    a0b6:	fb07 8809 	mla	r8, r7, r9, r8
    a0ba:	f8dd 9008 	ldr.w	r9, [sp, #8]
    a0be:	fb07 ac0c 	mla	ip, r7, ip, sl
    a0c2:	45b1      	cmp	r9, r6
    a0c4:	44a8      	add	r8, r5
    a0c6:	eb0c 4c18 	add.w	ip, ip, r8, lsr #16
    a0ca:	fa1f f888 	uxth.w	r8, r8
    a0ce:	ea48 480c 	orr.w	r8, r8, ip, lsl #16
    a0d2:	ea4f 451c 	mov.w	r5, ip, lsr #16
    a0d6:	f841 8b04 	str.w	r8, [r1], #4
    a0da:	d8e0      	bhi.n	a09e <__multiply+0x72>
    a0dc:	600d      	str	r5, [r1, #0]
    a0de:	f832 7c02 	ldrh.w	r7, [r2, #-2]
    a0e2:	b31f      	cbz	r7, a12c <__multiply+0x100>
    a0e4:	681d      	ldr	r5, [r3, #0]
    a0e6:	465e      	mov	r6, fp
    a0e8:	4698      	mov	r8, r3
    a0ea:	4619      	mov	r1, r3
    a0ec:	f04f 0c00 	mov.w	ip, #0
    a0f0:	f8b6 a000 	ldrh.w	sl, [r6]
    a0f4:	b2ad      	uxth	r5, r5
    a0f6:	f8b1 9002 	ldrh.w	r9, [r1, #2]
    a0fa:	fb07 990a 	mla	r9, r7, sl, r9
    a0fe:	44cc      	add	ip, r9
    a100:	ea45 450c 	orr.w	r5, r5, ip, lsl #16
    a104:	f841 5b04 	str.w	r5, [r1], #4
    a108:	f856 9b04 	ldr.w	r9, [r6], #4
    a10c:	f858 5f04 	ldr.w	r5, [r8, #4]!
    a110:	ea4f 4919 	mov.w	r9, r9, lsr #16
    a114:	b2ad      	uxth	r5, r5
    a116:	fb07 5509 	mla	r5, r7, r9, r5
    a11a:	f8dd 9008 	ldr.w	r9, [sp, #8]
    a11e:	45b1      	cmp	r9, r6
    a120:	eb05 451c 	add.w	r5, r5, ip, lsr #16
    a124:	ea4f 4c15 	mov.w	ip, r5, lsr #16
    a128:	d8e2      	bhi.n	a0f0 <__multiply+0xc4>
    a12a:	600d      	str	r5, [r1, #0]
    a12c:	3304      	adds	r3, #4
    a12e:	f8dd c00c 	ldr.w	ip, [sp, #12]
    a132:	4594      	cmp	ip, r2
    a134:	d8ac      	bhi.n	a090 <__multiply+0x64>
    a136:	9b01      	ldr	r3, [sp, #4]
    a138:	e000      	b.n	a13c <__multiply+0x110>
    a13a:	3c01      	subs	r4, #1
    a13c:	2c00      	cmp	r4, #0
    a13e:	dd03      	ble.n	a148 <__multiply+0x11c>
    a140:	f853 2d04 	ldr.w	r2, [r3, #-4]!
    a144:	2a00      	cmp	r2, #0
    a146:	d0f8      	beq.n	a13a <__multiply+0x10e>
    a148:	6104      	str	r4, [r0, #16]
    a14a:	b005      	add	sp, #20
    a14c:	e8bd 8ff0 	ldmia.w	sp!, {r4, r5, r6, r7, r8, r9, sl, fp, pc}

0000a150 <__pow5mult>:
    a150:	f012 0303 	ands.w	r3, r2, #3
    a154:	e92d 41f0 	stmdb	sp!, {r4, r5, r6, r7, r8, lr}
    a158:	4604      	mov	r4, r0
    a15a:	460f      	mov	r7, r1
    a15c:	4615      	mov	r5, r2
    a15e:	d007      	beq.n	a170 <__pow5mult+0x20>
    a160:	4a23      	ldr	r2, [pc, #140]	; (a1f0 <__pow5mult+0xa0>)
    a162:	3b01      	subs	r3, #1
    a164:	f852 2023 	ldr.w	r2, [r2, r3, lsl #2]
    a168:	2300      	movs	r3, #0
    a16a:	f7ff fe88 	bl	9e7e <__multadd>
    a16e:	4607      	mov	r7, r0
    a170:	10ad      	asrs	r5, r5, #2
    a172:	d039      	beq.n	a1e8 <__pow5mult+0x98>
    a174:	6a66      	ldr	r6, [r4, #36]	; 0x24
    a176:	b93e      	cbnz	r6, a188 <__pow5mult+0x38>
    a178:	2010      	movs	r0, #16
    a17a:	f7ff fb97 	bl	98ac <malloc>
    a17e:	6260      	str	r0, [r4, #36]	; 0x24
    a180:	6046      	str	r6, [r0, #4]
    a182:	6086      	str	r6, [r0, #8]
    a184:	6006      	str	r6, [r0, #0]
    a186:	60c6      	str	r6, [r0, #12]
    a188:	f8d4 8024 	ldr.w	r8, [r4, #36]	; 0x24
    a18c:	f8d8 6008 	ldr.w	r6, [r8, #8]
    a190:	b966      	cbnz	r6, a1ac <__pow5mult+0x5c>
    a192:	4620      	mov	r0, r4
    a194:	f240 2171 	movw	r1, #625	; 0x271
    a198:	f7ff ff3f 	bl	a01a <__i2b>
    a19c:	2300      	movs	r3, #0
    a19e:	f8c8 0008 	str.w	r0, [r8, #8]
    a1a2:	4606      	mov	r6, r0
    a1a4:	6003      	str	r3, [r0, #0]
    a1a6:	e001      	b.n	a1ac <__pow5mult+0x5c>
    a1a8:	4640      	mov	r0, r8
    a1aa:	4606      	mov	r6, r0
    a1ac:	f015 0f01 	tst.w	r5, #1
    a1b0:	d00a      	beq.n	a1c8 <__pow5mult+0x78>
    a1b2:	4639      	mov	r1, r7
    a1b4:	4632      	mov	r2, r6
    a1b6:	4620      	mov	r0, r4
    a1b8:	f7ff ff38 	bl	a02c <__multiply>
    a1bc:	4639      	mov	r1, r7
    a1be:	4680      	mov	r8, r0
    a1c0:	4620      	mov	r0, r4
    a1c2:	f7ff fe45 	bl	9e50 <_Bfree>
    a1c6:	4647      	mov	r7, r8
    a1c8:	106d      	asrs	r5, r5, #1
    a1ca:	d00d      	beq.n	a1e8 <__pow5mult+0x98>
    a1cc:	f8d6 8000 	ldr.w	r8, [r6]
    a1d0:	f1b8 0f00 	cmp.w	r8, #0
    a1d4:	d1e8      	bne.n	a1a8 <__pow5mult+0x58>
    a1d6:	4620      	mov	r0, r4
    a1d8:	4631      	mov	r1, r6
    a1da:	4632      	mov	r2, r6
    a1dc:	f7ff ff26 	bl	a02c <__multiply>
    a1e0:	6030      	str	r0, [r6, #0]
    a1e2:	f8c0 8000 	str.w	r8, [r0]
    a1e6:	e7e0      	b.n	a1aa <__pow5mult+0x5a>
    a1e8:	4638      	mov	r0, r7
    a1ea:	e8bd 81f0 	ldmia.w	sp!, {r4, r5, r6, r7, r8, pc}
    a1ee:	bf00      	nop
    a1f0:	00011218 	.word	0x00011218

0000a1f4 <__lshift>:
    a1f4:	e92d 43f8 	stmdb	sp!, {r3, r4, r5, r6, r7, r8, r9, lr}
    a1f8:	460c      	mov	r4, r1
    a1fa:	ea4f 1962 	mov.w	r9, r2, asr #5
    a1fe:	4605      	mov	r5, r0
    a200:	6926      	ldr	r6, [r4, #16]
    a202:	4690      	mov	r8, r2
    a204:	6849      	ldr	r1, [r1, #4]
    a206:	3601      	adds	r6, #1
    a208:	68a3      	ldr	r3, [r4, #8]
    a20a:	444e      	add	r6, r9
    a20c:	e001      	b.n	a212 <__lshift+0x1e>
    a20e:	3101      	adds	r1, #1
    a210:	005b      	lsls	r3, r3, #1
    a212:	429e      	cmp	r6, r3
    a214:	dcfb      	bgt.n	a20e <__lshift+0x1a>
    a216:	4628      	mov	r0, r5
    a218:	f7ff fde9 	bl	9dee <_Balloc>
    a21c:	2200      	movs	r2, #0
    a21e:	4607      	mov	r7, r0
    a220:	f100 0314 	add.w	r3, r0, #20
    a224:	e003      	b.n	a22e <__lshift+0x3a>
    a226:	3201      	adds	r2, #1
    a228:	2100      	movs	r1, #0
    a22a:	f843 1b04 	str.w	r1, [r3], #4
    a22e:	454a      	cmp	r2, r9
    a230:	dbf9      	blt.n	a226 <__lshift+0x32>
    a232:	6920      	ldr	r0, [r4, #16]
    a234:	f104 0114 	add.w	r1, r4, #20
    a238:	eb04 0080 	add.w	r0, r4, r0, lsl #2
    a23c:	3014      	adds	r0, #20
    a23e:	f018 081f 	ands.w	r8, r8, #31
    a242:	d014      	beq.n	a26e <__lshift+0x7a>
    a244:	f1c8 0e20 	rsb	lr, r8, #32
    a248:	2200      	movs	r2, #0
    a24a:	f8d1 c000 	ldr.w	ip, [r1]
    a24e:	fa0c fc08 	lsl.w	ip, ip, r8
    a252:	ea42 020c 	orr.w	r2, r2, ip
    a256:	f843 2b04 	str.w	r2, [r3], #4
    a25a:	f851 2b04 	ldr.w	r2, [r1], #4
    a25e:	4288      	cmp	r0, r1
    a260:	fa22 f20e 	lsr.w	r2, r2, lr
    a264:	d8f1      	bhi.n	a24a <__lshift+0x56>
    a266:	601a      	str	r2, [r3, #0]
    a268:	b13a      	cbz	r2, a27a <__lshift+0x86>
    a26a:	3601      	adds	r6, #1
    a26c:	e005      	b.n	a27a <__lshift+0x86>
    a26e:	f851 2b04 	ldr.w	r2, [r1], #4
    a272:	4288      	cmp	r0, r1
    a274:	f843 2b04 	str.w	r2, [r3], #4
    a278:	d8f9      	bhi.n	a26e <__lshift+0x7a>
    a27a:	4628      	mov	r0, r5
    a27c:	3e01      	subs	r6, #1
    a27e:	4621      	mov	r1, r4
    a280:	613e      	str	r6, [r7, #16]
    a282:	f7ff fde5 	bl	9e50 <_Bfree>
    a286:	4638      	mov	r0, r7
    a288:	e8bd 83f8 	ldmia.w	sp!, {r3, r4, r5, r6, r7, r8, r9, pc}

0000a28c <__mcmp>:
    a28c:	4603      	mov	r3, r0
    a28e:	690a      	ldr	r2, [r1, #16]
    a290:	6900      	ldr	r0, [r0, #16]
    a292:	b530      	push	{r4, r5, lr}
    a294:	1a80      	subs	r0, r0, r2
    a296:	d115      	bne.n	a2c4 <__mcmp+0x38>
    a298:	3204      	adds	r2, #4
    a29a:	f103 0414 	add.w	r4, r3, #20
    a29e:	0092      	lsls	r2, r2, #2
    a2a0:	189b      	adds	r3, r3, r2
    a2a2:	188a      	adds	r2, r1, r2
    a2a4:	3304      	adds	r3, #4
    a2a6:	3204      	adds	r2, #4
    a2a8:	f853 5d04 	ldr.w	r5, [r3, #-4]!
    a2ac:	f852 1d04 	ldr.w	r1, [r2, #-4]!
    a2b0:	428d      	cmp	r5, r1
    a2b2:	d003      	beq.n	a2bc <__mcmp+0x30>
    a2b4:	d205      	bcs.n	a2c2 <__mcmp+0x36>
    a2b6:	f04f 30ff 	mov.w	r0, #4294967295
    a2ba:	bd30      	pop	{r4, r5, pc}
    a2bc:	429c      	cmp	r4, r3
    a2be:	d3f3      	bcc.n	a2a8 <__mcmp+0x1c>
    a2c0:	bd30      	pop	{r4, r5, pc}
    a2c2:	2001      	movs	r0, #1
    a2c4:	bd30      	pop	{r4, r5, pc}

0000a2c6 <__mdiff>:
    a2c6:	e92d 47f0 	stmdb	sp!, {r4, r5, r6, r7, r8, r9, sl, lr}
    a2ca:	4605      	mov	r5, r0
    a2cc:	460c      	mov	r4, r1
    a2ce:	4608      	mov	r0, r1
    a2d0:	4611      	mov	r1, r2
    a2d2:	4616      	mov	r6, r2
    a2d4:	f7ff ffda 	bl	a28c <__mcmp>
    a2d8:	1e07      	subs	r7, r0, #0
    a2da:	d108      	bne.n	a2ee <__mdiff+0x28>
    a2dc:	4628      	mov	r0, r5
    a2de:	4639      	mov	r1, r7
    a2e0:	f7ff fd85 	bl	9dee <_Balloc>
    a2e4:	2301      	movs	r3, #1
    a2e6:	6147      	str	r7, [r0, #20]
    a2e8:	6103      	str	r3, [r0, #16]
    a2ea:	e8bd 87f0 	ldmia.w	sp!, {r4, r5, r6, r7, r8, r9, sl, pc}
    a2ee:	db01      	blt.n	a2f4 <__mdiff+0x2e>
    a2f0:	2700      	movs	r7, #0
    a2f2:	e003      	b.n	a2fc <__mdiff+0x36>
    a2f4:	4623      	mov	r3, r4
    a2f6:	2701      	movs	r7, #1
    a2f8:	4634      	mov	r4, r6
    a2fa:	461e      	mov	r6, r3
    a2fc:	6861      	ldr	r1, [r4, #4]
    a2fe:	4628      	mov	r0, r5
    a300:	f7ff fd75 	bl	9dee <_Balloc>
    a304:	6932      	ldr	r2, [r6, #16]
    a306:	6923      	ldr	r3, [r4, #16]
    a308:	eb06 0882 	add.w	r8, r6, r2, lsl #2
    a30c:	3614      	adds	r6, #20
    a30e:	eb04 0c83 	add.w	ip, r4, r3, lsl #2
    a312:	f108 0814 	add.w	r8, r8, #20
    a316:	f10c 0c14 	add.w	ip, ip, #20
    a31a:	3414      	adds	r4, #20
    a31c:	2200      	movs	r2, #0
    a31e:	60c7      	str	r7, [r0, #12]
    a320:	f100 0714 	add.w	r7, r0, #20
    a324:	f854 5b04 	ldr.w	r5, [r4], #4
    a328:	f856 1b04 	ldr.w	r1, [r6], #4
    a32c:	fa1f fa85 	uxth.w	sl, r5
    a330:	fa1f f981 	uxth.w	r9, r1
    a334:	0c09      	lsrs	r1, r1, #16
    a336:	ebc9 090a 	rsb	r9, r9, sl
    a33a:	ebc1 4115 	rsb	r1, r1, r5, lsr #16
    a33e:	4491      	add	r9, r2
    a340:	4625      	mov	r5, r4
    a342:	eb01 4129 	add.w	r1, r1, r9, asr #16
    a346:	fa1f f989 	uxth.w	r9, r9
    a34a:	140a      	asrs	r2, r1, #16
    a34c:	45b0      	cmp	r8, r6
    a34e:	ea49 4101 	orr.w	r1, r9, r1, lsl #16
    a352:	f847 1b04 	str.w	r1, [r7], #4
    a356:	4639      	mov	r1, r7
    a358:	d8e4      	bhi.n	a324 <__mdiff+0x5e>
    a35a:	e00c      	b.n	a376 <__mdiff+0xb0>
    a35c:	f855 4b04 	ldr.w	r4, [r5], #4
    a360:	b2a6      	uxth	r6, r4
    a362:	0c24      	lsrs	r4, r4, #16
    a364:	1996      	adds	r6, r2, r6
    a366:	eb04 4426 	add.w	r4, r4, r6, asr #16
    a36a:	b2b6      	uxth	r6, r6
    a36c:	1422      	asrs	r2, r4, #16
    a36e:	ea46 4404 	orr.w	r4, r6, r4, lsl #16
    a372:	f841 4b04 	str.w	r4, [r1], #4
    a376:	4565      	cmp	r5, ip
    a378:	d3f0      	bcc.n	a35c <__mdiff+0x96>
    a37a:	e000      	b.n	a37e <__mdiff+0xb8>
    a37c:	3b01      	subs	r3, #1
    a37e:	f851 2d04 	ldr.w	r2, [r1, #-4]!
    a382:	2a00      	cmp	r2, #0
    a384:	d0fa      	beq.n	a37c <__mdiff+0xb6>
    a386:	6103      	str	r3, [r0, #16]
    a388:	e8bd 87f0 	ldmia.w	sp!, {r4, r5, r6, r7, r8, r9, sl, pc}

0000a38c <__ulp>:
    a38c:	4b0e      	ldr	r3, [pc, #56]	; (a3c8 <__ulp+0x3c>)
    a38e:	ea01 0303 	and.w	r3, r1, r3
    a392:	f1a3 7350 	sub.w	r3, r3, #54525952	; 0x3400000
    a396:	2b00      	cmp	r3, #0
    a398:	dd01      	ble.n	a39e <__ulp+0x12>
    a39a:	4619      	mov	r1, r3
    a39c:	e007      	b.n	a3ae <__ulp+0x22>
    a39e:	425b      	negs	r3, r3
    a3a0:	151b      	asrs	r3, r3, #20
    a3a2:	2b13      	cmp	r3, #19
    a3a4:	dc05      	bgt.n	a3b2 <__ulp+0x26>
    a3a6:	f44f 2200 	mov.w	r2, #524288	; 0x80000
    a3aa:	fa52 f103 	asrs.w	r1, r2, r3
    a3ae:	2000      	movs	r0, #0
    a3b0:	4770      	bx	lr
    a3b2:	f1a3 0214 	sub.w	r2, r3, #20
    a3b6:	2100      	movs	r1, #0
    a3b8:	2301      	movs	r3, #1
    a3ba:	2a1e      	cmp	r2, #30
    a3bc:	bfdc      	itt	le
    a3be:	f1c2 021f 	rsble	r2, r2, #31
    a3c2:	4093      	lslle	r3, r2
    a3c4:	4618      	mov	r0, r3
    a3c6:	4770      	bx	lr
    a3c8:	7ff00000 	.word	0x7ff00000

0000a3cc <__b2d>:
    a3cc:	6903      	ldr	r3, [r0, #16]
    a3ce:	e92d 41f0 	stmdb	sp!, {r4, r5, r6, r7, r8, lr}
    a3d2:	3304      	adds	r3, #4
    a3d4:	f100 0614 	add.w	r6, r0, #20
    a3d8:	4688      	mov	r8, r1
    a3da:	f850 5023 	ldr.w	r5, [r0, r3, lsl #2]
    a3de:	eb00 0483 	add.w	r4, r0, r3, lsl #2
    a3e2:	4627      	mov	r7, r4
    a3e4:	4628      	mov	r0, r5
    a3e6:	f7ff fdc6 	bl	9f76 <__hi0bits>
    a3ea:	280a      	cmp	r0, #10
    a3ec:	f1c0 0320 	rsb	r3, r0, #32
    a3f0:	f8c8 3000 	str.w	r3, [r8]
    a3f4:	dc13      	bgt.n	a41e <__b2d+0x52>
    a3f6:	f1c0 010b 	rsb	r1, r0, #11
    a3fa:	fa35 f701 	lsrs.w	r7, r5, r1
    a3fe:	42b4      	cmp	r4, r6
    a400:	f047 537e 	orr.w	r3, r7, #1065353216	; 0x3f800000
    a404:	bf8c      	ite	hi
    a406:	f854 4c04 	ldrhi.w	r4, [r4, #-4]
    a40a:	2400      	movls	r4, #0
    a40c:	3015      	adds	r0, #21
    a40e:	f443 03e0 	orr.w	r3, r3, #7340032	; 0x700000
    a412:	4085      	lsls	r5, r0
    a414:	fa34 f101 	lsrs.w	r1, r4, r1
    a418:	ea41 0205 	orr.w	r2, r1, r5
    a41c:	e024      	b.n	a468 <__b2d+0x9c>
    a41e:	42b4      	cmp	r4, r6
    a420:	d903      	bls.n	a42a <__b2d+0x5e>
    a422:	3c04      	subs	r4, #4
    a424:	f857 1c04 	ldr.w	r1, [r7, #-4]
    a428:	e000      	b.n	a42c <__b2d+0x60>
    a42a:	2100      	movs	r1, #0
    a42c:	380b      	subs	r0, #11
    a42e:	d016      	beq.n	a45e <__b2d+0x92>
    a430:	4085      	lsls	r5, r0
    a432:	42b4      	cmp	r4, r6
    a434:	f1c0 0720 	rsb	r7, r0, #32
    a438:	f045 557e 	orr.w	r5, r5, #1065353216	; 0x3f800000
    a43c:	bf8c      	ite	hi
    a43e:	f854 4c04 	ldrhi.w	r4, [r4, #-4]
    a442:	2400      	movls	r4, #0
    a444:	fa21 fc07 	lsr.w	ip, r1, r7
    a448:	f445 05e0 	orr.w	r5, r5, #7340032	; 0x700000
    a44c:	fa11 f000 	lsls.w	r0, r1, r0
    a450:	ea45 030c 	orr.w	r3, r5, ip
    a454:	fa34 f707 	lsrs.w	r7, r4, r7
    a458:	ea47 0200 	orr.w	r2, r7, r0
    a45c:	e004      	b.n	a468 <__b2d+0x9c>
    a45e:	f045 537e 	orr.w	r3, r5, #1065353216	; 0x3f800000
    a462:	460a      	mov	r2, r1
    a464:	f443 03e0 	orr.w	r3, r3, #7340032	; 0x700000
    a468:	4610      	mov	r0, r2
    a46a:	4619      	mov	r1, r3
    a46c:	e8bd 81f0 	ldmia.w	sp!, {r4, r5, r6, r7, r8, pc}

0000a470 <__d2b>:
    a470:	e92d 43f7 	stmdb	sp!, {r0, r1, r2, r4, r5, r6, r7, r8, r9, lr}
    a474:	2101      	movs	r1, #1
    a476:	461d      	mov	r5, r3
    a478:	9f0a      	ldr	r7, [sp, #40]	; 0x28
    a47a:	9e0b      	ldr	r6, [sp, #44]	; 0x2c
    a47c:	4614      	mov	r4, r2
    a47e:	f7ff fcb6 	bl	9dee <_Balloc>
    a482:	f025 4900 	bic.w	r9, r5, #2147483648	; 0x80000000
    a486:	f025 437f 	bic.w	r3, r5, #4278190080	; 0xff000000
    a48a:	f423 0370 	bic.w	r3, r3, #15728640	; 0xf00000
    a48e:	ea5f 5919 	movs.w	r9, r9, lsr #20
    a492:	9300      	str	r3, [sp, #0]
    a494:	bf1c      	itt	ne
    a496:	f443 1380 	orrne.w	r3, r3, #1048576	; 0x100000
    a49a:	9300      	strne	r3, [sp, #0]
    a49c:	4680      	mov	r8, r0
    a49e:	b1f4      	cbz	r4, a4de <__d2b+0x6e>
    a4a0:	a802      	add	r0, sp, #8
    a4a2:	f840 4d04 	str.w	r4, [r0, #-4]!
    a4a6:	f7ff fd86 	bl	9fb6 <__lo0bits>
    a4aa:	9b01      	ldr	r3, [sp, #4]
    a4ac:	b158      	cbz	r0, a4c6 <__d2b+0x56>
    a4ae:	9a00      	ldr	r2, [sp, #0]
    a4b0:	f1c0 0120 	rsb	r1, r0, #32
    a4b4:	fa12 f101 	lsls.w	r1, r2, r1
    a4b8:	40c2      	lsrs	r2, r0
    a4ba:	ea41 0303 	orr.w	r3, r1, r3
    a4be:	9200      	str	r2, [sp, #0]
    a4c0:	f8c8 3014 	str.w	r3, [r8, #20]
    a4c4:	e001      	b.n	a4ca <__d2b+0x5a>
    a4c6:	f8c8 3014 	str.w	r3, [r8, #20]
    a4ca:	9c00      	ldr	r4, [sp, #0]
    a4cc:	f8c8 4018 	str.w	r4, [r8, #24]
    a4d0:	2c00      	cmp	r4, #0
    a4d2:	bf0c      	ite	eq
    a4d4:	2401      	moveq	r4, #1
    a4d6:	2402      	movne	r4, #2
    a4d8:	f8c8 4010 	str.w	r4, [r8, #16]
    a4dc:	e009      	b.n	a4f2 <__d2b+0x82>
    a4de:	4668      	mov	r0, sp
    a4e0:	2401      	movs	r4, #1
    a4e2:	f7ff fd68 	bl	9fb6 <__lo0bits>
    a4e6:	9b00      	ldr	r3, [sp, #0]
    a4e8:	f8c8 4010 	str.w	r4, [r8, #16]
    a4ec:	f8c8 3014 	str.w	r3, [r8, #20]
    a4f0:	3020      	adds	r0, #32
    a4f2:	f1b9 0f00 	cmp.w	r9, #0
    a4f6:	d00a      	beq.n	a50e <__d2b+0x9e>
    a4f8:	f5a9 6986 	sub.w	r9, r9, #1072	; 0x430
    a4fc:	f1a9 0903 	sub.w	r9, r9, #3
    a500:	eb09 0300 	add.w	r3, r9, r0
    a504:	f1c0 0035 	rsb	r0, r0, #53	; 0x35
    a508:	603b      	str	r3, [r7, #0]
    a50a:	6030      	str	r0, [r6, #0]
    a50c:	e00b      	b.n	a526 <__d2b+0xb6>
    a50e:	eb08 0384 	add.w	r3, r8, r4, lsl #2
    a512:	f5a0 6086 	sub.w	r0, r0, #1072	; 0x430
    a516:	3802      	subs	r0, #2
    a518:	6038      	str	r0, [r7, #0]
    a51a:	6918      	ldr	r0, [r3, #16]
    a51c:	0164      	lsls	r4, r4, #5
    a51e:	f7ff fd2a 	bl	9f76 <__hi0bits>
    a522:	1a24      	subs	r4, r4, r0
    a524:	6034      	str	r4, [r6, #0]
    a526:	4640      	mov	r0, r8
    a528:	e8bd 83fe 	ldmia.w	sp!, {r1, r2, r3, r4, r5, r6, r7, r8, r9, pc}

0000a52c <__ratio>:
    a52c:	b5f7      	push	{r0, r1, r2, r4, r5, r6, r7, lr}
    a52e:	460e      	mov	r6, r1
    a530:	a901      	add	r1, sp, #4
    a532:	4607      	mov	r7, r0
    a534:	f7ff ff4a 	bl	a3cc <__b2d>
    a538:	4604      	mov	r4, r0
    a53a:	460d      	mov	r5, r1
    a53c:	4630      	mov	r0, r6
    a53e:	4669      	mov	r1, sp
    a540:	f7ff ff44 	bl	a3cc <__b2d>
    a544:	693f      	ldr	r7, [r7, #16]
    a546:	4602      	mov	r2, r0
    a548:	460b      	mov	r3, r1
    a54a:	9801      	ldr	r0, [sp, #4]
    a54c:	9900      	ldr	r1, [sp, #0]
    a54e:	1a41      	subs	r1, r0, r1
    a550:	6930      	ldr	r0, [r6, #16]
    a552:	1a38      	subs	r0, r7, r0
    a554:	0140      	lsls	r0, r0, #5
    a556:	1809      	adds	r1, r1, r0
    a558:	2900      	cmp	r1, #0
    a55a:	dd02      	ble.n	a562 <__ratio+0x36>
    a55c:	0509      	lsls	r1, r1, #20
    a55e:	194d      	adds	r5, r1, r5
    a560:	e001      	b.n	a566 <__ratio+0x3a>
    a562:	0509      	lsls	r1, r1, #20
    a564:	1a5b      	subs	r3, r3, r1
    a566:	4620      	mov	r0, r4
    a568:	4629      	mov	r1, r5
    a56a:	f005 fdd9 	bl	10120 <__aeabi_ddiv>
    a56e:	b003      	add	sp, #12
    a570:	bdf0      	pop	{r4, r5, r6, r7, pc}
	...

0000a574 <_mprec_log10>:
    a574:	2817      	cmp	r0, #23
    a576:	b510      	push	{r4, lr}
    a578:	4604      	mov	r4, r0
    a57a:	dc05      	bgt.n	a588 <_mprec_log10+0x14>
    a57c:	4b07      	ldr	r3, [pc, #28]	; (a59c <_mprec_log10+0x28>)
    a57e:	eb03 04c0 	add.w	r4, r3, r0, lsl #3
    a582:	e9d4 0100 	ldrd	r0, r1, [r4]
    a586:	bd10      	pop	{r4, pc}
    a588:	4905      	ldr	r1, [pc, #20]	; (a5a0 <_mprec_log10+0x2c>)
    a58a:	2000      	movs	r0, #0
    a58c:	2200      	movs	r2, #0
    a58e:	4b05      	ldr	r3, [pc, #20]	; (a5a4 <_mprec_log10+0x30>)
    a590:	f005 fc9c 	bl	fecc <__aeabi_dmul>
    a594:	3c01      	subs	r4, #1
    a596:	d1f9      	bne.n	a58c <_mprec_log10+0x18>
    a598:	bd10      	pop	{r4, pc}
    a59a:	bf00      	nop
    a59c:	00011228 	.word	0x00011228
    a5a0:	3ff00000 	.word	0x3ff00000
    a5a4:	40240000 	.word	0x40240000

0000a5a8 <__copybits>:
    a5a8:	1e4b      	subs	r3, r1, #1
    a5aa:	6911      	ldr	r1, [r2, #16]
    a5ac:	b510      	push	{r4, lr}
    a5ae:	115b      	asrs	r3, r3, #5
    a5b0:	3301      	adds	r3, #1
    a5b2:	eb02 0181 	add.w	r1, r2, r1, lsl #2
    a5b6:	3114      	adds	r1, #20
    a5b8:	3214      	adds	r2, #20
    a5ba:	eb00 0383 	add.w	r3, r0, r3, lsl #2
    a5be:	e003      	b.n	a5c8 <__copybits+0x20>
    a5c0:	f852 4b04 	ldr.w	r4, [r2], #4
    a5c4:	f840 4b04 	str.w	r4, [r0], #4
    a5c8:	4291      	cmp	r1, r2
    a5ca:	d8f9      	bhi.n	a5c0 <__copybits+0x18>
    a5cc:	e002      	b.n	a5d4 <__copybits+0x2c>
    a5ce:	2200      	movs	r2, #0
    a5d0:	f840 2b04 	str.w	r2, [r0], #4
    a5d4:	4298      	cmp	r0, r3
    a5d6:	d3fa      	bcc.n	a5ce <__copybits+0x26>
    a5d8:	bd10      	pop	{r4, pc}

0000a5da <__any_on>:
    a5da:	6902      	ldr	r2, [r0, #16]
    a5dc:	114b      	asrs	r3, r1, #5
    a5de:	b530      	push	{r4, r5, lr}
    a5e0:	4293      	cmp	r3, r2
    a5e2:	f100 0414 	add.w	r4, r0, #20
    a5e6:	dc0d      	bgt.n	a604 <__any_on+0x2a>
    a5e8:	da0d      	bge.n	a606 <__any_on+0x2c>
    a5ea:	f011 011f 	ands.w	r1, r1, #31
    a5ee:	d00a      	beq.n	a606 <__any_on+0x2c>
    a5f0:	eb00 0283 	add.w	r2, r0, r3, lsl #2
    a5f4:	6952      	ldr	r2, [r2, #20]
    a5f6:	fa32 f501 	lsrs.w	r5, r2, r1
    a5fa:	fa15 f101 	lsls.w	r1, r5, r1
    a5fe:	4291      	cmp	r1, r2
    a600:	d10c      	bne.n	a61c <__any_on+0x42>
    a602:	e000      	b.n	a606 <__any_on+0x2c>
    a604:	4613      	mov	r3, r2
    a606:	eb00 0383 	add.w	r3, r0, r3, lsl #2
    a60a:	3314      	adds	r3, #20
    a60c:	e002      	b.n	a614 <__any_on+0x3a>
    a60e:	f853 2d04 	ldr.w	r2, [r3, #-4]!
    a612:	b92a      	cbnz	r2, a620 <__any_on+0x46>
    a614:	429c      	cmp	r4, r3
    a616:	d3fa      	bcc.n	a60e <__any_on+0x34>
    a618:	2000      	movs	r0, #0
    a61a:	bd30      	pop	{r4, r5, pc}
    a61c:	2001      	movs	r0, #1
    a61e:	bd30      	pop	{r4, r5, pc}
    a620:	2001      	movs	r0, #1
    a622:	bd30      	pop	{r4, r5, pc}

0000a624 <lflush>:
    a624:	8983      	ldrh	r3, [r0, #12]
    a626:	f003 0309 	and.w	r3, r3, #9
    a62a:	2b09      	cmp	r3, #9
    a62c:	d101      	bne.n	a632 <lflush+0xe>
    a62e:	f7fe bdd5 	b.w	91dc <fflush>
    a632:	2000      	movs	r0, #0
    a634:	4770      	bx	lr
	...

0000a638 <__srefill_r>:
    a638:	b570      	push	{r4, r5, r6, lr}
    a63a:	460c      	mov	r4, r1
    a63c:	4606      	mov	r6, r0
    a63e:	b118      	cbz	r0, a648 <__srefill_r+0x10>
    a640:	6983      	ldr	r3, [r0, #24]
    a642:	b90b      	cbnz	r3, a648 <__srefill_r+0x10>
    a644:	f7fe fe24 	bl	9290 <__sinit>
    a648:	4b3c      	ldr	r3, [pc, #240]	; (a73c <__srefill_r+0x104>)
    a64a:	429c      	cmp	r4, r3
    a64c:	d101      	bne.n	a652 <__srefill_r+0x1a>
    a64e:	6874      	ldr	r4, [r6, #4]
    a650:	e008      	b.n	a664 <__srefill_r+0x2c>
    a652:	4b3b      	ldr	r3, [pc, #236]	; (a740 <__srefill_r+0x108>)
    a654:	429c      	cmp	r4, r3
    a656:	d101      	bne.n	a65c <__srefill_r+0x24>
    a658:	68b4      	ldr	r4, [r6, #8]
    a65a:	e003      	b.n	a664 <__srefill_r+0x2c>
    a65c:	4b39      	ldr	r3, [pc, #228]	; (a744 <__srefill_r+0x10c>)
    a65e:	429c      	cmp	r4, r3
    a660:	bf08      	it	eq
    a662:	68f4      	ldreq	r4, [r6, #12]
    a664:	89a3      	ldrh	r3, [r4, #12]
    a666:	f413 5f00 	tst.w	r3, #8192	; 0x2000
    a66a:	d106      	bne.n	a67a <__srefill_r+0x42>
    a66c:	f443 5300 	orr.w	r3, r3, #8192	; 0x2000
    a670:	81a3      	strh	r3, [r4, #12]
    a672:	6e63      	ldr	r3, [r4, #100]	; 0x64
    a674:	f423 5300 	bic.w	r3, r3, #8192	; 0x2000
    a678:	6663      	str	r3, [r4, #100]	; 0x64
    a67a:	89a2      	ldrh	r2, [r4, #12]
    a67c:	2300      	movs	r3, #0
    a67e:	6063      	str	r3, [r4, #4]
    a680:	b293      	uxth	r3, r2
    a682:	f013 0f20 	tst.w	r3, #32
    a686:	d153      	bne.n	a730 <__srefill_r+0xf8>
    a688:	f013 0f04 	tst.w	r3, #4
    a68c:	d11c      	bne.n	a6c8 <__srefill_r+0x90>
    a68e:	f013 0f10 	tst.w	r3, #16
    a692:	d105      	bne.n	a6a0 <__srefill_r+0x68>
    a694:	2309      	movs	r3, #9
    a696:	f042 0240 	orr.w	r2, r2, #64	; 0x40
    a69a:	6033      	str	r3, [r6, #0]
    a69c:	81a2      	strh	r2, [r4, #12]
    a69e:	e047      	b.n	a730 <__srefill_r+0xf8>
    a6a0:	f013 0f08 	tst.w	r3, #8
    a6a4:	d00b      	beq.n	a6be <__srefill_r+0x86>
    a6a6:	4630      	mov	r0, r6
    a6a8:	4621      	mov	r1, r4
    a6aa:	f7fe fcdd 	bl	9068 <_fflush_r>
    a6ae:	2800      	cmp	r0, #0
    a6b0:	d13e      	bne.n	a730 <__srefill_r+0xf8>
    a6b2:	89a3      	ldrh	r3, [r4, #12]
    a6b4:	60a0      	str	r0, [r4, #8]
    a6b6:	f023 0308 	bic.w	r3, r3, #8
    a6ba:	61a0      	str	r0, [r4, #24]
    a6bc:	81a3      	strh	r3, [r4, #12]
    a6be:	89a3      	ldrh	r3, [r4, #12]
    a6c0:	f043 0304 	orr.w	r3, r3, #4
    a6c4:	81a3      	strh	r3, [r4, #12]
    a6c6:	e010      	b.n	a6ea <__srefill_r+0xb2>
    a6c8:	6b61      	ldr	r1, [r4, #52]	; 0x34
    a6ca:	b171      	cbz	r1, a6ea <__srefill_r+0xb2>
    a6cc:	f104 0344 	add.w	r3, r4, #68	; 0x44
    a6d0:	4299      	cmp	r1, r3
    a6d2:	d002      	beq.n	a6da <__srefill_r+0xa2>
    a6d4:	4630      	mov	r0, r6
    a6d6:	f7fe ff21 	bl	951c <_free_r>
    a6da:	6c23      	ldr	r3, [r4, #64]	; 0x40
    a6dc:	2000      	movs	r0, #0
    a6de:	6360      	str	r0, [r4, #52]	; 0x34
    a6e0:	6063      	str	r3, [r4, #4]
    a6e2:	b113      	cbz	r3, a6ea <__srefill_r+0xb2>
    a6e4:	6be3      	ldr	r3, [r4, #60]	; 0x3c
    a6e6:	6023      	str	r3, [r4, #0]
    a6e8:	bd70      	pop	{r4, r5, r6, pc}
    a6ea:	6923      	ldr	r3, [r4, #16]
    a6ec:	b91b      	cbnz	r3, a6f6 <__srefill_r+0xbe>
    a6ee:	4630      	mov	r0, r6
    a6f0:	4621      	mov	r1, r4
    a6f2:	f7ff f86b 	bl	97cc <__smakebuf_r>
    a6f6:	89a3      	ldrh	r3, [r4, #12]
    a6f8:	f013 0f03 	tst.w	r3, #3
    a6fc:	d004      	beq.n	a708 <__srefill_r+0xd0>
    a6fe:	4b12      	ldr	r3, [pc, #72]	; (a748 <__srefill_r+0x110>)
    a700:	4912      	ldr	r1, [pc, #72]	; (a74c <__srefill_r+0x114>)
    a702:	6818      	ldr	r0, [r3, #0]
    a704:	f7fe ffca 	bl	969c <_fwalk>
    a708:	6922      	ldr	r2, [r4, #16]
    a70a:	4630      	mov	r0, r6
    a70c:	6a65      	ldr	r5, [r4, #36]	; 0x24
    a70e:	6a21      	ldr	r1, [r4, #32]
    a710:	6022      	str	r2, [r4, #0]
    a712:	6963      	ldr	r3, [r4, #20]
    a714:	47a8      	blx	r5
    a716:	2800      	cmp	r0, #0
    a718:	6060      	str	r0, [r4, #4]
    a71a:	dc0c      	bgt.n	a736 <__srefill_r+0xfe>
    a71c:	89a3      	ldrh	r3, [r4, #12]
    a71e:	d102      	bne.n	a726 <__srefill_r+0xee>
    a720:	f043 0320 	orr.w	r3, r3, #32
    a724:	e003      	b.n	a72e <__srefill_r+0xf6>
    a726:	f043 0340 	orr.w	r3, r3, #64	; 0x40
    a72a:	2200      	movs	r2, #0
    a72c:	6062      	str	r2, [r4, #4]
    a72e:	81a3      	strh	r3, [r4, #12]
    a730:	f04f 30ff 	mov.w	r0, #4294967295
    a734:	bd70      	pop	{r4, r5, r6, pc}
    a736:	2000      	movs	r0, #0
    a738:	bd70      	pop	{r4, r5, r6, pc}
    a73a:	bf00      	nop
    a73c:	000111a8 	.word	0x000111a8
    a740:	000111c8 	.word	0x000111c8
    a744:	000111e8 	.word	0x000111e8
    a748:	0001120c 	.word	0x0001120c
    a74c:	0000a625 	.word	0x0000a625

0000a750 <__fpclassifyd>:
    a750:	460b      	mov	r3, r1
    a752:	b113      	cbz	r3, a75a <__fpclassifyd+0xa>
    a754:	f1b1 4f00 	cmp.w	r1, #2147483648	; 0x80000000
    a758:	d100      	bne.n	a75c <__fpclassifyd+0xc>
    a75a:	b1e0      	cbz	r0, a796 <__fpclassifyd+0x46>
    a75c:	4a12      	ldr	r2, [pc, #72]	; (a7a8 <__fpclassifyd+0x58>)
    a75e:	f5a1 1380 	sub.w	r3, r1, #1048576	; 0x100000
    a762:	4293      	cmp	r3, r2
    a764:	d919      	bls.n	a79a <__fpclassifyd+0x4a>
    a766:	f101 43fe 	add.w	r3, r1, #2130706432	; 0x7f000000
    a76a:	f503 0370 	add.w	r3, r3, #15728640	; 0xf00000
    a76e:	4293      	cmp	r3, r2
    a770:	d913      	bls.n	a79a <__fpclassifyd+0x4a>
    a772:	4b0e      	ldr	r3, [pc, #56]	; (a7ac <__fpclassifyd+0x5c>)
    a774:	4299      	cmp	r1, r3
    a776:	d912      	bls.n	a79e <__fpclassifyd+0x4e>
    a778:	f101 4200 	add.w	r2, r1, #2147483648	; 0x80000000
    a77c:	429a      	cmp	r2, r3
    a77e:	d90e      	bls.n	a79e <__fpclassifyd+0x4e>
    a780:	4b0b      	ldr	r3, [pc, #44]	; (a7b0 <__fpclassifyd+0x60>)
    a782:	4299      	cmp	r1, r3
    a784:	d002      	beq.n	a78c <__fpclassifyd+0x3c>
    a786:	f511 1f80 	cmn.w	r1, #1048576	; 0x100000
    a78a:	d10a      	bne.n	a7a2 <__fpclassifyd+0x52>
    a78c:	f1d0 0001 	rsbs	r0, r0, #1
    a790:	bf38      	it	cc
    a792:	2000      	movcc	r0, #0
    a794:	4770      	bx	lr
    a796:	2002      	movs	r0, #2
    a798:	4770      	bx	lr
    a79a:	2004      	movs	r0, #4
    a79c:	4770      	bx	lr
    a79e:	2003      	movs	r0, #3
    a7a0:	4770      	bx	lr
    a7a2:	2000      	movs	r0, #0
    a7a4:	4770      	bx	lr
    a7a6:	bf00      	nop
    a7a8:	7fdfffff 	.word	0x7fdfffff
    a7ac:	000fffff 	.word	0x000fffff
    a7b0:	7ff00000 	.word	0x7ff00000

0000a7b4 <_sbrk_r>:
    a7b4:	b538      	push	{r3, r4, r5, lr}
    a7b6:	4605      	mov	r5, r0
    a7b8:	4c06      	ldr	r4, [pc, #24]	; (a7d4 <_sbrk_r+0x20>)
    a7ba:	4608      	mov	r0, r1
    a7bc:	2300      	movs	r3, #0
    a7be:	6023      	str	r3, [r4, #0]
    a7c0:	f004 fd6a 	bl	f298 <_sbrk>
    a7c4:	f1b0 3fff 	cmp.w	r0, #4294967295
    a7c8:	d102      	bne.n	a7d0 <_sbrk_r+0x1c>
    a7ca:	6823      	ldr	r3, [r4, #0]
    a7cc:	b103      	cbz	r3, a7d0 <_sbrk_r+0x1c>
    a7ce:	602b      	str	r3, [r5, #0]
    a7d0:	bd38      	pop	{r3, r4, r5, pc}
    a7d2:	bf00      	nop
    a7d4:	10000728 	.word	0x10000728

0000a7d8 <__sccl>:
    a7d8:	4603      	mov	r3, r0
    a7da:	4608      	mov	r0, r1
    a7dc:	b5f0      	push	{r4, r5, r6, r7, lr}
    a7de:	f810 2b01 	ldrb.w	r2, [r0], #1
    a7e2:	2a5e      	cmp	r2, #94	; 0x5e
    a7e4:	d103      	bne.n	a7ee <__sccl+0x16>
    a7e6:	784a      	ldrb	r2, [r1, #1]
    a7e8:	3001      	adds	r0, #1
    a7ea:	2401      	movs	r4, #1
    a7ec:	e000      	b.n	a7f0 <__sccl+0x18>
    a7ee:	2400      	movs	r4, #0
    a7f0:	2100      	movs	r1, #0
    a7f2:	545c      	strb	r4, [r3, r1]
    a7f4:	3101      	adds	r1, #1
    a7f6:	f5b1 7f80 	cmp.w	r1, #256	; 0x100
    a7fa:	d1fa      	bne.n	a7f2 <__sccl+0x1a>
    a7fc:	b90a      	cbnz	r2, a802 <__sccl+0x2a>
    a7fe:	3801      	subs	r0, #1
    a800:	bdf0      	pop	{r4, r5, r6, r7, pc}
    a802:	f1c4 0701 	rsb	r7, r4, #1
    a806:	e001      	b.n	a80c <__sccl+0x34>
    a808:	460a      	mov	r2, r1
    a80a:	4620      	mov	r0, r4
    a80c:	463e      	mov	r6, r7
    a80e:	549f      	strb	r7, [r3, r2]
    a810:	4604      	mov	r4, r0
    a812:	f814 1b01 	ldrb.w	r1, [r4], #1
    a816:	292d      	cmp	r1, #45	; 0x2d
    a818:	d003      	beq.n	a822 <__sccl+0x4a>
    a81a:	295d      	cmp	r1, #93	; 0x5d
    a81c:	d00c      	beq.n	a838 <__sccl+0x60>
    a81e:	b161      	cbz	r1, a83a <__sccl+0x62>
    a820:	e7f2      	b.n	a808 <__sccl+0x30>
    a822:	7845      	ldrb	r5, [r0, #1]
    a824:	2d5d      	cmp	r5, #93	; 0x5d
    a826:	d0ef      	beq.n	a808 <__sccl+0x30>
    a828:	4295      	cmp	r5, r2
    a82a:	dbed      	blt.n	a808 <__sccl+0x30>
    a82c:	3002      	adds	r0, #2
    a82e:	3201      	adds	r2, #1
    a830:	42aa      	cmp	r2, r5
    a832:	549e      	strb	r6, [r3, r2]
    a834:	dbfb      	blt.n	a82e <__sccl+0x56>
    a836:	e7eb      	b.n	a810 <__sccl+0x38>
    a838:	4620      	mov	r0, r4
    a83a:	bdf0      	pop	{r4, r5, r6, r7, pc}

0000a83c <nanf>:
    a83c:	4800      	ldr	r0, [pc, #0]	; (a840 <nanf+0x4>)
    a83e:	4770      	bx	lr
    a840:	7fc00000 	.word	0x7fc00000

0000a844 <_sprintf_r>:
    a844:	b40c      	push	{r2, r3}
    a846:	b510      	push	{r4, lr}
    a848:	b09c      	sub	sp, #112	; 0x70
    a84a:	ab1e      	add	r3, sp, #120	; 0x78
    a84c:	f44f 7402 	mov.w	r4, #520	; 0x208
    a850:	9101      	str	r1, [sp, #4]
    a852:	f853 2b04 	ldr.w	r2, [r3], #4
    a856:	9105      	str	r1, [sp, #20]
    a858:	f06f 4100 	mvn.w	r1, #2147483648	; 0x80000000
    a85c:	9103      	str	r1, [sp, #12]
    a85e:	9106      	str	r1, [sp, #24]
    a860:	f04f 31ff 	mov.w	r1, #4294967295
    a864:	f8ad 1012 	strh.w	r1, [sp, #18]
    a868:	a901      	add	r1, sp, #4
    a86a:	931b      	str	r3, [sp, #108]	; 0x6c
    a86c:	f8ad 4010 	strh.w	r4, [sp, #16]
    a870:	f001 f974 	bl	bb5c <_svfprintf_r>
    a874:	9b01      	ldr	r3, [sp, #4]
    a876:	2200      	movs	r2, #0
    a878:	701a      	strb	r2, [r3, #0]
    a87a:	b01c      	add	sp, #112	; 0x70
    a87c:	e8bd 4010 	ldmia.w	sp!, {r4, lr}
    a880:	b002      	add	sp, #8
    a882:	4770      	bx	lr

0000a884 <sprintf>:
    a884:	b40e      	push	{r1, r2, r3}
    a886:	f44f 7102 	mov.w	r1, #520	; 0x208
    a88a:	b500      	push	{lr}
    a88c:	b09c      	sub	sp, #112	; 0x70
    a88e:	ab1d      	add	r3, sp, #116	; 0x74
    a890:	f8ad 1010 	strh.w	r1, [sp, #16]
    a894:	f06f 4100 	mvn.w	r1, #2147483648	; 0x80000000
    a898:	9103      	str	r1, [sp, #12]
    a89a:	9106      	str	r1, [sp, #24]
    a89c:	f04f 31ff 	mov.w	r1, #4294967295
    a8a0:	f8ad 1012 	strh.w	r1, [sp, #18]
    a8a4:	4908      	ldr	r1, [pc, #32]	; (a8c8 <sprintf+0x44>)
    a8a6:	f853 2b04 	ldr.w	r2, [r3], #4
    a8aa:	9001      	str	r0, [sp, #4]
    a8ac:	9005      	str	r0, [sp, #20]
    a8ae:	6808      	ldr	r0, [r1, #0]
    a8b0:	a901      	add	r1, sp, #4
    a8b2:	931b      	str	r3, [sp, #108]	; 0x6c
    a8b4:	f001 f952 	bl	bb5c <_svfprintf_r>
    a8b8:	9b01      	ldr	r3, [sp, #4]
    a8ba:	2200      	movs	r2, #0
    a8bc:	701a      	strb	r2, [r3, #0]
    a8be:	b01c      	add	sp, #112	; 0x70
    a8c0:	f85d eb04 	ldr.w	lr, [sp], #4
    a8c4:	b003      	add	sp, #12
    a8c6:	4770      	bx	lr
    a8c8:	100000f4 	.word	0x100000f4

0000a8cc <__sread>:
    a8cc:	b510      	push	{r4, lr}
    a8ce:	460c      	mov	r4, r1
    a8d0:	f9b1 100e 	ldrsh.w	r1, [r1, #14]
    a8d4:	f003 fd66 	bl	e3a4 <_read_r>
    a8d8:	2800      	cmp	r0, #0
    a8da:	db03      	blt.n	a8e4 <__sread+0x18>
    a8dc:	6d63      	ldr	r3, [r4, #84]	; 0x54
    a8de:	181b      	adds	r3, r3, r0
    a8e0:	6563      	str	r3, [r4, #84]	; 0x54
    a8e2:	bd10      	pop	{r4, pc}
    a8e4:	89a3      	ldrh	r3, [r4, #12]
    a8e6:	f423 5380 	bic.w	r3, r3, #4096	; 0x1000
    a8ea:	81a3      	strh	r3, [r4, #12]
    a8ec:	bd10      	pop	{r4, pc}

0000a8ee <__seofread>:
    a8ee:	2000      	movs	r0, #0
    a8f0:	4770      	bx	lr

0000a8f2 <__swrite>:
    a8f2:	e92d 41f0 	stmdb	sp!, {r4, r5, r6, r7, r8, lr}
    a8f6:	461d      	mov	r5, r3
    a8f8:	898b      	ldrh	r3, [r1, #12]
    a8fa:	4607      	mov	r7, r0
    a8fc:	460c      	mov	r4, r1
    a8fe:	4616      	mov	r6, r2
    a900:	f413 7f80 	tst.w	r3, #256	; 0x100
    a904:	d005      	beq.n	a912 <__swrite+0x20>
    a906:	f9b1 100e 	ldrsh.w	r1, [r1, #14]
    a90a:	2200      	movs	r2, #0
    a90c:	2302      	movs	r3, #2
    a90e:	f003 fd1d 	bl	e34c <_lseek_r>
    a912:	89a3      	ldrh	r3, [r4, #12]
    a914:	4638      	mov	r0, r7
    a916:	f9b4 100e 	ldrsh.w	r1, [r4, #14]
    a91a:	4632      	mov	r2, r6
    a91c:	f423 5380 	bic.w	r3, r3, #4096	; 0x1000
    a920:	81a3      	strh	r3, [r4, #12]
    a922:	462b      	mov	r3, r5
    a924:	e8bd 41f0 	ldmia.w	sp!, {r4, r5, r6, r7, r8, lr}
    a928:	f002 bf34 	b.w	d794 <_write_r>

0000a92c <__sseek>:
    a92c:	b510      	push	{r4, lr}
    a92e:	460c      	mov	r4, r1
    a930:	f9b1 100e 	ldrsh.w	r1, [r1, #14]
    a934:	f003 fd0a 	bl	e34c <_lseek_r>
    a938:	89a3      	ldrh	r3, [r4, #12]
    a93a:	f1b0 3fff 	cmp.w	r0, #4294967295
    a93e:	d103      	bne.n	a948 <__sseek+0x1c>
    a940:	f423 5380 	bic.w	r3, r3, #4096	; 0x1000
    a944:	81a3      	strh	r3, [r4, #12]
    a946:	bd10      	pop	{r4, pc}
    a948:	f443 5380 	orr.w	r3, r3, #4096	; 0x1000
    a94c:	6560      	str	r0, [r4, #84]	; 0x54
    a94e:	81a3      	strh	r3, [r4, #12]
    a950:	bd10      	pop	{r4, pc}

0000a952 <__sclose>:
    a952:	f9b1 100e 	ldrsh.w	r1, [r1, #14]
    a956:	f002 bf5d 	b.w	d814 <_close_r>

0000a95a <strcmp>:
    a95a:	f810 2b01 	ldrb.w	r2, [r0], #1
    a95e:	f811 3b01 	ldrb.w	r3, [r1], #1
    a962:	2a01      	cmp	r2, #1
    a964:	bf28      	it	cs
    a966:	429a      	cmpcs	r2, r3
    a968:	d0f7      	beq.n	a95a <strcmp>
    a96a:	eba2 0003 	sub.w	r0, r2, r3
    a96e:	4770      	bx	lr

0000a970 <strlen>:
    a970:	4603      	mov	r3, r0
    a972:	43c0      	mvns	r0, r0
    a974:	f813 2b01 	ldrb.w	r2, [r3], #1
    a978:	2a00      	cmp	r2, #0
    a97a:	d1fb      	bne.n	a974 <strlen+0x4>
    a97c:	1818      	adds	r0, r3, r0
    a97e:	4770      	bx	lr

0000a980 <match>:
    a980:	b530      	push	{r4, r5, lr}
    a982:	6802      	ldr	r2, [r0, #0]
    a984:	e008      	b.n	a998 <match+0x18>
    a986:	7853      	ldrb	r3, [r2, #1]
    a988:	4622      	mov	r2, r4
    a98a:	2b40      	cmp	r3, #64	; 0x40
    a98c:	dd02      	ble.n	a994 <match+0x14>
    a98e:	2b5a      	cmp	r3, #90	; 0x5a
    a990:	bfd8      	it	le
    a992:	3320      	addle	r3, #32
    a994:	42ab      	cmp	r3, r5
    a996:	d107      	bne.n	a9a8 <match+0x28>
    a998:	f811 5b01 	ldrb.w	r5, [r1], #1
    a99c:	1c54      	adds	r4, r2, #1
    a99e:	2d00      	cmp	r5, #0
    a9a0:	d1f1      	bne.n	a986 <match+0x6>
    a9a2:	6004      	str	r4, [r0, #0]
    a9a4:	2001      	movs	r0, #1
    a9a6:	bd30      	pop	{r4, r5, pc}
    a9a8:	2000      	movs	r0, #0
    a9aa:	bd30      	pop	{r4, r5, pc}
    a9ac:	0000      	movs	r0, r0
	...

0000a9b0 <_strtod_r>:
    a9b0:	e92d 4ff0 	stmdb	sp!, {r4, r5, r6, r7, r8, r9, sl, fp, lr}
    a9b4:	4606      	mov	r6, r0
    a9b6:	b099      	sub	sp, #100	; 0x64
    a9b8:	468b      	mov	fp, r1
    a9ba:	2400      	movs	r4, #0
    a9bc:	2500      	movs	r5, #0
    a9be:	920f      	str	r2, [sp, #60]	; 0x3c
    a9c0:	9115      	str	r1, [sp, #84]	; 0x54
    a9c2:	9a15      	ldr	r2, [sp, #84]	; 0x54
    a9c4:	7813      	ldrb	r3, [r2, #0]
    a9c6:	2b0d      	cmp	r3, #13
    a9c8:	d805      	bhi.n	a9d6 <_strtod_r+0x26>
    a9ca:	2b09      	cmp	r3, #9
    a9cc:	d214      	bcs.n	a9f8 <_strtod_r+0x48>
    a9ce:	2b00      	cmp	r3, #0
    a9d0:	f000 81c7 	beq.w	ad62 <_strtod_r+0x3b2>
    a9d4:	e013      	b.n	a9fe <_strtod_r+0x4e>
    a9d6:	2b2b      	cmp	r3, #43	; 0x2b
    a9d8:	d007      	beq.n	a9ea <_strtod_r+0x3a>
    a9da:	2b2d      	cmp	r3, #45	; 0x2d
    a9dc:	d002      	beq.n	a9e4 <_strtod_r+0x34>
    a9de:	2b20      	cmp	r3, #32
    a9e0:	d10d      	bne.n	a9fe <_strtod_r+0x4e>
    a9e2:	e009      	b.n	a9f8 <_strtod_r+0x48>
    a9e4:	2001      	movs	r0, #1
    a9e6:	900b      	str	r0, [sp, #44]	; 0x2c
    a9e8:	e001      	b.n	a9ee <_strtod_r+0x3e>
    a9ea:	2100      	movs	r1, #0
    a9ec:	910b      	str	r1, [sp, #44]	; 0x2c
    a9ee:	1c53      	adds	r3, r2, #1
    a9f0:	9315      	str	r3, [sp, #84]	; 0x54
    a9f2:	7853      	ldrb	r3, [r2, #1]
    a9f4:	b92b      	cbnz	r3, aa02 <_strtod_r+0x52>
    a9f6:	e1b4      	b.n	ad62 <_strtod_r+0x3b2>
    a9f8:	3201      	adds	r2, #1
    a9fa:	9215      	str	r2, [sp, #84]	; 0x54
    a9fc:	e7e1      	b.n	a9c2 <_strtod_r+0x12>
    a9fe:	2200      	movs	r2, #0
    aa00:	920b      	str	r2, [sp, #44]	; 0x2c
    aa02:	9b15      	ldr	r3, [sp, #84]	; 0x54
    aa04:	781a      	ldrb	r2, [r3, #0]
    aa06:	2a30      	cmp	r2, #48	; 0x30
    aa08:	d15c      	bne.n	aac4 <_strtod_r+0x114>
    aa0a:	f103 0a01 	add.w	sl, r3, #1
    aa0e:	785b      	ldrb	r3, [r3, #1]
    aa10:	2b58      	cmp	r3, #88	; 0x58
    aa12:	d001      	beq.n	aa18 <_strtod_r+0x68>
    aa14:	2b78      	cmp	r3, #120	; 0x78
    aa16:	d149      	bne.n	aaac <_strtod_r+0xfc>
    aa18:	ab14      	add	r3, sp, #80	; 0x50
    aa1a:	9300      	str	r3, [sp, #0]
    aa1c:	9b0b      	ldr	r3, [sp, #44]	; 0x2c
    aa1e:	4630      	mov	r0, r6
    aa20:	4f98      	ldr	r7, [pc, #608]	; (ac84 <_strtod_r+0x2d4>)
    aa22:	a915      	add	r1, sp, #84	; 0x54
    aa24:	9301      	str	r3, [sp, #4]
    aa26:	463a      	mov	r2, r7
    aa28:	ab13      	add	r3, sp, #76	; 0x4c
    aa2a:	f003 f9a5 	bl	dd78 <__gethex>
    aa2e:	f010 0907 	ands.w	r9, r0, #7
    aa32:	4680      	mov	r8, r0
    aa34:	f000 8580 	beq.w	b538 <_strtod_r+0xb88>
    aa38:	f1b9 0f06 	cmp.w	r9, #6
    aa3c:	d103      	bne.n	aa46 <_strtod_r+0x96>
    aa3e:	f8cd a054 	str.w	sl, [sp, #84]	; 0x54
    aa42:	f000 bd79 	b.w	b538 <_strtod_r+0xb88>
    aa46:	9a14      	ldr	r2, [sp, #80]	; 0x50
    aa48:	b13a      	cbz	r2, aa5a <_strtod_r+0xaa>
    aa4a:	a811      	add	r0, sp, #68	; 0x44
    aa4c:	6839      	ldr	r1, [r7, #0]
    aa4e:	f7ff fdab 	bl	a5a8 <__copybits>
    aa52:	4630      	mov	r0, r6
    aa54:	9914      	ldr	r1, [sp, #80]	; 0x50
    aa56:	f7ff f9fb 	bl	9e50 <_Bfree>
    aa5a:	9b13      	ldr	r3, [sp, #76]	; 0x4c
    aa5c:	f1b9 0f06 	cmp.w	r9, #6
    aa60:	d81c      	bhi.n	aa9c <_strtod_r+0xec>
    aa62:	e8df f009 	tbb	[pc, r9]
    aa66:	0a04      	.short	0x0a04
    aa68:	0a171407 	.word	0x0a171407
    aa6c:	04          	.byte	0x04
    aa6d:	00          	.byte	0x00
    aa6e:	2500      	movs	r5, #0
    aa70:	462c      	mov	r4, r5
    aa72:	e013      	b.n	aa9c <_strtod_r+0xec>
    aa74:	9c11      	ldr	r4, [sp, #68]	; 0x44
    aa76:	9d12      	ldr	r5, [sp, #72]	; 0x48
    aa78:	e010      	b.n	aa9c <_strtod_r+0xec>
    aa7a:	f503 6386 	add.w	r3, r3, #1072	; 0x430
    aa7e:	9a12      	ldr	r2, [sp, #72]	; 0x48
    aa80:	3303      	adds	r3, #3
    aa82:	9c11      	ldr	r4, [sp, #68]	; 0x44
    aa84:	f422 1280 	bic.w	r2, r2, #1048576	; 0x100000
    aa88:	ea42 5503 	orr.w	r5, r2, r3, lsl #20
    aa8c:	e006      	b.n	aa9c <_strtod_r+0xec>
    aa8e:	4d7e      	ldr	r5, [pc, #504]	; (ac88 <_strtod_r+0x2d8>)
    aa90:	2400      	movs	r4, #0
    aa92:	e003      	b.n	aa9c <_strtod_r+0xec>
    aa94:	f06f 4500 	mvn.w	r5, #2147483648	; 0x80000000
    aa98:	f04f 34ff 	mov.w	r4, #4294967295
    aa9c:	f018 0f08 	tst.w	r8, #8
    aaa0:	f000 854a 	beq.w	b538 <_strtod_r+0xb88>
    aaa4:	f045 4500 	orr.w	r5, r5, #2147483648	; 0x80000000
    aaa8:	f000 bd46 	b.w	b538 <_strtod_r+0xb88>
    aaac:	9b15      	ldr	r3, [sp, #84]	; 0x54
    aaae:	1c5a      	adds	r2, r3, #1
    aab0:	9215      	str	r2, [sp, #84]	; 0x54
    aab2:	785b      	ldrb	r3, [r3, #1]
    aab4:	2b30      	cmp	r3, #48	; 0x30
    aab6:	d0f9      	beq.n	aaac <_strtod_r+0xfc>
    aab8:	2b00      	cmp	r3, #0
    aaba:	f000 853d 	beq.w	b538 <_strtod_r+0xb88>
    aabe:	2101      	movs	r1, #1
    aac0:	9108      	str	r1, [sp, #32]
    aac2:	e001      	b.n	aac8 <_strtod_r+0x118>
    aac4:	2200      	movs	r2, #0
    aac6:	9208      	str	r2, [sp, #32]
    aac8:	9b15      	ldr	r3, [sp, #84]	; 0x54
    aaca:	f04f 0a00 	mov.w	sl, #0
    aace:	46d1      	mov	r9, sl
    aad0:	f8cd a018 	str.w	sl, [sp, #24]
    aad4:	9309      	str	r3, [sp, #36]	; 0x24
    aad6:	4653      	mov	r3, sl
    aad8:	e014      	b.n	ab04 <_strtod_r+0x154>
    aada:	f1b9 0f08 	cmp.w	r9, #8
    aade:	dc05      	bgt.n	aaec <_strtod_r+0x13c>
    aae0:	f1a8 0830 	sub.w	r8, r8, #48	; 0x30
    aae4:	220a      	movs	r2, #10
    aae6:	fb02 8303 	mla	r3, r2, r3, r8
    aaea:	e007      	b.n	aafc <_strtod_r+0x14c>
    aaec:	f1b9 0f0f 	cmp.w	r9, #15
    aaf0:	dc04      	bgt.n	aafc <_strtod_r+0x14c>
    aaf2:	f1a8 0830 	sub.w	r8, r8, #48	; 0x30
    aaf6:	220a      	movs	r2, #10
    aaf8:	fb02 8a0a 	mla	sl, r2, sl, r8
    aafc:	f109 0901 	add.w	r9, r9, #1
    ab00:	3701      	adds	r7, #1
    ab02:	9715      	str	r7, [sp, #84]	; 0x54
    ab04:	9f15      	ldr	r7, [sp, #84]	; 0x54
    ab06:	f897 8000 	ldrb.w	r8, [r7]
    ab0a:	f1b8 0f2f 	cmp.w	r8, #47	; 0x2f
    ab0e:	dd02      	ble.n	ab16 <_strtod_r+0x166>
    ab10:	f1b8 0f39 	cmp.w	r8, #57	; 0x39
    ab14:	dde1      	ble.n	aada <_strtod_r+0x12a>
    ab16:	4630      	mov	r0, r6
    ab18:	9306      	str	r3, [sp, #24]
    ab1a:	f7fe fe45 	bl	97a8 <_localeconv_r>
    ab1e:	6801      	ldr	r1, [r0, #0]
    ab20:	4630      	mov	r0, r6
    ab22:	9103      	str	r1, [sp, #12]
    ab24:	f7fe fe40 	bl	97a8 <_localeconv_r>
    ab28:	6800      	ldr	r0, [r0, #0]
    ab2a:	f7ff ff21 	bl	a970 <strlen>
    ab2e:	9903      	ldr	r1, [sp, #12]
    ab30:	4602      	mov	r2, r0
    ab32:	4638      	mov	r0, r7
    ab34:	f003 fe48 	bl	e7c8 <strncmp>
    ab38:	4603      	mov	r3, r0
    ab3a:	2800      	cmp	r0, #0
    ab3c:	d15e      	bne.n	abfc <_strtod_r+0x24c>
    ab3e:	4630      	mov	r0, r6
    ab40:	9f15      	ldr	r7, [sp, #84]	; 0x54
    ab42:	9303      	str	r3, [sp, #12]
    ab44:	f7fe fe30 	bl	97a8 <_localeconv_r>
    ab48:	6800      	ldr	r0, [r0, #0]
    ab4a:	f7ff ff11 	bl	a970 <strlen>
    ab4e:	9b03      	ldr	r3, [sp, #12]
    ab50:	183a      	adds	r2, r7, r0
    ab52:	9215      	str	r2, [sp, #84]	; 0x54
    ab54:	f817 8000 	ldrb.w	r8, [r7, r0]
    ab58:	f1b9 0f00 	cmp.w	r9, #0
    ab5c:	d145      	bne.n	abea <_strtod_r+0x23a>
    ab5e:	4648      	mov	r0, r9
    ab60:	e005      	b.n	ab6e <_strtod_r+0x1be>
    ab62:	9b15      	ldr	r3, [sp, #84]	; 0x54
    ab64:	3001      	adds	r0, #1
    ab66:	1c5a      	adds	r2, r3, #1
    ab68:	9215      	str	r2, [sp, #84]	; 0x54
    ab6a:	f893 8001 	ldrb.w	r8, [r3, #1]
    ab6e:	f1b8 0f30 	cmp.w	r8, #48	; 0x30
    ab72:	d0f6      	beq.n	ab62 <_strtod_r+0x1b2>
    ab74:	f1a8 0331 	sub.w	r3, r8, #49	; 0x31
    ab78:	2b08      	cmp	r3, #8
    ab7a:	d844      	bhi.n	ac06 <_strtod_r+0x256>
    ab7c:	9915      	ldr	r1, [sp, #84]	; 0x54
    ab7e:	4603      	mov	r3, r0
    ab80:	2000      	movs	r0, #0
    ab82:	4607      	mov	r7, r0
    ab84:	9109      	str	r1, [sp, #36]	; 0x24
    ab86:	3001      	adds	r0, #1
    ab88:	f1b8 0830 	subs.w	r8, r8, #48	; 0x30
    ab8c:	d027      	beq.n	abde <_strtod_r+0x22e>
    ab8e:	181b      	adds	r3, r3, r0
    ab90:	2201      	movs	r2, #1
    ab92:	f8dd c018 	ldr.w	ip, [sp, #24]
    ab96:	e00d      	b.n	abb4 <_strtod_r+0x204>
    ab98:	460f      	mov	r7, r1
    ab9a:	3901      	subs	r1, #1
    ab9c:	2908      	cmp	r1, #8
    ab9e:	dc03      	bgt.n	aba8 <_strtod_r+0x1f8>
    aba0:	210a      	movs	r1, #10
    aba2:	fb01 fc0c 	mul.w	ip, r1, ip
    aba6:	e004      	b.n	abb2 <_strtod_r+0x202>
    aba8:	2f10      	cmp	r7, #16
    abaa:	dc02      	bgt.n	abb2 <_strtod_r+0x202>
    abac:	210a      	movs	r1, #10
    abae:	fb01 fa0a 	mul.w	sl, r1, sl
    abb2:	3201      	adds	r2, #1
    abb4:	4282      	cmp	r2, r0
    abb6:	f107 0101 	add.w	r1, r7, #1
    abba:	dbed      	blt.n	ab98 <_strtod_r+0x1e8>
    abbc:	463a      	mov	r2, r7
    abbe:	f8cd c018 	str.w	ip, [sp, #24]
    abc2:	2a08      	cmp	r2, #8
    abc4:	460f      	mov	r7, r1
    abc6:	dc04      	bgt.n	abd2 <_strtod_r+0x222>
    abc8:	220a      	movs	r2, #10
    abca:	fb02 800c 	mla	r0, r2, ip, r8
    abce:	9006      	str	r0, [sp, #24]
    abd0:	e004      	b.n	abdc <_strtod_r+0x22c>
    abd2:	2910      	cmp	r1, #16
    abd4:	dc02      	bgt.n	abdc <_strtod_r+0x22c>
    abd6:	220a      	movs	r2, #10
    abd8:	fb02 8a0a 	mla	sl, r2, sl, r8
    abdc:	2000      	movs	r0, #0
    abde:	9a15      	ldr	r2, [sp, #84]	; 0x54
    abe0:	1c51      	adds	r1, r2, #1
    abe2:	9115      	str	r1, [sp, #84]	; 0x54
    abe4:	f892 8001 	ldrb.w	r8, [r2, #1]
    abe8:	e001      	b.n	abee <_strtod_r+0x23e>
    abea:	464f      	mov	r7, r9
    abec:	4618      	mov	r0, r3
    abee:	f1a8 0230 	sub.w	r2, r8, #48	; 0x30
    abf2:	2a09      	cmp	r2, #9
    abf4:	d9c7      	bls.n	ab86 <_strtod_r+0x1d6>
    abf6:	2101      	movs	r1, #1
    abf8:	9104      	str	r1, [sp, #16]
    abfa:	e008      	b.n	ac0e <_strtod_r+0x25e>
    abfc:	2000      	movs	r0, #0
    abfe:	464f      	mov	r7, r9
    ac00:	4603      	mov	r3, r0
    ac02:	9004      	str	r0, [sp, #16]
    ac04:	e003      	b.n	ac0e <_strtod_r+0x25e>
    ac06:	2700      	movs	r7, #0
    ac08:	2201      	movs	r2, #1
    ac0a:	463b      	mov	r3, r7
    ac0c:	9204      	str	r2, [sp, #16]
    ac0e:	f1b8 0f65 	cmp.w	r8, #101	; 0x65
    ac12:	d002      	beq.n	ac1a <_strtod_r+0x26a>
    ac14:	f1b8 0f45 	cmp.w	r8, #69	; 0x45
    ac18:	d15b      	bne.n	acd2 <_strtod_r+0x322>
    ac1a:	b927      	cbnz	r7, ac26 <_strtod_r+0x276>
    ac1c:	b918      	cbnz	r0, ac26 <_strtod_r+0x276>
    ac1e:	9908      	ldr	r1, [sp, #32]
    ac20:	2900      	cmp	r1, #0
    ac22:	f000 809e 	beq.w	ad62 <_strtod_r+0x3b2>
    ac26:	f8dd b054 	ldr.w	fp, [sp, #84]	; 0x54
    ac2a:	f10b 0201 	add.w	r2, fp, #1
    ac2e:	9215      	str	r2, [sp, #84]	; 0x54
    ac30:	f89b 8001 	ldrb.w	r8, [fp, #1]
    ac34:	f1b8 0f2b 	cmp.w	r8, #43	; 0x2b
    ac38:	d003      	beq.n	ac42 <_strtod_r+0x292>
    ac3a:	f1b8 0f2d 	cmp.w	r8, #45	; 0x2d
    ac3e:	d102      	bne.n	ac46 <_strtod_r+0x296>
    ac40:	e004      	b.n	ac4c <_strtod_r+0x29c>
    ac42:	2100      	movs	r1, #0
    ac44:	e003      	b.n	ac4e <_strtod_r+0x29e>
    ac46:	2200      	movs	r2, #0
    ac48:	9207      	str	r2, [sp, #28]
    ac4a:	e005      	b.n	ac58 <_strtod_r+0x2a8>
    ac4c:	2101      	movs	r1, #1
    ac4e:	9107      	str	r1, [sp, #28]
    ac50:	1c51      	adds	r1, r2, #1
    ac52:	9115      	str	r1, [sp, #84]	; 0x54
    ac54:	f892 8001 	ldrb.w	r8, [r2, #1]
    ac58:	f1a8 0230 	sub.w	r2, r8, #48	; 0x30
    ac5c:	2a09      	cmp	r2, #9
    ac5e:	d836      	bhi.n	acce <_strtod_r+0x31e>
    ac60:	e004      	b.n	ac6c <_strtod_r+0x2bc>
    ac62:	9a15      	ldr	r2, [sp, #84]	; 0x54
    ac64:	1c51      	adds	r1, r2, #1
    ac66:	9115      	str	r1, [sp, #84]	; 0x54
    ac68:	f892 8001 	ldrb.w	r8, [r2, #1]
    ac6c:	f1b8 0f30 	cmp.w	r8, #48	; 0x30
    ac70:	d0f7      	beq.n	ac62 <_strtod_r+0x2b2>
    ac72:	f1a8 0231 	sub.w	r2, r8, #49	; 0x31
    ac76:	2a08      	cmp	r2, #8
    ac78:	d82b      	bhi.n	acd2 <_strtod_r+0x322>
    ac7a:	9a15      	ldr	r2, [sp, #84]	; 0x54
    ac7c:	f1a8 0130 	sub.w	r1, r8, #48	; 0x30
    ac80:	920a      	str	r2, [sp, #40]	; 0x28
    ac82:	e008      	b.n	ac96 <_strtod_r+0x2e6>
    ac84:	1000059c 	.word	0x1000059c
    ac88:	7ff00000 	.word	0x7ff00000
    ac8c:	f1a8 0830 	sub.w	r8, r8, #48	; 0x30
    ac90:	220a      	movs	r2, #10
    ac92:	fb02 8101 	mla	r1, r2, r1, r8
    ac96:	9a15      	ldr	r2, [sp, #84]	; 0x54
    ac98:	f102 0c01 	add.w	ip, r2, #1
    ac9c:	f8cd c054 	str.w	ip, [sp, #84]	; 0x54
    aca0:	f892 8001 	ldrb.w	r8, [r2, #1]
    aca4:	f1b8 0f2f 	cmp.w	r8, #47	; 0x2f
    aca8:	dd02      	ble.n	acb0 <_strtod_r+0x300>
    acaa:	f1b8 0f39 	cmp.w	r8, #57	; 0x39
    acae:	dded      	ble.n	ac8c <_strtod_r+0x2dc>
    acb0:	9a0a      	ldr	r2, [sp, #40]	; 0x28
    acb2:	ebc2 0c0c 	rsb	ip, r2, ip
    acb6:	f644 621f 	movw	r2, #19999	; 0x4e1f
    acba:	f1bc 0f08 	cmp.w	ip, #8
    acbe:	dc02      	bgt.n	acc6 <_strtod_r+0x316>
    acc0:	4291      	cmp	r1, r2
    acc2:	bfb8      	it	lt
    acc4:	460a      	movlt	r2, r1
    acc6:	9907      	ldr	r1, [sp, #28]
    acc8:	b121      	cbz	r1, acd4 <_strtod_r+0x324>
    acca:	4252      	negs	r2, r2
    accc:	e002      	b.n	acd4 <_strtod_r+0x324>
    acce:	f8cd b054 	str.w	fp, [sp, #84]	; 0x54
    acd2:	2200      	movs	r2, #0
    acd4:	2f00      	cmp	r7, #0
    acd6:	d149      	bne.n	ad6c <_strtod_r+0x3bc>
    acd8:	2800      	cmp	r0, #0
    acda:	f040 842d 	bne.w	b538 <_strtod_r+0xb88>
    acde:	9a08      	ldr	r2, [sp, #32]
    ace0:	2a00      	cmp	r2, #0
    ace2:	f040 8429 	bne.w	b538 <_strtod_r+0xb88>
    ace6:	9b04      	ldr	r3, [sp, #16]
    ace8:	2b00      	cmp	r3, #0
    acea:	d13a      	bne.n	ad62 <_strtod_r+0x3b2>
    acec:	f1b8 0f4e 	cmp.w	r8, #78	; 0x4e
    acf0:	d01d      	beq.n	ad2e <_strtod_r+0x37e>
    acf2:	dc03      	bgt.n	acfc <_strtod_r+0x34c>
    acf4:	f1b8 0f49 	cmp.w	r8, #73	; 0x49
    acf8:	d133      	bne.n	ad62 <_strtod_r+0x3b2>
    acfa:	e006      	b.n	ad0a <_strtod_r+0x35a>
    acfc:	f1b8 0f69 	cmp.w	r8, #105	; 0x69
    ad00:	d003      	beq.n	ad0a <_strtod_r+0x35a>
    ad02:	f1b8 0f6e 	cmp.w	r8, #110	; 0x6e
    ad06:	d12c      	bne.n	ad62 <_strtod_r+0x3b2>
    ad08:	e011      	b.n	ad2e <_strtod_r+0x37e>
    ad0a:	a815      	add	r0, sp, #84	; 0x54
    ad0c:	49a2      	ldr	r1, [pc, #648]	; (af98 <_strtod_r+0x5e8>)
    ad0e:	f7ff fe37 	bl	a980 <match>
    ad12:	b330      	cbz	r0, ad62 <_strtod_r+0x3b2>
    ad14:	9b15      	ldr	r3, [sp, #84]	; 0x54
    ad16:	a815      	add	r0, sp, #84	; 0x54
    ad18:	49a0      	ldr	r1, [pc, #640]	; (af9c <_strtod_r+0x5ec>)
    ad1a:	3b01      	subs	r3, #1
    ad1c:	9315      	str	r3, [sp, #84]	; 0x54
    ad1e:	f7ff fe2f 	bl	a980 <match>
    ad22:	b910      	cbnz	r0, ad2a <_strtod_r+0x37a>
    ad24:	9b15      	ldr	r3, [sp, #84]	; 0x54
    ad26:	3301      	adds	r3, #1
    ad28:	9315      	str	r3, [sp, #84]	; 0x54
    ad2a:	4d9d      	ldr	r5, [pc, #628]	; (afa0 <_strtod_r+0x5f0>)
    ad2c:	e017      	b.n	ad5e <_strtod_r+0x3ae>
    ad2e:	a815      	add	r0, sp, #84	; 0x54
    ad30:	499c      	ldr	r1, [pc, #624]	; (afa4 <_strtod_r+0x5f4>)
    ad32:	f7ff fe25 	bl	a980 <match>
    ad36:	b1a0      	cbz	r0, ad62 <_strtod_r+0x3b2>
    ad38:	9b15      	ldr	r3, [sp, #84]	; 0x54
    ad3a:	781b      	ldrb	r3, [r3, #0]
    ad3c:	2b28      	cmp	r3, #40	; 0x28
    ad3e:	d10d      	bne.n	ad5c <_strtod_r+0x3ac>
    ad40:	a815      	add	r0, sp, #84	; 0x54
    ad42:	4999      	ldr	r1, [pc, #612]	; (afa8 <_strtod_r+0x5f8>)
    ad44:	aa11      	add	r2, sp, #68	; 0x44
    ad46:	f003 fa61 	bl	e20c <__hexnan>
    ad4a:	2805      	cmp	r0, #5
    ad4c:	d106      	bne.n	ad5c <_strtod_r+0x3ac>
    ad4e:	9b12      	ldr	r3, [sp, #72]	; 0x48
    ad50:	9c11      	ldr	r4, [sp, #68]	; 0x44
    ad52:	f043 45fe 	orr.w	r5, r3, #2130706432	; 0x7f000000
    ad56:	f445 0570 	orr.w	r5, r5, #15728640	; 0xf00000
    ad5a:	e3ed      	b.n	b538 <_strtod_r+0xb88>
    ad5c:	4d93      	ldr	r5, [pc, #588]	; (afac <_strtod_r+0x5fc>)
    ad5e:	2400      	movs	r4, #0
    ad60:	e3ea      	b.n	b538 <_strtod_r+0xb88>
    ad62:	2000      	movs	r0, #0
    ad64:	f8cd b054 	str.w	fp, [sp, #84]	; 0x54
    ad68:	900b      	str	r0, [sp, #44]	; 0x2c
    ad6a:	e3e5      	b.n	b538 <_strtod_r+0xb88>
    ad6c:	9806      	ldr	r0, [sp, #24]
    ad6e:	1ad3      	subs	r3, r2, r3
    ad70:	f1b9 0f00 	cmp.w	r9, #0
    ad74:	bf08      	it	eq
    ad76:	46b9      	moveq	r9, r7
    ad78:	9307      	str	r3, [sp, #28]
    ad7a:	f8cd 9010 	str.w	r9, [sp, #16]
    ad7e:	f005 f82f 	bl	fde0 <__aeabi_ui2d>
    ad82:	2f10      	cmp	r7, #16
    ad84:	bfb4      	ite	lt
    ad86:	46bb      	movlt	fp, r7
    ad88:	f04f 0b10 	movge.w	fp, #16
    ad8c:	f1bb 0f09 	cmp.w	fp, #9
    ad90:	4604      	mov	r4, r0
    ad92:	460d      	mov	r5, r1
    ad94:	dd15      	ble.n	adc2 <_strtod_r+0x412>
    ad96:	f1ab 0209 	sub.w	r2, fp, #9
    ad9a:	4b85      	ldr	r3, [pc, #532]	; (afb0 <_strtod_r+0x600>)
    ad9c:	eb03 03c2 	add.w	r3, r3, r2, lsl #3
    ada0:	e9d3 2300 	ldrd	r2, r3, [r3]
    ada4:	f005 f892 	bl	fecc <__aeabi_dmul>
    ada8:	4604      	mov	r4, r0
    adaa:	4650      	mov	r0, sl
    adac:	460d      	mov	r5, r1
    adae:	f005 f817 	bl	fde0 <__aeabi_ui2d>
    adb2:	4602      	mov	r2, r0
    adb4:	460b      	mov	r3, r1
    adb6:	4620      	mov	r0, r4
    adb8:	4629      	mov	r1, r5
    adba:	f004 fed5 	bl	fb68 <__adddf3>
    adbe:	4604      	mov	r4, r0
    adc0:	460d      	mov	r5, r1
    adc2:	2f0f      	cmp	r7, #15
    adc4:	dc39      	bgt.n	ae3a <_strtod_r+0x48a>
    adc6:	9907      	ldr	r1, [sp, #28]
    adc8:	2900      	cmp	r1, #0
    adca:	f000 83b5 	beq.w	b538 <_strtod_r+0xb88>
    adce:	dd25      	ble.n	ae1c <_strtod_r+0x46c>
    add0:	2916      	cmp	r1, #22
    add2:	dc07      	bgt.n	ade4 <_strtod_r+0x434>
    add4:	4b76      	ldr	r3, [pc, #472]	; (afb0 <_strtod_r+0x600>)
    add6:	4622      	mov	r2, r4
    add8:	eb03 03c1 	add.w	r3, r3, r1, lsl #3
    addc:	e9d3 0100 	ldrd	r0, r1, [r3]
    ade0:	462b      	mov	r3, r5
    ade2:	e016      	b.n	ae12 <_strtod_r+0x462>
    ade4:	f1c7 080f 	rsb	r8, r7, #15
    ade8:	9a07      	ldr	r2, [sp, #28]
    adea:	f108 0316 	add.w	r3, r8, #22
    adee:	429a      	cmp	r2, r3
    adf0:	dc23      	bgt.n	ae3a <_strtod_r+0x48a>
    adf2:	4e6f      	ldr	r6, [pc, #444]	; (afb0 <_strtod_r+0x600>)
    adf4:	4622      	mov	r2, r4
    adf6:	eb06 03c8 	add.w	r3, r6, r8, lsl #3
    adfa:	e9d3 0100 	ldrd	r0, r1, [r3]
    adfe:	462b      	mov	r3, r5
    ae00:	f005 f864 	bl	fecc <__aeabi_dmul>
    ae04:	9b07      	ldr	r3, [sp, #28]
    ae06:	ebc8 0803 	rsb	r8, r8, r3
    ae0a:	eb06 06c8 	add.w	r6, r6, r8, lsl #3
    ae0e:	e9d6 2300 	ldrd	r2, r3, [r6]
    ae12:	f005 f85b 	bl	fecc <__aeabi_dmul>
    ae16:	4604      	mov	r4, r0
    ae18:	460d      	mov	r5, r1
    ae1a:	e38d      	b.n	b538 <_strtod_r+0xb88>
    ae1c:	9807      	ldr	r0, [sp, #28]
    ae1e:	f110 0f16 	cmn.w	r0, #22
    ae22:	db0a      	blt.n	ae3a <_strtod_r+0x48a>
    ae24:	4242      	negs	r2, r0
    ae26:	4b62      	ldr	r3, [pc, #392]	; (afb0 <_strtod_r+0x600>)
    ae28:	4620      	mov	r0, r4
    ae2a:	4629      	mov	r1, r5
    ae2c:	eb03 03c2 	add.w	r3, r3, r2, lsl #3
    ae30:	e9d3 2300 	ldrd	r2, r3, [r3]
    ae34:	f005 f974 	bl	10120 <__aeabi_ddiv>
    ae38:	e7ed      	b.n	ae16 <_strtod_r+0x466>
    ae3a:	9907      	ldr	r1, [sp, #28]
    ae3c:	ebcb 0b07 	rsb	fp, fp, r7
    ae40:	448b      	add	fp, r1
    ae42:	f1bb 0f00 	cmp.w	fp, #0
    ae46:	dd5c      	ble.n	af02 <_strtod_r+0x552>
    ae48:	f01b 030f 	ands.w	r3, fp, #15
    ae4c:	d00a      	beq.n	ae64 <_strtod_r+0x4b4>
    ae4e:	4a58      	ldr	r2, [pc, #352]	; (afb0 <_strtod_r+0x600>)
    ae50:	eb02 03c3 	add.w	r3, r2, r3, lsl #3
    ae54:	4622      	mov	r2, r4
    ae56:	e9d3 0100 	ldrd	r0, r1, [r3]
    ae5a:	462b      	mov	r3, r5
    ae5c:	f005 f836 	bl	fecc <__aeabi_dmul>
    ae60:	4604      	mov	r4, r0
    ae62:	460d      	mov	r5, r1
    ae64:	f03b 0b0f 	bics.w	fp, fp, #15
    ae68:	f000 80d8 	beq.w	b01c <_strtod_r+0x66c>
    ae6c:	f5bb 7f9a 	cmp.w	fp, #308	; 0x134
    ae70:	dd11      	ble.n	ae96 <_strtod_r+0x4e6>
    ae72:	f04f 0800 	mov.w	r8, #0
    ae76:	f8cd 8020 	str.w	r8, [sp, #32]
    ae7a:	46c1      	mov	r9, r8
    ae7c:	f8cd 8018 	str.w	r8, [sp, #24]
    ae80:	e000      	b.n	ae84 <_strtod_r+0x4d4>
    ae82:	46b8      	mov	r8, r7
    ae84:	9a08      	ldr	r2, [sp, #32]
    ae86:	2322      	movs	r3, #34	; 0x22
    ae88:	4d45      	ldr	r5, [pc, #276]	; (afa0 <_strtod_r+0x5f0>)
    ae8a:	2400      	movs	r4, #0
    ae8c:	6033      	str	r3, [r6, #0]
    ae8e:	2a00      	cmp	r2, #0
    ae90:	f040 833e 	bne.w	b510 <_strtod_r+0xb60>
    ae94:	e350      	b.n	b538 <_strtod_r+0xb88>
    ae96:	4629      	mov	r1, r5
    ae98:	4d46      	ldr	r5, [pc, #280]	; (afb4 <_strtod_r+0x604>)
    ae9a:	ea4f 1b2b 	mov.w	fp, fp, asr #4
    ae9e:	4620      	mov	r0, r4
    aea0:	f04f 0800 	mov.w	r8, #0
    aea4:	46a9      	mov	r9, r5
    aea6:	e00b      	b.n	aec0 <_strtod_r+0x510>
    aea8:	f01b 0f01 	tst.w	fp, #1
    aeac:	d003      	beq.n	aeb6 <_strtod_r+0x506>
    aeae:	e9d5 2300 	ldrd	r2, r3, [r5]
    aeb2:	f005 f80b 	bl	fecc <__aeabi_dmul>
    aeb6:	f108 0801 	add.w	r8, r8, #1
    aeba:	ea4f 0b6b 	mov.w	fp, fp, asr #1
    aebe:	3508      	adds	r5, #8
    aec0:	f1bb 0f01 	cmp.w	fp, #1
    aec4:	dcf0      	bgt.n	aea8 <_strtod_r+0x4f8>
    aec6:	eb09 03c8 	add.w	r3, r9, r8, lsl #3
    aeca:	4604      	mov	r4, r0
    aecc:	f1a1 7554 	sub.w	r5, r1, #55574528	; 0x3500000
    aed0:	4622      	mov	r2, r4
    aed2:	e9d3 0100 	ldrd	r0, r1, [r3]
    aed6:	462b      	mov	r3, r5
    aed8:	f004 fff8 	bl	fecc <__aeabi_dmul>
    aedc:	4b30      	ldr	r3, [pc, #192]	; (afa0 <_strtod_r+0x5f0>)
    aede:	460d      	mov	r5, r1
    aee0:	ea01 0303 	and.w	r3, r1, r3
    aee4:	4934      	ldr	r1, [pc, #208]	; (afb8 <_strtod_r+0x608>)
    aee6:	4604      	mov	r4, r0
    aee8:	428b      	cmp	r3, r1
    aeea:	d8c2      	bhi.n	ae72 <_strtod_r+0x4c2>
    aeec:	4933      	ldr	r1, [pc, #204]	; (afbc <_strtod_r+0x60c>)
    aeee:	f04f 0b00 	mov.w	fp, #0
    aef2:	428b      	cmp	r3, r1
    aef4:	bf8a      	itet	hi
    aef6:	f04f 34ff 	movhi.w	r4, #4294967295
    aefa:	f105 7554 	addls.w	r5, r5, #55574528	; 0x3500000
    aefe:	4d30      	ldrhi	r5, [pc, #192]	; (afc0 <_strtod_r+0x610>)
    af00:	e08c      	b.n	b01c <_strtod_r+0x66c>
    af02:	f000 808b 	beq.w	b01c <_strtod_r+0x66c>
    af06:	f1cb 0b00 	rsb	fp, fp, #0
    af0a:	f01b 030f 	ands.w	r3, fp, #15
    af0e:	d00a      	beq.n	af26 <_strtod_r+0x576>
    af10:	4a27      	ldr	r2, [pc, #156]	; (afb0 <_strtod_r+0x600>)
    af12:	4620      	mov	r0, r4
    af14:	4629      	mov	r1, r5
    af16:	eb02 03c3 	add.w	r3, r2, r3, lsl #3
    af1a:	e9d3 2300 	ldrd	r2, r3, [r3]
    af1e:	f005 f8ff 	bl	10120 <__aeabi_ddiv>
    af22:	4604      	mov	r4, r0
    af24:	460d      	mov	r5, r1
    af26:	ea5f 182b 	movs.w	r8, fp, asr #4
    af2a:	d076      	beq.n	b01a <_strtod_r+0x66a>
    af2c:	f1b8 0f1f 	cmp.w	r8, #31
    af30:	dc61      	bgt.n	aff6 <_strtod_r+0x646>
    af32:	f018 0b10 	ands.w	fp, r8, #16
    af36:	4620      	mov	r0, r4
    af38:	bf18      	it	ne
    af3a:	f04f 0b6a 	movne.w	fp, #106	; 0x6a
    af3e:	4629      	mov	r1, r5
    af40:	4c20      	ldr	r4, [pc, #128]	; (afc4 <_strtod_r+0x614>)
    af42:	e009      	b.n	af58 <_strtod_r+0x5a8>
    af44:	f018 0f01 	tst.w	r8, #1
    af48:	d003      	beq.n	af52 <_strtod_r+0x5a2>
    af4a:	e9d4 2300 	ldrd	r2, r3, [r4]
    af4e:	f004 ffbd 	bl	fecc <__aeabi_dmul>
    af52:	ea4f 0868 	mov.w	r8, r8, asr #1
    af56:	3408      	adds	r4, #8
    af58:	f1b8 0f00 	cmp.w	r8, #0
    af5c:	dcf2      	bgt.n	af44 <_strtod_r+0x594>
    af5e:	4604      	mov	r4, r0
    af60:	460d      	mov	r5, r1
    af62:	f1bb 0f00 	cmp.w	fp, #0
    af66:	d035      	beq.n	afd4 <_strtod_r+0x624>
    af68:	4a0d      	ldr	r2, [pc, #52]	; (afa0 <_strtod_r+0x5f0>)
    af6a:	ea01 0202 	and.w	r2, r1, r2
    af6e:	0d12      	lsrs	r2, r2, #20
    af70:	f1c2 026b 	rsb	r2, r2, #107	; 0x6b
    af74:	2a00      	cmp	r2, #0
    af76:	dd2d      	ble.n	afd4 <_strtod_r+0x624>
    af78:	2a1f      	cmp	r2, #31
    af7a:	dd25      	ble.n	afc8 <_strtod_r+0x618>
    af7c:	2400      	movs	r4, #0
    af7e:	2a34      	cmp	r2, #52	; 0x34
    af80:	dd02      	ble.n	af88 <_strtod_r+0x5d8>
    af82:	f04f 755c 	mov.w	r5, #57671680	; 0x3700000
    af86:	e025      	b.n	afd4 <_strtod_r+0x624>
    af88:	f04f 31ff 	mov.w	r1, #4294967295
    af8c:	3a20      	subs	r2, #32
    af8e:	fa11 f202 	lsls.w	r2, r1, r2
    af92:	ea02 0505 	and.w	r5, r2, r5
    af96:	e01d      	b.n	afd4 <_strtod_r+0x624>
    af98:	00011031 	.word	0x00011031
    af9c:	0001119b 	.word	0x0001119b
    afa0:	7ff00000 	.word	0x7ff00000
    afa4:	00011039 	.word	0x00011039
    afa8:	10000588 	.word	0x10000588
    afac:	fff80000 	.word	0xfff80000
    afb0:	00011228 	.word	0x00011228
    afb4:	000112f0 	.word	0x000112f0
    afb8:	7ca00000 	.word	0x7ca00000
    afbc:	7c900000 	.word	0x7c900000
    afc0:	7fefffff 	.word	0x7fefffff
    afc4:	00011340 	.word	0x00011340
    afc8:	f04f 33ff 	mov.w	r3, #4294967295
    afcc:	fa13 f202 	lsls.w	r2, r3, r2
    afd0:	ea02 0400 	and.w	r4, r2, r0
    afd4:	4620      	mov	r0, r4
    afd6:	4629      	mov	r1, r5
    afd8:	2200      	movs	r2, #0
    afda:	2300      	movs	r3, #0
    afdc:	f04f 0801 	mov.w	r8, #1
    afe0:	f005 f9dc 	bl	1039c <__aeabi_dcmpeq>
    afe4:	b108      	cbz	r0, afea <_strtod_r+0x63a>
    afe6:	f04f 0800 	mov.w	r8, #0
    afea:	fa5f f888 	uxtb.w	r8, r8
    afee:	f1b8 0f00 	cmp.w	r8, #0
    aff2:	d113      	bne.n	b01c <_strtod_r+0x66c>
    aff4:	e001      	b.n	affa <_strtod_r+0x64a>
    aff6:	f04f 0800 	mov.w	r8, #0
    affa:	46c1      	mov	r9, r8
    affc:	f8cd 8020 	str.w	r8, [sp, #32]
    b000:	f8cd 8018 	str.w	r8, [sp, #24]
    b004:	e000      	b.n	b008 <_strtod_r+0x658>
    b006:	46b8      	mov	r8, r7
    b008:	2322      	movs	r3, #34	; 0x22
    b00a:	6033      	str	r3, [r6, #0]
    b00c:	9b08      	ldr	r3, [sp, #32]
    b00e:	2400      	movs	r4, #0
    b010:	2500      	movs	r5, #0
    b012:	2b00      	cmp	r3, #0
    b014:	f040 827c 	bne.w	b510 <_strtod_r+0xb60>
    b018:	e28e      	b.n	b538 <_strtod_r+0xb88>
    b01a:	46c3      	mov	fp, r8
    b01c:	9806      	ldr	r0, [sp, #24]
    b01e:	463b      	mov	r3, r7
    b020:	9909      	ldr	r1, [sp, #36]	; 0x24
    b022:	46a2      	mov	sl, r4
    b024:	9a04      	ldr	r2, [sp, #16]
    b026:	9000      	str	r0, [sp, #0]
    b028:	4630      	mov	r0, r6
    b02a:	f7fe ff66 	bl	9efa <__s2b>
    b02e:	f8cd b028 	str.w	fp, [sp, #40]	; 0x28
    b032:	46ab      	mov	fp, r5
    b034:	9008      	str	r0, [sp, #32]
    b036:	9a08      	ldr	r2, [sp, #32]
    b038:	4630      	mov	r0, r6
    b03a:	6851      	ldr	r1, [r2, #4]
    b03c:	f7fe fed7 	bl	9dee <_Balloc>
    b040:	9b08      	ldr	r3, [sp, #32]
    b042:	f103 010c 	add.w	r1, r3, #12
    b046:	691a      	ldr	r2, [r3, #16]
    b048:	3202      	adds	r2, #2
    b04a:	0092      	lsls	r2, r2, #2
    b04c:	9006      	str	r0, [sp, #24]
    b04e:	300c      	adds	r0, #12
    b050:	f7fe feb8 	bl	9dc4 <memcpy>
    b054:	ab17      	add	r3, sp, #92	; 0x5c
    b056:	4652      	mov	r2, sl
    b058:	9300      	str	r3, [sp, #0]
    b05a:	4630      	mov	r0, r6
    b05c:	ab16      	add	r3, sp, #88	; 0x58
    b05e:	9301      	str	r3, [sp, #4]
    b060:	465b      	mov	r3, fp
    b062:	e9cd ab04 	strd	sl, fp, [sp, #16]
    b066:	f7ff fa03 	bl	a470 <__d2b>
    b06a:	2101      	movs	r1, #1
    b06c:	9014      	str	r0, [sp, #80]	; 0x50
    b06e:	4630      	mov	r0, r6
    b070:	f7fe ffd3 	bl	a01a <__i2b>
    b074:	4681      	mov	r9, r0
    b076:	9807      	ldr	r0, [sp, #28]
    b078:	2800      	cmp	r0, #0
    b07a:	da02      	bge.n	b082 <_strtod_r+0x6d2>
    b07c:	4242      	negs	r2, r0
    b07e:	2400      	movs	r4, #0
    b080:	e001      	b.n	b086 <_strtod_r+0x6d6>
    b082:	9c07      	ldr	r4, [sp, #28]
    b084:	2200      	movs	r2, #0
    b086:	9f17      	ldr	r7, [sp, #92]	; 0x5c
    b088:	f46f 707f 	mvn.w	r0, #1020	; 0x3fc
    b08c:	990a      	ldr	r1, [sp, #40]	; 0x28
    b08e:	2f00      	cmp	r7, #0
    b090:	bfac      	ite	ge
    b092:	eb02 0807 	addge.w	r8, r2, r7
    b096:	ebc7 0304 	rsblt	r3, r7, r4
    b09a:	ebc1 0707 	rsb	r7, r1, r7
    b09e:	9916      	ldr	r1, [sp, #88]	; 0x58
    b0a0:	bfac      	ite	ge
    b0a2:	4623      	movge	r3, r4
    b0a4:	4690      	movlt	r8, r2
    b0a6:	187d      	adds	r5, r7, r1
    b0a8:	4285      	cmp	r5, r0
    b0aa:	da03      	bge.n	b0b4 <_strtod_r+0x704>
    b0ac:	f507 6186 	add.w	r1, r7, #1072	; 0x430
    b0b0:	3103      	adds	r1, #3
    b0b2:	e001      	b.n	b0b8 <_strtod_r+0x708>
    b0b4:	f1c1 0136 	rsb	r1, r1, #54	; 0x36
    b0b8:	980a      	ldr	r0, [sp, #40]	; 0x28
    b0ba:	eb01 0508 	add.w	r5, r1, r8
    b0be:	181f      	adds	r7, r3, r0
    b0c0:	187f      	adds	r7, r7, r1
    b0c2:	42bd      	cmp	r5, r7
    b0c4:	bfb4      	ite	lt
    b0c6:	462b      	movlt	r3, r5
    b0c8:	463b      	movge	r3, r7
    b0ca:	4543      	cmp	r3, r8
    b0cc:	bfa8      	it	ge
    b0ce:	4643      	movge	r3, r8
    b0d0:	2b00      	cmp	r3, #0
    b0d2:	dd03      	ble.n	b0dc <_strtod_r+0x72c>
    b0d4:	1aed      	subs	r5, r5, r3
    b0d6:	1aff      	subs	r7, r7, r3
    b0d8:	ebc3 0808 	rsb	r8, r3, r8
    b0dc:	b18a      	cbz	r2, b102 <_strtod_r+0x752>
    b0de:	4649      	mov	r1, r9
    b0e0:	4630      	mov	r0, r6
    b0e2:	f7ff f835 	bl	a150 <__pow5mult>
    b0e6:	9a14      	ldr	r2, [sp, #80]	; 0x50
    b0e8:	4681      	mov	r9, r0
    b0ea:	4630      	mov	r0, r6
    b0ec:	4649      	mov	r1, r9
    b0ee:	f7fe ff9d 	bl	a02c <__multiply>
    b0f2:	9914      	ldr	r1, [sp, #80]	; 0x50
    b0f4:	4603      	mov	r3, r0
    b0f6:	4630      	mov	r0, r6
    b0f8:	9303      	str	r3, [sp, #12]
    b0fa:	f7fe fea9 	bl	9e50 <_Bfree>
    b0fe:	9b03      	ldr	r3, [sp, #12]
    b100:	9314      	str	r3, [sp, #80]	; 0x50
    b102:	2d00      	cmp	r5, #0
    b104:	dd05      	ble.n	b112 <_strtod_r+0x762>
    b106:	4630      	mov	r0, r6
    b108:	9914      	ldr	r1, [sp, #80]	; 0x50
    b10a:	462a      	mov	r2, r5
    b10c:	f7ff f872 	bl	a1f4 <__lshift>
    b110:	9014      	str	r0, [sp, #80]	; 0x50
    b112:	b12c      	cbz	r4, b120 <_strtod_r+0x770>
    b114:	4630      	mov	r0, r6
    b116:	9906      	ldr	r1, [sp, #24]
    b118:	4622      	mov	r2, r4
    b11a:	f7ff f819 	bl	a150 <__pow5mult>
    b11e:	9006      	str	r0, [sp, #24]
    b120:	2f00      	cmp	r7, #0
    b122:	dd05      	ble.n	b130 <_strtod_r+0x780>
    b124:	4630      	mov	r0, r6
    b126:	9906      	ldr	r1, [sp, #24]
    b128:	463a      	mov	r2, r7
    b12a:	f7ff f863 	bl	a1f4 <__lshift>
    b12e:	9006      	str	r0, [sp, #24]
    b130:	f1b8 0f00 	cmp.w	r8, #0
    b134:	dd05      	ble.n	b142 <_strtod_r+0x792>
    b136:	4649      	mov	r1, r9
    b138:	4630      	mov	r0, r6
    b13a:	4642      	mov	r2, r8
    b13c:	f7ff f85a 	bl	a1f4 <__lshift>
    b140:	4681      	mov	r9, r0
    b142:	9914      	ldr	r1, [sp, #80]	; 0x50
    b144:	4630      	mov	r0, r6
    b146:	9a06      	ldr	r2, [sp, #24]
    b148:	2500      	movs	r5, #0
    b14a:	f7ff f8bc 	bl	a2c6 <__mdiff>
    b14e:	68c1      	ldr	r1, [r0, #12]
    b150:	4607      	mov	r7, r0
    b152:	60c5      	str	r5, [r0, #12]
    b154:	9109      	str	r1, [sp, #36]	; 0x24
    b156:	4649      	mov	r1, r9
    b158:	f7ff f898 	bl	a28c <__mcmp>
    b15c:	42a8      	cmp	r0, r5
    b15e:	da2b      	bge.n	b1b8 <_strtod_r+0x808>
    b160:	9a09      	ldr	r2, [sp, #36]	; 0x24
    b162:	465d      	mov	r5, fp
    b164:	46b8      	mov	r8, r7
    b166:	4654      	mov	r4, sl
    b168:	f8dd b028 	ldr.w	fp, [sp, #40]	; 0x28
    b16c:	2a00      	cmp	r2, #0
    b16e:	f040 81b8 	bne.w	b4e2 <_strtod_r+0xb32>
    b172:	2c00      	cmp	r4, #0
    b174:	f040 81b5 	bne.w	b4e2 <_strtod_r+0xb32>
    b178:	f025 437f 	bic.w	r3, r5, #4278190080	; 0xff000000
    b17c:	f423 0370 	bic.w	r3, r3, #15728640	; 0xf00000
    b180:	2b00      	cmp	r3, #0
    b182:	f040 81ae 	bne.w	b4e2 <_strtod_r+0xb32>
    b186:	4b8d      	ldr	r3, [pc, #564]	; (b3bc <_strtod_r+0xa0c>)
    b188:	ea05 0303 	and.w	r3, r5, r3
    b18c:	f1b3 6fd6 	cmp.w	r3, #112197632	; 0x6b00000
    b190:	f240 81a7 	bls.w	b4e2 <_strtod_r+0xb32>
    b194:	697b      	ldr	r3, [r7, #20]
    b196:	b91b      	cbnz	r3, b1a0 <_strtod_r+0x7f0>
    b198:	693b      	ldr	r3, [r7, #16]
    b19a:	2b01      	cmp	r3, #1
    b19c:	f340 81a1 	ble.w	b4e2 <_strtod_r+0xb32>
    b1a0:	4641      	mov	r1, r8
    b1a2:	2201      	movs	r2, #1
    b1a4:	4630      	mov	r0, r6
    b1a6:	f7ff f825 	bl	a1f4 <__lshift>
    b1aa:	4649      	mov	r1, r9
    b1ac:	4680      	mov	r8, r0
    b1ae:	f7ff f86d 	bl	a28c <__mcmp>
    b1b2:	2800      	cmp	r0, #0
    b1b4:	dc33      	bgt.n	b21e <_strtod_r+0x86e>
    b1b6:	e194      	b.n	b4e2 <_strtod_r+0xb32>
    b1b8:	d176      	bne.n	b2a8 <_strtod_r+0x8f8>
    b1ba:	9b09      	ldr	r3, [sp, #36]	; 0x24
    b1bc:	465d      	mov	r5, fp
    b1be:	46b8      	mov	r8, r7
    b1c0:	4654      	mov	r4, sl
    b1c2:	f8dd b028 	ldr.w	fp, [sp, #40]	; 0x28
    b1c6:	b323      	cbz	r3, b212 <_strtod_r+0x862>
    b1c8:	f025 427f 	bic.w	r2, r5, #4278190080	; 0xff000000
    b1cc:	497c      	ldr	r1, [pc, #496]	; (b3c0 <_strtod_r+0xa10>)
    b1ce:	f422 0270 	bic.w	r2, r2, #15728640	; 0xf00000
    b1d2:	462b      	mov	r3, r5
    b1d4:	428a      	cmp	r2, r1
    b1d6:	d13a      	bne.n	b24e <_strtod_r+0x89e>
    b1d8:	4652      	mov	r2, sl
    b1da:	f1bb 0f00 	cmp.w	fp, #0
    b1de:	d00d      	beq.n	b1fc <_strtod_r+0x84c>
    b1e0:	4976      	ldr	r1, [pc, #472]	; (b3bc <_strtod_r+0xa0c>)
    b1e2:	ea05 0101 	and.w	r1, r5, r1
    b1e6:	f1b1 6fd4 	cmp.w	r1, #111149056	; 0x6a00000
    b1ea:	d807      	bhi.n	b1fc <_strtod_r+0x84c>
    b1ec:	0d09      	lsrs	r1, r1, #20
    b1ee:	f04f 30ff 	mov.w	r0, #4294967295
    b1f2:	f1c1 016b 	rsb	r1, r1, #107	; 0x6b
    b1f6:	fa10 f101 	lsls.w	r1, r0, r1
    b1fa:	e001      	b.n	b200 <_strtod_r+0x850>
    b1fc:	f04f 31ff 	mov.w	r1, #4294967295
    b200:	428a      	cmp	r2, r1
    b202:	d124      	bne.n	b24e <_strtod_r+0x89e>
    b204:	4a6d      	ldr	r2, [pc, #436]	; (b3bc <_strtod_r+0xa0c>)
    b206:	2400      	movs	r4, #0
    b208:	ea03 0202 	and.w	r2, r3, r2
    b20c:	f502 1580 	add.w	r5, r2, #1048576	; 0x100000
    b210:	e167      	b.n	b4e2 <_strtod_r+0xb32>
    b212:	f025 437f 	bic.w	r3, r5, #4278190080	; 0xff000000
    b216:	f423 0370 	bic.w	r3, r3, #15728640	; 0xf00000
    b21a:	b9c3      	cbnz	r3, b24e <_strtod_r+0x89e>
    b21c:	b9bc      	cbnz	r4, b24e <_strtod_r+0x89e>
    b21e:	f025 4300 	bic.w	r3, r5, #2147483648	; 0x80000000
    b222:	0d1b      	lsrs	r3, r3, #20
    b224:	051b      	lsls	r3, r3, #20
    b226:	f1bb 0f00 	cmp.w	fp, #0
    b22a:	d007      	beq.n	b23c <_strtod_r+0x88c>
    b22c:	f1b3 6fd6 	cmp.w	r3, #112197632	; 0x6b00000
    b230:	d804      	bhi.n	b23c <_strtod_r+0x88c>
    b232:	f1b3 7f5c 	cmp.w	r3, #57671680	; 0x3700000
    b236:	f200 8157 	bhi.w	b4e8 <_strtod_r+0xb38>
    b23a:	e6e5      	b.n	b008 <_strtod_r+0x658>
    b23c:	f5a3 1380 	sub.w	r3, r3, #1048576	; 0x100000
    b240:	f04f 34ff 	mov.w	r4, #4294967295
    b244:	ea6f 5513 	mvn.w	r5, r3, lsr #20
    b248:	ea6f 5505 	mvn.w	r5, r5, lsl #20
    b24c:	e149      	b.n	b4e2 <_strtod_r+0xb32>
    b24e:	f004 0301 	and.w	r3, r4, #1
    b252:	2b00      	cmp	r3, #0
    b254:	f000 8145 	beq.w	b4e2 <_strtod_r+0xb32>
    b258:	9809      	ldr	r0, [sp, #36]	; 0x24
    b25a:	b160      	cbz	r0, b276 <_strtod_r+0x8c6>
    b25c:	e9dd 0104 	ldrd	r0, r1, [sp, #16]
    b260:	f7ff f894 	bl	a38c <__ulp>
    b264:	4602      	mov	r2, r0
    b266:	460b      	mov	r3, r1
    b268:	e9dd 0104 	ldrd	r0, r1, [sp, #16]
    b26c:	f004 fc7c 	bl	fb68 <__adddf3>
    b270:	4604      	mov	r4, r0
    b272:	460d      	mov	r5, r1
    b274:	e135      	b.n	b4e2 <_strtod_r+0xb32>
    b276:	e9dd 0104 	ldrd	r0, r1, [sp, #16]
    b27a:	2701      	movs	r7, #1
    b27c:	f7ff f886 	bl	a38c <__ulp>
    b280:	4602      	mov	r2, r0
    b282:	460b      	mov	r3, r1
    b284:	e9dd 0104 	ldrd	r0, r1, [sp, #16]
    b288:	f004 fc6c 	bl	fb64 <__aeabi_dsub>
    b28c:	2200      	movs	r2, #0
    b28e:	2300      	movs	r3, #0
    b290:	4604      	mov	r4, r0
    b292:	460d      	mov	r5, r1
    b294:	f005 f882 	bl	1039c <__aeabi_dcmpeq>
    b298:	b108      	cbz	r0, b29e <_strtod_r+0x8ee>
    b29a:	9909      	ldr	r1, [sp, #36]	; 0x24
    b29c:	460f      	mov	r7, r1
    b29e:	f017 0fff 	tst.w	r7, #255	; 0xff
    b2a2:	f43f aeb1 	beq.w	b008 <_strtod_r+0x658>
    b2a6:	e11c      	b.n	b4e2 <_strtod_r+0xb32>
    b2a8:	4638      	mov	r0, r7
    b2aa:	4649      	mov	r1, r9
    b2ac:	f7ff f93e 	bl	a52c <__ratio>
    b2b0:	2200      	movs	r2, #0
    b2b2:	f04f 4380 	mov.w	r3, #1073741824	; 0x40000000
    b2b6:	e9cd 0104 	strd	r0, r1, [sp, #16]
    b2ba:	f005 f883 	bl	103c4 <__aeabi_dcmple>
    b2be:	2800      	cmp	r0, #0
    b2c0:	d034      	beq.n	b32c <_strtod_r+0x97c>
    b2c2:	9a09      	ldr	r2, [sp, #36]	; 0x24
    b2c4:	b122      	cbz	r2, b2d0 <_strtod_r+0x920>
    b2c6:	493f      	ldr	r1, [pc, #252]	; (b3c4 <_strtod_r+0xa14>)
    b2c8:	2000      	movs	r0, #0
    b2ca:	e9cd 0104 	strd	r0, r1, [sp, #16]
    b2ce:	e014      	b.n	b2fa <_strtod_r+0x94a>
    b2d0:	f1ba 0f00 	cmp.w	sl, #0
    b2d4:	d105      	bne.n	b2e2 <_strtod_r+0x932>
    b2d6:	f02b 437f 	bic.w	r3, fp, #4278190080	; 0xff000000
    b2da:	f423 0370 	bic.w	r3, r3, #15728640	; 0xf00000
    b2de:	b93b      	cbnz	r3, b2f0 <_strtod_r+0x940>
    b2e0:	e00d      	b.n	b2fe <_strtod_r+0x94e>
    b2e2:	f1ba 0f01 	cmp.w	sl, #1
    b2e6:	d103      	bne.n	b2f0 <_strtod_r+0x940>
    b2e8:	f1bb 0f00 	cmp.w	fp, #0
    b2ec:	f43f ae8b 	beq.w	b006 <_strtod_r+0x656>
    b2f0:	4b35      	ldr	r3, [pc, #212]	; (b3c8 <_strtod_r+0xa18>)
    b2f2:	2500      	movs	r5, #0
    b2f4:	2200      	movs	r2, #0
    b2f6:	e9cd 2304 	strd	r2, r3, [sp, #16]
    b2fa:	4c32      	ldr	r4, [pc, #200]	; (b3c4 <_strtod_r+0xa14>)
    b2fc:	e027      	b.n	b34e <_strtod_r+0x99e>
    b2fe:	e9dd 0104 	ldrd	r0, r1, [sp, #16]
    b302:	2200      	movs	r2, #0
    b304:	4b2f      	ldr	r3, [pc, #188]	; (b3c4 <_strtod_r+0xa14>)
    b306:	f005 f853 	bl	103b0 <__aeabi_dcmplt>
    b30a:	b940      	cbnz	r0, b31e <_strtod_r+0x96e>
    b30c:	e9dd 0104 	ldrd	r0, r1, [sp, #16]
    b310:	2200      	movs	r2, #0
    b312:	4b2e      	ldr	r3, [pc, #184]	; (b3cc <_strtod_r+0xa1c>)
    b314:	f004 fdda 	bl	fecc <__aeabi_dmul>
    b318:	4605      	mov	r5, r0
    b31a:	460c      	mov	r4, r1
    b31c:	e001      	b.n	b322 <_strtod_r+0x972>
    b31e:	9d09      	ldr	r5, [sp, #36]	; 0x24
    b320:	4c2a      	ldr	r4, [pc, #168]	; (b3cc <_strtod_r+0xa1c>)
    b322:	f104 4300 	add.w	r3, r4, #2147483648	; 0x80000000
    b326:	4628      	mov	r0, r5
    b328:	4619      	mov	r1, r3
    b32a:	e00e      	b.n	b34a <_strtod_r+0x99a>
    b32c:	e9dd 0104 	ldrd	r0, r1, [sp, #16]
    b330:	2200      	movs	r2, #0
    b332:	4b26      	ldr	r3, [pc, #152]	; (b3cc <_strtod_r+0xa1c>)
    b334:	f004 fdca 	bl	fecc <__aeabi_dmul>
    b338:	460c      	mov	r4, r1
    b33a:	9909      	ldr	r1, [sp, #36]	; 0x24
    b33c:	4605      	mov	r5, r0
    b33e:	b911      	cbnz	r1, b346 <_strtod_r+0x996>
    b340:	f104 4100 	add.w	r1, r4, #2147483648	; 0x80000000
    b344:	e000      	b.n	b348 <_strtod_r+0x998>
    b346:	4621      	mov	r1, r4
    b348:	4628      	mov	r0, r5
    b34a:	e9cd 0104 	strd	r0, r1, [sp, #16]
    b34e:	f8df 806c 	ldr.w	r8, [pc, #108]	; b3bc <_strtod_r+0xa0c>
    b352:	4a1f      	ldr	r2, [pc, #124]	; (b3d0 <_strtod_r+0xa20>)
    b354:	ea0b 0808 	and.w	r8, fp, r8
    b358:	4590      	cmp	r8, r2
    b35a:	d13f      	bne.n	b3dc <_strtod_r+0xa2c>
    b35c:	4659      	mov	r1, fp
    b35e:	f1ab 7b54 	sub.w	fp, fp, #55574528	; 0x3500000
    b362:	4650      	mov	r0, sl
    b364:	e9cd 010c 	strd	r0, r1, [sp, #48]	; 0x30
    b368:	4650      	mov	r0, sl
    b36a:	4659      	mov	r1, fp
    b36c:	f7ff f80e 	bl	a38c <__ulp>
    b370:	4602      	mov	r2, r0
    b372:	460b      	mov	r3, r1
    b374:	e9dd 0104 	ldrd	r0, r1, [sp, #16]
    b378:	f004 fda8 	bl	fecc <__aeabi_dmul>
    b37c:	460b      	mov	r3, r1
    b37e:	4602      	mov	r2, r0
    b380:	4659      	mov	r1, fp
    b382:	4650      	mov	r0, sl
    b384:	f004 fbf0 	bl	fb68 <__adddf3>
    b388:	4b0c      	ldr	r3, [pc, #48]	; (b3bc <_strtod_r+0xa0c>)
    b38a:	468b      	mov	fp, r1
    b38c:	ea01 0303 	and.w	r3, r1, r3
    b390:	4910      	ldr	r1, [pc, #64]	; (b3d4 <_strtod_r+0xa24>)
    b392:	4682      	mov	sl, r0
    b394:	428b      	cmp	r3, r1
    b396:	d90d      	bls.n	b3b4 <_strtod_r+0xa04>
    b398:	4b0f      	ldr	r3, [pc, #60]	; (b3d8 <_strtod_r+0xa28>)
    b39a:	980d      	ldr	r0, [sp, #52]	; 0x34
    b39c:	4298      	cmp	r0, r3
    b39e:	d104      	bne.n	b3aa <_strtod_r+0x9fa>
    b3a0:	990c      	ldr	r1, [sp, #48]	; 0x30
    b3a2:	f1b1 3fff 	cmp.w	r1, #4294967295
    b3a6:	f43f ad6c 	beq.w	ae82 <_strtod_r+0x4d2>
    b3aa:	f8df b02c 	ldr.w	fp, [pc, #44]	; b3d8 <_strtod_r+0xa28>
    b3ae:	f04f 3aff 	mov.w	sl, #4294967295
    b3b2:	e085      	b.n	b4c0 <_strtod_r+0xb10>
    b3b4:	f10b 7b54 	add.w	fp, fp, #55574528	; 0x3500000
    b3b8:	e047      	b.n	b44a <_strtod_r+0xa9a>
    b3ba:	bf00      	nop
    b3bc:	7ff00000 	.word	0x7ff00000
    b3c0:	000fffff 	.word	0x000fffff
    b3c4:	3ff00000 	.word	0x3ff00000
    b3c8:	bff00000 	.word	0xbff00000
    b3cc:	3fe00000 	.word	0x3fe00000
    b3d0:	7fe00000 	.word	0x7fe00000
    b3d4:	7c9fffff 	.word	0x7c9fffff
    b3d8:	7fefffff 	.word	0x7fefffff
    b3dc:	9a0a      	ldr	r2, [sp, #40]	; 0x28
    b3de:	b312      	cbz	r2, b426 <_strtod_r+0xa76>
    b3e0:	f1b8 6fd4 	cmp.w	r8, #111149056	; 0x6a00000
    b3e4:	d81f      	bhi.n	b426 <_strtod_r+0xa76>
    b3e6:	4628      	mov	r0, r5
    b3e8:	4621      	mov	r1, r4
    b3ea:	a35d      	add	r3, pc, #372	; (adr r3, b560 <_strtod_r+0xbb0>)
    b3ec:	e9d3 2300 	ldrd	r2, r3, [r3]
    b3f0:	f004 ffe8 	bl	103c4 <__aeabi_dcmple>
    b3f4:	b188      	cbz	r0, b41a <_strtod_r+0xa6a>
    b3f6:	4621      	mov	r1, r4
    b3f8:	4628      	mov	r0, r5
    b3fa:	f005 f829 	bl	10450 <__aeabi_d2uiz>
    b3fe:	2800      	cmp	r0, #0
    b400:	bf08      	it	eq
    b402:	2001      	moveq	r0, #1
    b404:	f004 fcec 	bl	fde0 <__aeabi_ui2d>
    b408:	9b09      	ldr	r3, [sp, #36]	; 0x24
    b40a:	4605      	mov	r5, r0
    b40c:	460c      	mov	r4, r1
    b40e:	b90b      	cbnz	r3, b414 <_strtod_r+0xa64>
    b410:	f101 4100 	add.w	r1, r1, #2147483648	; 0x80000000
    b414:	4628      	mov	r0, r5
    b416:	e9cd 0104 	strd	r0, r1, [sp, #16]
    b41a:	9905      	ldr	r1, [sp, #20]
    b41c:	f101 63d6 	add.w	r3, r1, #112197632	; 0x6b00000
    b420:	ebc8 0303 	rsb	r3, r8, r3
    b424:	9305      	str	r3, [sp, #20]
    b426:	4650      	mov	r0, sl
    b428:	4659      	mov	r1, fp
    b42a:	f7fe ffaf 	bl	a38c <__ulp>
    b42e:	4602      	mov	r2, r0
    b430:	460b      	mov	r3, r1
    b432:	e9dd 0104 	ldrd	r0, r1, [sp, #16]
    b436:	f004 fd49 	bl	fecc <__aeabi_dmul>
    b43a:	4602      	mov	r2, r0
    b43c:	460b      	mov	r3, r1
    b43e:	4650      	mov	r0, sl
    b440:	4659      	mov	r1, fp
    b442:	f004 fb91 	bl	fb68 <__adddf3>
    b446:	4682      	mov	sl, r0
    b448:	468b      	mov	fp, r1
    b44a:	9b0a      	ldr	r3, [sp, #40]	; 0x28
    b44c:	2b00      	cmp	r3, #0
    b44e:	d137      	bne.n	b4c0 <_strtod_r+0xb10>
    b450:	4b4b      	ldr	r3, [pc, #300]	; (b580 <_strtod_r+0xbd0>)
    b452:	ea0b 0303 	and.w	r3, fp, r3
    b456:	4598      	cmp	r8, r3
    b458:	d132      	bne.n	b4c0 <_strtod_r+0xb10>
    b45a:	4621      	mov	r1, r4
    b45c:	4628      	mov	r0, r5
    b45e:	f8cd b00c 	str.w	fp, [sp, #12]
    b462:	f004 ffcd 	bl	10400 <__aeabi_d2iz>
    b466:	f004 fccb 	bl	fe00 <__aeabi_i2d>
    b46a:	4602      	mov	r2, r0
    b46c:	460b      	mov	r3, r1
    b46e:	4628      	mov	r0, r5
    b470:	4621      	mov	r1, r4
    b472:	f004 fb77 	bl	fb64 <__aeabi_dsub>
    b476:	9a09      	ldr	r2, [sp, #36]	; 0x24
    b478:	f8dd c00c 	ldr.w	ip, [sp, #12]
    b47c:	4604      	mov	r4, r0
    b47e:	460d      	mov	r5, r1
    b480:	b93a      	cbnz	r2, b492 <_strtod_r+0xae2>
    b482:	f1ba 0f00 	cmp.w	sl, #0
    b486:	d104      	bne.n	b492 <_strtod_r+0xae2>
    b488:	f02c 437f 	bic.w	r3, ip, #4278190080	; 0xff000000
    b48c:	f423 0370 	bic.w	r3, r3, #15728640	; 0xf00000
    b490:	b183      	cbz	r3, b4b4 <_strtod_r+0xb04>
    b492:	4620      	mov	r0, r4
    b494:	4629      	mov	r1, r5
    b496:	a334      	add	r3, pc, #208	; (adr r3, b568 <_strtod_r+0xbb8>)
    b498:	e9d3 2300 	ldrd	r2, r3, [r3]
    b49c:	f004 ff88 	bl	103b0 <__aeabi_dcmplt>
    b4a0:	2800      	cmp	r0, #0
    b4a2:	d132      	bne.n	b50a <_strtod_r+0xb5a>
    b4a4:	4620      	mov	r0, r4
    b4a6:	4629      	mov	r1, r5
    b4a8:	a331      	add	r3, pc, #196	; (adr r3, b570 <_strtod_r+0xbc0>)
    b4aa:	e9d3 2300 	ldrd	r2, r3, [r3]
    b4ae:	f004 ff9d 	bl	103ec <__aeabi_dcmpgt>
    b4b2:	e004      	b.n	b4be <_strtod_r+0xb0e>
    b4b4:	a330      	add	r3, pc, #192	; (adr r3, b578 <_strtod_r+0xbc8>)
    b4b6:	e9d3 2300 	ldrd	r2, r3, [r3]
    b4ba:	f004 ff79 	bl	103b0 <__aeabi_dcmplt>
    b4be:	bb20      	cbnz	r0, b50a <_strtod_r+0xb5a>
    b4c0:	4630      	mov	r0, r6
    b4c2:	9914      	ldr	r1, [sp, #80]	; 0x50
    b4c4:	f7fe fcc4 	bl	9e50 <_Bfree>
    b4c8:	4630      	mov	r0, r6
    b4ca:	9906      	ldr	r1, [sp, #24]
    b4cc:	f7fe fcc0 	bl	9e50 <_Bfree>
    b4d0:	4630      	mov	r0, r6
    b4d2:	4649      	mov	r1, r9
    b4d4:	f7fe fcbc 	bl	9e50 <_Bfree>
    b4d8:	4630      	mov	r0, r6
    b4da:	4639      	mov	r1, r7
    b4dc:	f7fe fcb8 	bl	9e50 <_Bfree>
    b4e0:	e5a9      	b.n	b036 <_strtod_r+0x686>
    b4e2:	f1bb 0f00 	cmp.w	fp, #0
    b4e6:	d013      	beq.n	b510 <_strtod_r+0xb60>
    b4e8:	4b26      	ldr	r3, [pc, #152]	; (b584 <_strtod_r+0xbd4>)
    b4ea:	2000      	movs	r0, #0
    b4ec:	900c      	str	r0, [sp, #48]	; 0x30
    b4ee:	4629      	mov	r1, r5
    b4f0:	4620      	mov	r0, r4
    b4f2:	930d      	str	r3, [sp, #52]	; 0x34
    b4f4:	e9dd 230c 	ldrd	r2, r3, [sp, #48]	; 0x30
    b4f8:	f004 fce8 	bl	fecc <__aeabi_dmul>
    b4fc:	4604      	mov	r4, r0
    b4fe:	460d      	mov	r5, r1
    b500:	b931      	cbnz	r1, b510 <_strtod_r+0xb60>
    b502:	b928      	cbnz	r0, b510 <_strtod_r+0xb60>
    b504:	2322      	movs	r3, #34	; 0x22
    b506:	6033      	str	r3, [r6, #0]
    b508:	e002      	b.n	b510 <_strtod_r+0xb60>
    b50a:	46b8      	mov	r8, r7
    b50c:	4654      	mov	r4, sl
    b50e:	465d      	mov	r5, fp
    b510:	4630      	mov	r0, r6
    b512:	9914      	ldr	r1, [sp, #80]	; 0x50
    b514:	f7fe fc9c 	bl	9e50 <_Bfree>
    b518:	4630      	mov	r0, r6
    b51a:	9906      	ldr	r1, [sp, #24]
    b51c:	f7fe fc98 	bl	9e50 <_Bfree>
    b520:	4630      	mov	r0, r6
    b522:	4649      	mov	r1, r9
    b524:	f7fe fc94 	bl	9e50 <_Bfree>
    b528:	4630      	mov	r0, r6
    b52a:	9908      	ldr	r1, [sp, #32]
    b52c:	f7fe fc90 	bl	9e50 <_Bfree>
    b530:	4630      	mov	r0, r6
    b532:	4641      	mov	r1, r8
    b534:	f7fe fc8c 	bl	9e50 <_Bfree>
    b538:	990f      	ldr	r1, [sp, #60]	; 0x3c
    b53a:	b109      	cbz	r1, b540 <_strtod_r+0xb90>
    b53c:	9b15      	ldr	r3, [sp, #84]	; 0x54
    b53e:	600b      	str	r3, [r1, #0]
    b540:	9a0b      	ldr	r2, [sp, #44]	; 0x2c
    b542:	b11a      	cbz	r2, b54c <_strtod_r+0xb9c>
    b544:	4622      	mov	r2, r4
    b546:	f105 4300 	add.w	r3, r5, #2147483648	; 0x80000000
    b54a:	e001      	b.n	b550 <_strtod_r+0xba0>
    b54c:	4622      	mov	r2, r4
    b54e:	462b      	mov	r3, r5
    b550:	4610      	mov	r0, r2
    b552:	4619      	mov	r1, r3
    b554:	b019      	add	sp, #100	; 0x64
    b556:	e8bd 8ff0 	ldmia.w	sp!, {r4, r5, r6, r7, r8, r9, sl, fp, pc}
    b55a:	bf00      	nop
    b55c:	f3af 8000 	nop.w
    b560:	ffc00000 	.word	0xffc00000
    b564:	41dfffff 	.word	0x41dfffff
    b568:	94a03595 	.word	0x94a03595
    b56c:	3fdfffff 	.word	0x3fdfffff
    b570:	35afe535 	.word	0x35afe535
    b574:	3fe00000 	.word	0x3fe00000
    b578:	94a03595 	.word	0x94a03595
    b57c:	3fcfffff 	.word	0x3fcfffff
    b580:	7ff00000 	.word	0x7ff00000
    b584:	39500000 	.word	0x39500000

0000b588 <strtod>:
    b588:	460a      	mov	r2, r1
    b58a:	4903      	ldr	r1, [pc, #12]	; (b598 <strtod+0x10>)
    b58c:	4603      	mov	r3, r0
    b58e:	6808      	ldr	r0, [r1, #0]
    b590:	4619      	mov	r1, r3
    b592:	f7ff ba0d 	b.w	a9b0 <_strtod_r>
    b596:	bf00      	nop
    b598:	100000f4 	.word	0x100000f4

0000b59c <strtof>:
    b59c:	e92d 43f8 	stmdb	sp!, {r3, r4, r5, r6, r7, r8, r9, lr}
    b5a0:	4603      	mov	r3, r0
    b5a2:	4f25      	ldr	r7, [pc, #148]	; (b638 <strtof+0x9c>)
    b5a4:	460a      	mov	r2, r1
    b5a6:	4619      	mov	r1, r3
    b5a8:	f04f 0901 	mov.w	r9, #1
    b5ac:	46b8      	mov	r8, r7
    b5ae:	6838      	ldr	r0, [r7, #0]
    b5b0:	f7ff f9fe 	bl	a9b0 <_strtod_r>
    b5b4:	460d      	mov	r5, r1
    b5b6:	4604      	mov	r4, r0
    b5b8:	f004 ff6a 	bl	10490 <__aeabi_d2f>
    b5bc:	2100      	movs	r1, #0
    b5be:	4606      	mov	r6, r0
    b5c0:	f005 f94a 	bl	10858 <__aeabi_fcmpeq>
    b5c4:	b108      	cbz	r0, b5ca <strtof+0x2e>
    b5c6:	f04f 0900 	mov.w	r9, #0
    b5ca:	f019 0fff 	tst.w	r9, #255	; 0xff
    b5ce:	d106      	bne.n	b5de <strtof+0x42>
    b5d0:	4620      	mov	r0, r4
    b5d2:	4629      	mov	r1, r5
    b5d4:	2200      	movs	r2, #0
    b5d6:	2300      	movs	r3, #0
    b5d8:	f004 fee0 	bl	1039c <__aeabi_dcmpeq>
    b5dc:	b328      	cbz	r0, b62a <strtof+0x8e>
    b5de:	4630      	mov	r0, r6
    b5e0:	4916      	ldr	r1, [pc, #88]	; (b63c <strtof+0xa0>)
    b5e2:	f005 f961 	bl	108a8 <__aeabi_fcmpgt>
    b5e6:	b160      	cbz	r0, b602 <strtof+0x66>
    b5e8:	4620      	mov	r0, r4
    b5ea:	4629      	mov	r1, r5
    b5ec:	f04f 32ff 	mov.w	r2, #4294967295
    b5f0:	4b13      	ldr	r3, [pc, #76]	; (b640 <strtof+0xa4>)
    b5f2:	2701      	movs	r7, #1
    b5f4:	f004 fefa 	bl	103ec <__aeabi_dcmpgt>
    b5f8:	b900      	cbnz	r0, b5fc <strtof+0x60>
    b5fa:	2700      	movs	r7, #0
    b5fc:	f017 0fff 	tst.w	r7, #255	; 0xff
    b600:	d013      	beq.n	b62a <strtof+0x8e>
    b602:	4630      	mov	r0, r6
    b604:	f46f 0100 	mvn.w	r1, #8388608	; 0x800000
    b608:	f005 f930 	bl	1086c <__aeabi_fcmplt>
    b60c:	b188      	cbz	r0, b632 <strtof+0x96>
    b60e:	4620      	mov	r0, r4
    b610:	4629      	mov	r1, r5
    b612:	f04f 32ff 	mov.w	r2, #4294967295
    b616:	f46f 1380 	mvn.w	r3, #1048576	; 0x100000
    b61a:	2701      	movs	r7, #1
    b61c:	f004 fec8 	bl	103b0 <__aeabi_dcmplt>
    b620:	b900      	cbnz	r0, b624 <strtof+0x88>
    b622:	2700      	movs	r7, #0
    b624:	f017 0fff 	tst.w	r7, #255	; 0xff
    b628:	d103      	bne.n	b632 <strtof+0x96>
    b62a:	f8d8 3000 	ldr.w	r3, [r8]
    b62e:	2222      	movs	r2, #34	; 0x22
    b630:	601a      	str	r2, [r3, #0]
    b632:	4630      	mov	r0, r6
    b634:	e8bd 83f8 	ldmia.w	sp!, {r3, r4, r5, r6, r7, r8, r9, pc}
    b638:	100000f4 	.word	0x100000f4
    b63c:	7f7fffff 	.word	0x7f7fffff
    b640:	7fefffff 	.word	0x7fefffff

0000b644 <_strtol_r>:
    b644:	e92d 4ff7 	stmdb	sp!, {r0, r1, r2, r4, r5, r6, r7, r8, r9, sl, fp, lr}
    b648:	4698      	mov	r8, r3
    b64a:	4b46      	ldr	r3, [pc, #280]	; (b764 <_strtol_r+0x120>)
    b64c:	460c      	mov	r4, r1
    b64e:	4615      	mov	r5, r2
    b650:	9001      	str	r0, [sp, #4]
    b652:	f8d3 b000 	ldr.w	fp, [r3]
    b656:	460b      	mov	r3, r1
    b658:	f813 6b01 	ldrb.w	r6, [r3], #1
    b65c:	eb0b 0206 	add.w	r2, fp, r6
    b660:	461f      	mov	r7, r3
    b662:	f892 9001 	ldrb.w	r9, [r2, #1]
    b666:	f019 0908 	ands.w	r9, r9, #8
    b66a:	d1f5      	bne.n	b658 <_strtol_r+0x14>
    b66c:	2e2d      	cmp	r6, #45	; 0x2d
    b66e:	d104      	bne.n	b67a <_strtol_r+0x36>
    b670:	f817 6b01 	ldrb.w	r6, [r7], #1
    b674:	f04f 0901 	mov.w	r9, #1
    b678:	e003      	b.n	b682 <_strtol_r+0x3e>
    b67a:	2e2b      	cmp	r6, #43	; 0x2b
    b67c:	bf08      	it	eq
    b67e:	f817 6b01 	ldrbeq.w	r6, [r7], #1
    b682:	f1b8 0f00 	cmp.w	r8, #0
    b686:	d002      	beq.n	b68e <_strtol_r+0x4a>
    b688:	f1b8 0f10 	cmp.w	r8, #16
    b68c:	d114      	bne.n	b6b8 <_strtol_r+0x74>
    b68e:	2e30      	cmp	r6, #48	; 0x30
    b690:	d109      	bne.n	b6a6 <_strtol_r+0x62>
    b692:	783b      	ldrb	r3, [r7, #0]
    b694:	2b78      	cmp	r3, #120	; 0x78
    b696:	d001      	beq.n	b69c <_strtol_r+0x58>
    b698:	2b58      	cmp	r3, #88	; 0x58
    b69a:	d104      	bne.n	b6a6 <_strtol_r+0x62>
    b69c:	787e      	ldrb	r6, [r7, #1]
    b69e:	f04f 0810 	mov.w	r8, #16
    b6a2:	3702      	adds	r7, #2
    b6a4:	e008      	b.n	b6b8 <_strtol_r+0x74>
    b6a6:	f1b8 0f00 	cmp.w	r8, #0
    b6aa:	d105      	bne.n	b6b8 <_strtol_r+0x74>
    b6ac:	2e30      	cmp	r6, #48	; 0x30
    b6ae:	bf14      	ite	ne
    b6b0:	f04f 080a 	movne.w	r8, #10
    b6b4:	f04f 0808 	moveq.w	r8, #8
    b6b8:	f1b9 0f00 	cmp.w	r9, #0
    b6bc:	4641      	mov	r1, r8
    b6be:	bf0c      	ite	eq
    b6c0:	f06f 4a00 	mvneq.w	sl, #2147483648	; 0x80000000
    b6c4:	f04f 4a00 	movne.w	sl, #2147483648	; 0x80000000
    b6c8:	4650      	mov	r0, sl
    b6ca:	f004 f8df 	bl	f88c <__aeabi_uidivmod>
    b6ce:	4650      	mov	r0, sl
    b6d0:	460b      	mov	r3, r1
    b6d2:	4641      	mov	r1, r8
    b6d4:	9300      	str	r3, [sp, #0]
    b6d6:	f003 ffab 	bl	f630 <__aeabi_uidiv>
    b6da:	2100      	movs	r1, #0
    b6dc:	9b00      	ldr	r3, [sp, #0]
    b6de:	460a      	mov	r2, r1
    b6e0:	eb0b 0c06 	add.w	ip, fp, r6
    b6e4:	f89c c001 	ldrb.w	ip, [ip, #1]
    b6e8:	f01c 0f04 	tst.w	ip, #4
    b6ec:	d001      	beq.n	b6f2 <_strtol_r+0xae>
    b6ee:	3e30      	subs	r6, #48	; 0x30
    b6f0:	e00b      	b.n	b70a <_strtol_r+0xc6>
    b6f2:	f01c 0c03 	ands.w	ip, ip, #3
    b6f6:	d01b      	beq.n	b730 <_strtol_r+0xec>
    b6f8:	f1bc 0f01 	cmp.w	ip, #1
    b6fc:	bf14      	ite	ne
    b6fe:	f04f 0c57 	movne.w	ip, #87	; 0x57
    b702:	f04f 0c37 	moveq.w	ip, #55	; 0x37
    b706:	ebcc 0606 	rsb	r6, ip, r6
    b70a:	4546      	cmp	r6, r8
    b70c:	da10      	bge.n	b730 <_strtol_r+0xec>
    b70e:	f1b1 3fff 	cmp.w	r1, #4294967295
    b712:	d00a      	beq.n	b72a <_strtol_r+0xe6>
    b714:	4282      	cmp	r2, r0
    b716:	d806      	bhi.n	b726 <_strtol_r+0xe2>
    b718:	d101      	bne.n	b71e <_strtol_r+0xda>
    b71a:	429e      	cmp	r6, r3
    b71c:	dc03      	bgt.n	b726 <_strtol_r+0xe2>
    b71e:	fb08 6202 	mla	r2, r8, r2, r6
    b722:	2101      	movs	r1, #1
    b724:	e001      	b.n	b72a <_strtol_r+0xe6>
    b726:	f04f 31ff 	mov.w	r1, #4294967295
    b72a:	f817 6b01 	ldrb.w	r6, [r7], #1
    b72e:	e7d7      	b.n	b6e0 <_strtol_r+0x9c>
    b730:	f1b1 3fff 	cmp.w	r1, #4294967295
    b734:	d10a      	bne.n	b74c <_strtol_r+0x108>
    b736:	9801      	ldr	r0, [sp, #4]
    b738:	f1b9 0f00 	cmp.w	r9, #0
    b73c:	bf0c      	ite	eq
    b73e:	f06f 4200 	mvneq.w	r2, #2147483648	; 0x80000000
    b742:	f04f 4200 	movne.w	r2, #2147483648	; 0x80000000
    b746:	2322      	movs	r3, #34	; 0x22
    b748:	6003      	str	r3, [r0, #0]
    b74a:	e003      	b.n	b754 <_strtol_r+0x110>
    b74c:	f1b9 0f00 	cmp.w	r9, #0
    b750:	d000      	beq.n	b754 <_strtol_r+0x110>
    b752:	4252      	negs	r2, r2
    b754:	b115      	cbz	r5, b75c <_strtol_r+0x118>
    b756:	b101      	cbz	r1, b75a <_strtol_r+0x116>
    b758:	1e7c      	subs	r4, r7, #1
    b75a:	602c      	str	r4, [r5, #0]
    b75c:	4610      	mov	r0, r2
    b75e:	e8bd 8ffe 	ldmia.w	sp!, {r1, r2, r3, r4, r5, r6, r7, r8, r9, sl, fp, pc}
    b762:	bf00      	nop
    b764:	10000000 	.word	0x10000000

0000b768 <strtol>:
    b768:	4613      	mov	r3, r2
    b76a:	4a05      	ldr	r2, [pc, #20]	; (b780 <strtol+0x18>)
    b76c:	b530      	push	{r4, r5, lr}
    b76e:	4605      	mov	r5, r0
    b770:	460c      	mov	r4, r1
    b772:	6810      	ldr	r0, [r2, #0]
    b774:	4629      	mov	r1, r5
    b776:	4622      	mov	r2, r4
    b778:	e8bd 4030 	ldmia.w	sp!, {r4, r5, lr}
    b77c:	f7ff bf62 	b.w	b644 <_strtol_r>
    b780:	100000f4 	.word	0x100000f4

0000b784 <_strtoll_r>:
    b784:	e92d 4ff0 	stmdb	sp!, {r4, r5, r6, r7, r8, r9, sl, fp, lr}
    b788:	461e      	mov	r6, r3
    b78a:	4b58      	ldr	r3, [pc, #352]	; (b8ec <_strtoll_r+0x168>)
    b78c:	b089      	sub	sp, #36	; 0x24
    b78e:	4688      	mov	r8, r1
    b790:	4694      	mov	ip, r2
    b792:	9007      	str	r0, [sp, #28]
    b794:	f8d3 9000 	ldr.w	r9, [r3]
    b798:	460b      	mov	r3, r1
    b79a:	f813 4b01 	ldrb.w	r4, [r3], #1
    b79e:	eb09 0204 	add.w	r2, r9, r4
    b7a2:	461d      	mov	r5, r3
    b7a4:	7857      	ldrb	r7, [r2, #1]
    b7a6:	f017 0708 	ands.w	r7, r7, #8
    b7aa:	d1f6      	bne.n	b79a <_strtoll_r+0x16>
    b7ac:	2c2d      	cmp	r4, #45	; 0x2d
    b7ae:	d103      	bne.n	b7b8 <_strtoll_r+0x34>
    b7b0:	f815 4b01 	ldrb.w	r4, [r5], #1
    b7b4:	2701      	movs	r7, #1
    b7b6:	e003      	b.n	b7c0 <_strtoll_r+0x3c>
    b7b8:	2c2b      	cmp	r4, #43	; 0x2b
    b7ba:	bf08      	it	eq
    b7bc:	f815 4b01 	ldrbeq.w	r4, [r5], #1
    b7c0:	b10e      	cbz	r6, b7c6 <_strtoll_r+0x42>
    b7c2:	2e10      	cmp	r6, #16
    b7c4:	d10f      	bne.n	b7e6 <_strtoll_r+0x62>
    b7c6:	2c30      	cmp	r4, #48	; 0x30
    b7c8:	d108      	bne.n	b7dc <_strtoll_r+0x58>
    b7ca:	782b      	ldrb	r3, [r5, #0]
    b7cc:	2b78      	cmp	r3, #120	; 0x78
    b7ce:	d001      	beq.n	b7d4 <_strtoll_r+0x50>
    b7d0:	2b58      	cmp	r3, #88	; 0x58
    b7d2:	d103      	bne.n	b7dc <_strtoll_r+0x58>
    b7d4:	786c      	ldrb	r4, [r5, #1]
    b7d6:	2610      	movs	r6, #16
    b7d8:	3502      	adds	r5, #2
    b7da:	e004      	b.n	b7e6 <_strtoll_r+0x62>
    b7dc:	b91e      	cbnz	r6, b7e6 <_strtoll_r+0x62>
    b7de:	2c30      	cmp	r4, #48	; 0x30
    b7e0:	bf14      	ite	ne
    b7e2:	260a      	movne	r6, #10
    b7e4:	2608      	moveq	r6, #8
    b7e6:	b127      	cbz	r7, b7f2 <_strtoll_r+0x6e>
    b7e8:	f04f 0a00 	mov.w	sl, #0
    b7ec:	f04f 4b00 	mov.w	fp, #2147483648	; 0x80000000
    b7f0:	e003      	b.n	b7fa <_strtoll_r+0x76>
    b7f2:	f04f 3aff 	mov.w	sl, #4294967295
    b7f6:	f06f 4b00 	mvn.w	fp, #2147483648	; 0x80000000
    b7fa:	4630      	mov	r0, r6
    b7fc:	17f1      	asrs	r1, r6, #31
    b7fe:	e9cd 0104 	strd	r0, r1, [sp, #16]
    b802:	4650      	mov	r0, sl
    b804:	4659      	mov	r1, fp
    b806:	e9dd 2304 	ldrd	r2, r3, [sp, #16]
    b80a:	f8cd c00c 	str.w	ip, [sp, #12]
    b80e:	f005 f87b 	bl	10908 <__aeabi_uldivmod>
    b812:	4650      	mov	r0, sl
    b814:	4659      	mov	r1, fp
    b816:	9206      	str	r2, [sp, #24]
    b818:	e9dd 2304 	ldrd	r2, r3, [sp, #16]
    b81c:	f005 f874 	bl	10908 <__aeabi_uldivmod>
    b820:	f8dd c00c 	ldr.w	ip, [sp, #12]
    b824:	2200      	movs	r2, #0
    b826:	2300      	movs	r3, #0
    b828:	f8cd c004 	str.w	ip, [sp, #4]
    b82c:	468b      	mov	fp, r1
    b82e:	4682      	mov	sl, r0
    b830:	2100      	movs	r1, #0
    b832:	eb09 0004 	add.w	r0, r9, r4
    b836:	7840      	ldrb	r0, [r0, #1]
    b838:	f010 0f04 	tst.w	r0, #4
    b83c:	d001      	beq.n	b842 <_strtoll_r+0xbe>
    b83e:	3c30      	subs	r4, #48	; 0x30
    b840:	e007      	b.n	b852 <_strtoll_r+0xce>
    b842:	f010 0003 	ands.w	r0, r0, #3
    b846:	d02d      	beq.n	b8a4 <_strtoll_r+0x120>
    b848:	2801      	cmp	r0, #1
    b84a:	bf14      	ite	ne
    b84c:	2057      	movne	r0, #87	; 0x57
    b84e:	2037      	moveq	r0, #55	; 0x37
    b850:	1a24      	subs	r4, r4, r0
    b852:	42b4      	cmp	r4, r6
    b854:	da26      	bge.n	b8a4 <_strtoll_r+0x120>
    b856:	f1b1 3fff 	cmp.w	r1, #4294967295
    b85a:	d020      	beq.n	b89e <_strtoll_r+0x11a>
    b85c:	4592      	cmp	sl, r2
    b85e:	eb7b 0103 	sbcs.w	r1, fp, r3
    b862:	d31a      	bcc.n	b89a <_strtoll_r+0x116>
    b864:	ea82 000a 	eor.w	r0, r2, sl
    b868:	ea83 010b 	eor.w	r1, r3, fp
    b86c:	ea50 0c01 	orrs.w	ip, r0, r1
    b870:	d102      	bne.n	b878 <_strtoll_r+0xf4>
    b872:	9806      	ldr	r0, [sp, #24]
    b874:	4284      	cmp	r4, r0
    b876:	dc0e      	bgt.n	b896 <_strtoll_r+0x112>
    b878:	f8dd c014 	ldr.w	ip, [sp, #20]
    b87c:	9804      	ldr	r0, [sp, #16]
    b87e:	fb02 f10c 	mul.w	r1, r2, ip
    b882:	fb00 1103 	mla	r1, r0, r3, r1
    b886:	fba2 2300 	umull	r2, r3, r2, r0
    b88a:	18cb      	adds	r3, r1, r3
    b88c:	1912      	adds	r2, r2, r4
    b88e:	eb43 73e4 	adc.w	r3, r3, r4, asr #31
    b892:	2101      	movs	r1, #1
    b894:	e003      	b.n	b89e <_strtoll_r+0x11a>
    b896:	4652      	mov	r2, sl
    b898:	465b      	mov	r3, fp
    b89a:	f04f 31ff 	mov.w	r1, #4294967295
    b89e:	f815 4b01 	ldrb.w	r4, [r5], #1
    b8a2:	e7c6      	b.n	b832 <_strtoll_r+0xae>
    b8a4:	f1b1 3fff 	cmp.w	r1, #4294967295
    b8a8:	f8dd c004 	ldr.w	ip, [sp, #4]
    b8ac:	d10c      	bne.n	b8c8 <_strtoll_r+0x144>
    b8ae:	b11f      	cbz	r7, b8b8 <_strtoll_r+0x134>
    b8b0:	2200      	movs	r2, #0
    b8b2:	f04f 4300 	mov.w	r3, #2147483648	; 0x80000000
    b8b6:	e003      	b.n	b8c0 <_strtoll_r+0x13c>
    b8b8:	f04f 32ff 	mov.w	r2, #4294967295
    b8bc:	f06f 4300 	mvn.w	r3, #2147483648	; 0x80000000
    b8c0:	9c07      	ldr	r4, [sp, #28]
    b8c2:	2022      	movs	r0, #34	; 0x22
    b8c4:	6020      	str	r0, [r4, #0]
    b8c6:	e003      	b.n	b8d0 <_strtoll_r+0x14c>
    b8c8:	b117      	cbz	r7, b8d0 <_strtoll_r+0x14c>
    b8ca:	4252      	negs	r2, r2
    b8cc:	eb63 0343 	sbc.w	r3, r3, r3, lsl #1
    b8d0:	f1bc 0f00 	cmp.w	ip, #0
    b8d4:	d004      	beq.n	b8e0 <_strtoll_r+0x15c>
    b8d6:	b109      	cbz	r1, b8dc <_strtoll_r+0x158>
    b8d8:	f105 38ff 	add.w	r8, r5, #4294967295
    b8dc:	f8cc 8000 	str.w	r8, [ip]
    b8e0:	4610      	mov	r0, r2
    b8e2:	4619      	mov	r1, r3
    b8e4:	b009      	add	sp, #36	; 0x24
    b8e6:	e8bd 8ff0 	ldmia.w	sp!, {r4, r5, r6, r7, r8, r9, sl, fp, pc}
    b8ea:	bf00      	nop
    b8ec:	10000000 	.word	0x10000000

0000b8f0 <_strtoul_r>:
    b8f0:	e92d 4ff7 	stmdb	sp!, {r0, r1, r2, r4, r5, r6, r7, r8, r9, sl, fp, lr}
    b8f4:	4698      	mov	r8, r3
    b8f6:	4b3c      	ldr	r3, [pc, #240]	; (b9e8 <_strtoul_r+0xf8>)
    b8f8:	460c      	mov	r4, r1
    b8fa:	4615      	mov	r5, r2
    b8fc:	9001      	str	r0, [sp, #4]
    b8fe:	f8d3 a000 	ldr.w	sl, [r3]
    b902:	460b      	mov	r3, r1
    b904:	f813 6b01 	ldrb.w	r6, [r3], #1
    b908:	eb0a 0206 	add.w	r2, sl, r6
    b90c:	461f      	mov	r7, r3
    b90e:	f892 9001 	ldrb.w	r9, [r2, #1]
    b912:	f019 0908 	ands.w	r9, r9, #8
    b916:	d1f5      	bne.n	b904 <_strtoul_r+0x14>
    b918:	2e2d      	cmp	r6, #45	; 0x2d
    b91a:	d104      	bne.n	b926 <_strtoul_r+0x36>
    b91c:	f817 6b01 	ldrb.w	r6, [r7], #1
    b920:	f04f 0901 	mov.w	r9, #1
    b924:	e003      	b.n	b92e <_strtoul_r+0x3e>
    b926:	2e2b      	cmp	r6, #43	; 0x2b
    b928:	bf08      	it	eq
    b92a:	f817 6b01 	ldrbeq.w	r6, [r7], #1
    b92e:	f1b8 0f00 	cmp.w	r8, #0
    b932:	d002      	beq.n	b93a <_strtoul_r+0x4a>
    b934:	f1b8 0f10 	cmp.w	r8, #16
    b938:	d114      	bne.n	b964 <_strtoul_r+0x74>
    b93a:	2e30      	cmp	r6, #48	; 0x30
    b93c:	d109      	bne.n	b952 <_strtoul_r+0x62>
    b93e:	783b      	ldrb	r3, [r7, #0]
    b940:	2b78      	cmp	r3, #120	; 0x78
    b942:	d001      	beq.n	b948 <_strtoul_r+0x58>
    b944:	2b58      	cmp	r3, #88	; 0x58
    b946:	d104      	bne.n	b952 <_strtoul_r+0x62>
    b948:	787e      	ldrb	r6, [r7, #1]
    b94a:	f04f 0810 	mov.w	r8, #16
    b94e:	3702      	adds	r7, #2
    b950:	e008      	b.n	b964 <_strtoul_r+0x74>
    b952:	f1b8 0f00 	cmp.w	r8, #0
    b956:	d105      	bne.n	b964 <_strtoul_r+0x74>
    b958:	2e30      	cmp	r6, #48	; 0x30
    b95a:	bf14      	ite	ne
    b95c:	f04f 080a 	movne.w	r8, #10
    b960:	f04f 0808 	moveq.w	r8, #8
    b964:	4641      	mov	r1, r8
    b966:	f04f 30ff 	mov.w	r0, #4294967295
    b96a:	f003 fe61 	bl	f630 <__aeabi_uidiv>
    b96e:	4641      	mov	r1, r8
    b970:	4683      	mov	fp, r0
    b972:	f04f 30ff 	mov.w	r0, #4294967295
    b976:	f003 ff89 	bl	f88c <__aeabi_uidivmod>
    b97a:	2300      	movs	r3, #0
    b97c:	4618      	mov	r0, r3
    b97e:	eb0a 0206 	add.w	r2, sl, r6
    b982:	7852      	ldrb	r2, [r2, #1]
    b984:	f012 0f04 	tst.w	r2, #4
    b988:	d001      	beq.n	b98e <_strtoul_r+0x9e>
    b98a:	3e30      	subs	r6, #48	; 0x30
    b98c:	e007      	b.n	b99e <_strtoul_r+0xae>
    b98e:	f012 0203 	ands.w	r2, r2, #3
    b992:	d017      	beq.n	b9c4 <_strtoul_r+0xd4>
    b994:	2a01      	cmp	r2, #1
    b996:	bf14      	ite	ne
    b998:	2257      	movne	r2, #87	; 0x57
    b99a:	2237      	moveq	r2, #55	; 0x37
    b99c:	1ab6      	subs	r6, r6, r2
    b99e:	4546      	cmp	r6, r8
    b9a0:	da10      	bge.n	b9c4 <_strtoul_r+0xd4>
    b9a2:	f1b3 3fff 	cmp.w	r3, #4294967295
    b9a6:	d00a      	beq.n	b9be <_strtoul_r+0xce>
    b9a8:	4558      	cmp	r0, fp
    b9aa:	d806      	bhi.n	b9ba <_strtoul_r+0xca>
    b9ac:	d101      	bne.n	b9b2 <_strtoul_r+0xc2>
    b9ae:	428e      	cmp	r6, r1
    b9b0:	dc03      	bgt.n	b9ba <_strtoul_r+0xca>
    b9b2:	fb08 6000 	mla	r0, r8, r0, r6
    b9b6:	2301      	movs	r3, #1
    b9b8:	e001      	b.n	b9be <_strtoul_r+0xce>
    b9ba:	f04f 33ff 	mov.w	r3, #4294967295
    b9be:	f817 6b01 	ldrb.w	r6, [r7], #1
    b9c2:	e7dc      	b.n	b97e <_strtoul_r+0x8e>
    b9c4:	f1b3 3fff 	cmp.w	r3, #4294967295
    b9c8:	d104      	bne.n	b9d4 <_strtoul_r+0xe4>
    b9ca:	9901      	ldr	r1, [sp, #4]
    b9cc:	2222      	movs	r2, #34	; 0x22
    b9ce:	4618      	mov	r0, r3
    b9d0:	600a      	str	r2, [r1, #0]
    b9d2:	e003      	b.n	b9dc <_strtoul_r+0xec>
    b9d4:	f1b9 0f00 	cmp.w	r9, #0
    b9d8:	d000      	beq.n	b9dc <_strtoul_r+0xec>
    b9da:	4240      	negs	r0, r0
    b9dc:	b115      	cbz	r5, b9e4 <_strtoul_r+0xf4>
    b9de:	b103      	cbz	r3, b9e2 <_strtoul_r+0xf2>
    b9e0:	1e7c      	subs	r4, r7, #1
    b9e2:	602c      	str	r4, [r5, #0]
    b9e4:	e8bd 8ffe 	ldmia.w	sp!, {r1, r2, r3, r4, r5, r6, r7, r8, r9, sl, fp, pc}
    b9e8:	10000000 	.word	0x10000000

0000b9ec <strtoul>:
    b9ec:	4613      	mov	r3, r2
    b9ee:	4a05      	ldr	r2, [pc, #20]	; (ba04 <strtoul+0x18>)
    b9f0:	b530      	push	{r4, r5, lr}
    b9f2:	4605      	mov	r5, r0
    b9f4:	460c      	mov	r4, r1
    b9f6:	6810      	ldr	r0, [r2, #0]
    b9f8:	4629      	mov	r1, r5
    b9fa:	4622      	mov	r2, r4
    b9fc:	e8bd 4030 	ldmia.w	sp!, {r4, r5, lr}
    ba00:	f7ff bf76 	b.w	b8f0 <_strtoul_r>
    ba04:	100000f4 	.word	0x100000f4

0000ba08 <_strtoull_r>:
    ba08:	e92d 4ff0 	stmdb	sp!, {r4, r5, r6, r7, r8, r9, sl, fp, lr}
    ba0c:	461e      	mov	r6, r3
    ba0e:	4b52      	ldr	r3, [pc, #328]	; (bb58 <_strtoull_r+0x150>)
    ba10:	b08b      	sub	sp, #44	; 0x2c
    ba12:	4688      	mov	r8, r1
    ba14:	4694      	mov	ip, r2
    ba16:	9009      	str	r0, [sp, #36]	; 0x24
    ba18:	f8d3 9000 	ldr.w	r9, [r3]
    ba1c:	460b      	mov	r3, r1
    ba1e:	f813 4b01 	ldrb.w	r4, [r3], #1
    ba22:	eb09 0204 	add.w	r2, r9, r4
    ba26:	461d      	mov	r5, r3
    ba28:	7857      	ldrb	r7, [r2, #1]
    ba2a:	f017 0708 	ands.w	r7, r7, #8
    ba2e:	d1f6      	bne.n	ba1e <_strtoull_r+0x16>
    ba30:	2c2d      	cmp	r4, #45	; 0x2d
    ba32:	d103      	bne.n	ba3c <_strtoull_r+0x34>
    ba34:	f815 4b01 	ldrb.w	r4, [r5], #1
    ba38:	2701      	movs	r7, #1
    ba3a:	e003      	b.n	ba44 <_strtoull_r+0x3c>
    ba3c:	2c2b      	cmp	r4, #43	; 0x2b
    ba3e:	bf08      	it	eq
    ba40:	f815 4b01 	ldrbeq.w	r4, [r5], #1
    ba44:	b10e      	cbz	r6, ba4a <_strtoull_r+0x42>
    ba46:	2e10      	cmp	r6, #16
    ba48:	d10f      	bne.n	ba6a <_strtoull_r+0x62>
    ba4a:	2c30      	cmp	r4, #48	; 0x30
    ba4c:	d108      	bne.n	ba60 <_strtoull_r+0x58>
    ba4e:	782b      	ldrb	r3, [r5, #0]
    ba50:	2b78      	cmp	r3, #120	; 0x78
    ba52:	d001      	beq.n	ba58 <_strtoull_r+0x50>
    ba54:	2b58      	cmp	r3, #88	; 0x58
    ba56:	d103      	bne.n	ba60 <_strtoull_r+0x58>
    ba58:	786c      	ldrb	r4, [r5, #1]
    ba5a:	2610      	movs	r6, #16
    ba5c:	3502      	adds	r5, #2
    ba5e:	e004      	b.n	ba6a <_strtoull_r+0x62>
    ba60:	b91e      	cbnz	r6, ba6a <_strtoull_r+0x62>
    ba62:	2c30      	cmp	r4, #48	; 0x30
    ba64:	bf14      	ite	ne
    ba66:	260a      	movne	r6, #10
    ba68:	2608      	moveq	r6, #8
    ba6a:	ea4f 7be6 	mov.w	fp, r6, asr #31
    ba6e:	4632      	mov	r2, r6
    ba70:	465b      	mov	r3, fp
    ba72:	f04f 30ff 	mov.w	r0, #4294967295
    ba76:	f04f 31ff 	mov.w	r1, #4294967295
    ba7a:	f8cd c014 	str.w	ip, [sp, #20]
    ba7e:	f004 ff43 	bl	10908 <__aeabi_uldivmod>
    ba82:	4632      	mov	r2, r6
    ba84:	465b      	mov	r3, fp
    ba86:	46b2      	mov	sl, r6
    ba88:	9006      	str	r0, [sp, #24]
    ba8a:	f04f 30ff 	mov.w	r0, #4294967295
    ba8e:	9107      	str	r1, [sp, #28]
    ba90:	f04f 31ff 	mov.w	r1, #4294967295
    ba94:	f004 ff38 	bl	10908 <__aeabi_uldivmod>
    ba98:	f8dd c014 	ldr.w	ip, [sp, #20]
    ba9c:	2100      	movs	r1, #0
    ba9e:	2300      	movs	r3, #0
    baa0:	9701      	str	r7, [sp, #4]
    baa2:	9600      	str	r6, [sp, #0]
    baa4:	9208      	str	r2, [sp, #32]
    baa6:	2200      	movs	r2, #0
    baa8:	eb09 0004 	add.w	r0, r9, r4
    baac:	7840      	ldrb	r0, [r0, #1]
    baae:	f010 0f04 	tst.w	r0, #4
    bab2:	d001      	beq.n	bab8 <_strtoull_r+0xb0>
    bab4:	3c30      	subs	r4, #48	; 0x30
    bab6:	e007      	b.n	bac8 <_strtoull_r+0xc0>
    bab8:	f010 0003 	ands.w	r0, r0, #3
    babc:	d02e      	beq.n	bb1c <_strtoull_r+0x114>
    babe:	2801      	cmp	r0, #1
    bac0:	bf14      	ite	ne
    bac2:	2057      	movne	r0, #87	; 0x57
    bac4:	2037      	moveq	r0, #55	; 0x37
    bac6:	1a24      	subs	r4, r4, r0
    bac8:	9800      	ldr	r0, [sp, #0]
    baca:	4284      	cmp	r4, r0
    bacc:	da26      	bge.n	bb1c <_strtoull_r+0x114>
    bace:	f1b1 3fff 	cmp.w	r1, #4294967295
    bad2:	d020      	beq.n	bb16 <_strtoull_r+0x10e>
    bad4:	e9dd 6706 	ldrd	r6, r7, [sp, #24]
    bad8:	4296      	cmp	r6, r2
    bada:	419f      	sbcs	r7, r3
    badc:	d319      	bcc.n	bb12 <_strtoull_r+0x10a>
    bade:	e9dd 6706 	ldrd	r6, r7, [sp, #24]
    bae2:	ea82 0006 	eor.w	r0, r2, r6
    bae6:	ea83 0107 	eor.w	r1, r3, r7
    baea:	ea50 0701 	orrs.w	r7, r0, r1
    baee:	d102      	bne.n	baf6 <_strtoull_r+0xee>
    baf0:	9808      	ldr	r0, [sp, #32]
    baf2:	4284      	cmp	r4, r0
    baf4:	dc0b      	bgt.n	bb0e <_strtoull_r+0x106>
    baf6:	fb02 f10b 	mul.w	r1, r2, fp
    bafa:	fb0a 1103 	mla	r1, sl, r3, r1
    bafe:	fba2 230a 	umull	r2, r3, r2, sl
    bb02:	18cb      	adds	r3, r1, r3
    bb04:	1912      	adds	r2, r2, r4
    bb06:	eb43 73e4 	adc.w	r3, r3, r4, asr #31
    bb0a:	2101      	movs	r1, #1
    bb0c:	e003      	b.n	bb16 <_strtoull_r+0x10e>
    bb0e:	e9dd 2306 	ldrd	r2, r3, [sp, #24]
    bb12:	f04f 31ff 	mov.w	r1, #4294967295
    bb16:	f815 4b01 	ldrb.w	r4, [r5], #1
    bb1a:	e7c5      	b.n	baa8 <_strtoull_r+0xa0>
    bb1c:	f1b1 3fff 	cmp.w	r1, #4294967295
    bb20:	9f01      	ldr	r7, [sp, #4]
    bb22:	d107      	bne.n	bb34 <_strtoull_r+0x12c>
    bb24:	9a09      	ldr	r2, [sp, #36]	; 0x24
    bb26:	2322      	movs	r3, #34	; 0x22
    bb28:	6013      	str	r3, [r2, #0]
    bb2a:	f04f 32ff 	mov.w	r2, #4294967295
    bb2e:	f04f 33ff 	mov.w	r3, #4294967295
    bb32:	e003      	b.n	bb3c <_strtoull_r+0x134>
    bb34:	b117      	cbz	r7, bb3c <_strtoull_r+0x134>
    bb36:	4252      	negs	r2, r2
    bb38:	eb63 0343 	sbc.w	r3, r3, r3, lsl #1
    bb3c:	f1bc 0f00 	cmp.w	ip, #0
    bb40:	d004      	beq.n	bb4c <_strtoull_r+0x144>
    bb42:	b109      	cbz	r1, bb48 <_strtoull_r+0x140>
    bb44:	f105 38ff 	add.w	r8, r5, #4294967295
    bb48:	f8cc 8000 	str.w	r8, [ip]
    bb4c:	4610      	mov	r0, r2
    bb4e:	4619      	mov	r1, r3
    bb50:	b00b      	add	sp, #44	; 0x2c
    bb52:	e8bd 8ff0 	ldmia.w	sp!, {r4, r5, r6, r7, r8, r9, sl, fp, pc}
    bb56:	bf00      	nop
    bb58:	10000000 	.word	0x10000000

0000bb5c <_svfprintf_r>:
    bb5c:	e92d 4ff0 	stmdb	sp!, {r4, r5, r6, r7, r8, r9, sl, fp, lr}
    bb60:	b0bf      	sub	sp, #252	; 0xfc
    bb62:	460f      	mov	r7, r1
    bb64:	461e      	mov	r6, r3
    bb66:	4615      	mov	r5, r2
    bb68:	4680      	mov	r8, r0
    bb6a:	f7fd fe1d 	bl	97a8 <_localeconv_r>
    bb6e:	6800      	ldr	r0, [r0, #0]
    bb70:	9013      	str	r0, [sp, #76]	; 0x4c
    bb72:	f7fe fefd 	bl	a970 <strlen>
    bb76:	89bb      	ldrh	r3, [r7, #12]
    bb78:	f013 0f80 	tst.w	r3, #128	; 0x80
    bb7c:	9012      	str	r0, [sp, #72]	; 0x48
    bb7e:	d011      	beq.n	bba4 <_svfprintf_r+0x48>
    bb80:	693b      	ldr	r3, [r7, #16]
    bb82:	b97b      	cbnz	r3, bba4 <_svfprintf_r+0x48>
    bb84:	4640      	mov	r0, r8
    bb86:	2140      	movs	r1, #64	; 0x40
    bb88:	f7fd fea0 	bl	98cc <_malloc_r>
    bb8c:	6038      	str	r0, [r7, #0]
    bb8e:	6138      	str	r0, [r7, #16]
    bb90:	b930      	cbnz	r0, bba0 <_svfprintf_r+0x44>
    bb92:	230c      	movs	r3, #12
    bb94:	3801      	subs	r0, #1
    bb96:	f8c8 3000 	str.w	r3, [r8]
    bb9a:	900f      	str	r0, [sp, #60]	; 0x3c
    bb9c:	f001 b856 	b.w	cc4c <_svfprintf_r+0x10f0>
    bba0:	2340      	movs	r3, #64	; 0x40
    bba2:	617b      	str	r3, [r7, #20]
    bba4:	2300      	movs	r3, #0
    bba6:	ac19      	add	r4, sp, #100	; 0x64
    bba8:	9335      	str	r3, [sp, #212]	; 0xd4
    bbaa:	9433      	str	r4, [sp, #204]	; 0xcc
    bbac:	9334      	str	r3, [sp, #208]	; 0xd0
    bbae:	950c      	str	r5, [sp, #48]	; 0x30
    bbb0:	930b      	str	r3, [sp, #44]	; 0x2c
    bbb2:	9310      	str	r3, [sp, #64]	; 0x40
    bbb4:	9311      	str	r3, [sp, #68]	; 0x44
    bbb6:	9316      	str	r3, [sp, #88]	; 0x58
    bbb8:	9315      	str	r3, [sp, #84]	; 0x54
    bbba:	930f      	str	r3, [sp, #60]	; 0x3c
    bbbc:	9b0c      	ldr	r3, [sp, #48]	; 0x30
    bbbe:	461d      	mov	r5, r3
    bbc0:	f813 2b01 	ldrb.w	r2, [r3], #1
    bbc4:	b10a      	cbz	r2, bbca <_svfprintf_r+0x6e>
    bbc6:	2a25      	cmp	r2, #37	; 0x25
    bbc8:	d1f9      	bne.n	bbbe <_svfprintf_r+0x62>
    bbca:	990c      	ldr	r1, [sp, #48]	; 0x30
    bbcc:	ebb5 0901 	subs.w	r9, r5, r1
    bbd0:	d018      	beq.n	bc04 <_svfprintf_r+0xa8>
    bbd2:	9b35      	ldr	r3, [sp, #212]	; 0xd4
    bbd4:	6021      	str	r1, [r4, #0]
    bbd6:	f8c4 9004 	str.w	r9, [r4, #4]
    bbda:	444b      	add	r3, r9
    bbdc:	9335      	str	r3, [sp, #212]	; 0xd4
    bbde:	9b34      	ldr	r3, [sp, #208]	; 0xd0
    bbe0:	3301      	adds	r3, #1
    bbe2:	9334      	str	r3, [sp, #208]	; 0xd0
    bbe4:	2b07      	cmp	r3, #7
    bbe6:	dc01      	bgt.n	bbec <_svfprintf_r+0x90>
    bbe8:	3408      	adds	r4, #8
    bbea:	e008      	b.n	bbfe <_svfprintf_r+0xa2>
    bbec:	4640      	mov	r0, r8
    bbee:	4639      	mov	r1, r7
    bbf0:	aa33      	add	r2, sp, #204	; 0xcc
    bbf2:	f002 fdfe 	bl	e7f2 <__ssprint_r>
    bbf6:	2800      	cmp	r0, #0
    bbf8:	f041 801f 	bne.w	cc3a <_svfprintf_r+0x10de>
    bbfc:	ac19      	add	r4, sp, #100	; 0x64
    bbfe:	9a0f      	ldr	r2, [sp, #60]	; 0x3c
    bc00:	444a      	add	r2, r9
    bc02:	920f      	str	r2, [sp, #60]	; 0x3c
    bc04:	782b      	ldrb	r3, [r5, #0]
    bc06:	2b00      	cmp	r3, #0
    bc08:	f001 8010 	beq.w	cc2c <_svfprintf_r+0x10d0>
    bc0c:	2300      	movs	r3, #0
    bc0e:	3501      	adds	r5, #1
    bc10:	950c      	str	r5, [sp, #48]	; 0x30
    bc12:	461d      	mov	r5, r3
    bc14:	f88d 30f7 	strb.w	r3, [sp, #247]	; 0xf7
    bc18:	f04f 3cff 	mov.w	ip, #4294967295
    bc1c:	930d      	str	r3, [sp, #52]	; 0x34
    bc1e:	462a      	mov	r2, r5
    bc20:	9b0c      	ldr	r3, [sp, #48]	; 0x30
    bc22:	e005      	b.n	bc30 <_svfprintf_r+0xd4>
    bc24:	460e      	mov	r6, r1
    bc26:	e003      	b.n	bc30 <_svfprintf_r+0xd4>
    bc28:	461e      	mov	r6, r3
    bc2a:	f04f 3cff 	mov.w	ip, #4294967295
    bc2e:	460b      	mov	r3, r1
    bc30:	f813 9b01 	ldrb.w	r9, [r3], #1
    bc34:	f1a9 0120 	sub.w	r1, r9, #32
    bc38:	2958      	cmp	r1, #88	; 0x58
    bc3a:	f200 8412 	bhi.w	c462 <_svfprintf_r+0x906>
    bc3e:	e8df f011 	tbh	[pc, r1, lsl #1]
    bc42:	0059      	.short	0x0059
    bc44:	04100410 	.word	0x04100410
    bc48:	0410005f 	.word	0x0410005f
    bc4c:	04100410 	.word	0x04100410
    bc50:	04100410 	.word	0x04100410
    bc54:	00620410 	.word	0x00620410
    bc58:	0410006b 	.word	0x0410006b
    bc5c:	006f0068 	.word	0x006f0068
    bc60:	00920410 	.word	0x00920410
    bc64:	00950095 	.word	0x00950095
    bc68:	00950095 	.word	0x00950095
    bc6c:	00950095 	.word	0x00950095
    bc70:	00950095 	.word	0x00950095
    bc74:	04100095 	.word	0x04100095
    bc78:	04100410 	.word	0x04100410
    bc7c:	04100410 	.word	0x04100410
    bc80:	04100410 	.word	0x04100410
    bc84:	04100410 	.word	0x04100410
    bc88:	00c00410 	.word	0x00c00410
    bc8c:	041000fd 	.word	0x041000fd
    bc90:	041000fd 	.word	0x041000fd
    bc94:	04100410 	.word	0x04100410
    bc98:	00a40410 	.word	0x00a40410
    bc9c:	04100410 	.word	0x04100410
    bca0:	041002a8 	.word	0x041002a8
    bca4:	04100410 	.word	0x04100410
    bca8:	04100410 	.word	0x04100410
    bcac:	04100313 	.word	0x04100313
    bcb0:	03450410 	.word	0x03450410
    bcb4:	04100410 	.word	0x04100410
    bcb8:	04100410 	.word	0x04100410
    bcbc:	04100410 	.word	0x04100410
    bcc0:	04100410 	.word	0x04100410
    bcc4:	04100410 	.word	0x04100410
    bcc8:	00c500b5 	.word	0x00c500b5
    bccc:	00fd00fd 	.word	0x00fd00fd
    bcd0:	00a700fd 	.word	0x00a700fd
    bcd4:	041000c5 	.word	0x041000c5
    bcd8:	00aa0410 	.word	0x00aa0410
    bcdc:	028a0410 	.word	0x028a0410
    bce0:	02d902ad 	.word	0x02d902ad
    bce4:	041000b2 	.word	0x041000b2
    bce8:	041002ed 	.word	0x041002ed
    bcec:	04100318 	.word	0x04100318
    bcf0:	03400410 	.word	0x03400410
    bcf4:	f89d 10f7 	ldrb.w	r1, [sp, #247]	; 0xf7
    bcf8:	2900      	cmp	r1, #0
    bcfa:	d199      	bne.n	bc30 <_svfprintf_r+0xd4>
    bcfc:	3120      	adds	r1, #32
    bcfe:	e00c      	b.n	bd1a <_svfprintf_r+0x1be>
    bd00:	f045 0501 	orr.w	r5, r5, #1
    bd04:	e794      	b.n	bc30 <_svfprintf_r+0xd4>
    bd06:	6832      	ldr	r2, [r6, #0]
    bd08:	1d31      	adds	r1, r6, #4
    bd0a:	2a00      	cmp	r2, #0
    bd0c:	da8a      	bge.n	bc24 <_svfprintf_r+0xc8>
    bd0e:	4252      	negs	r2, r2
    bd10:	460e      	mov	r6, r1
    bd12:	f045 0504 	orr.w	r5, r5, #4
    bd16:	e78b      	b.n	bc30 <_svfprintf_r+0xd4>
    bd18:	212b      	movs	r1, #43	; 0x2b
    bd1a:	f88d 10f7 	strb.w	r1, [sp, #247]	; 0xf7
    bd1e:	e787      	b.n	bc30 <_svfprintf_r+0xd4>
    bd20:	4619      	mov	r1, r3
    bd22:	f811 9b01 	ldrb.w	r9, [r1], #1
    bd26:	f1b9 0f2a 	cmp.w	r9, #42	; 0x2a
    bd2a:	d003      	beq.n	bd34 <_svfprintf_r+0x1d8>
    bd2c:	4619      	mov	r1, r3
    bd2e:	f04f 0c00 	mov.w	ip, #0
    bd32:	e010      	b.n	bd56 <_svfprintf_r+0x1fa>
    bd34:	f8d6 c000 	ldr.w	ip, [r6]
    bd38:	1d33      	adds	r3, r6, #4
    bd3a:	f1bc 0f00 	cmp.w	ip, #0
    bd3e:	f6ff af73 	blt.w	bc28 <_svfprintf_r+0xcc>
    bd42:	461e      	mov	r6, r3
    bd44:	460b      	mov	r3, r1
    bd46:	e773      	b.n	bc30 <_svfprintf_r+0xd4>
    bd48:	f04f 090a 	mov.w	r9, #10
    bd4c:	fb09 0c0c 	mla	ip, r9, ip, r0
    bd50:	f891 9001 	ldrb.w	r9, [r1, #1]
    bd54:	4619      	mov	r1, r3
    bd56:	f1a9 0030 	sub.w	r0, r9, #48	; 0x30
    bd5a:	3301      	adds	r3, #1
    bd5c:	2809      	cmp	r0, #9
    bd5e:	d9f3      	bls.n	bd48 <_svfprintf_r+0x1ec>
    bd60:	ea4c 7cec 	orr.w	ip, ip, ip, asr #31
    bd64:	e766      	b.n	bc34 <_svfprintf_r+0xd8>
    bd66:	f045 0580 	orr.w	r5, r5, #128	; 0x80
    bd6a:	e761      	b.n	bc30 <_svfprintf_r+0xd4>
    bd6c:	4619      	mov	r1, r3
    bd6e:	2200      	movs	r2, #0
    bd70:	230a      	movs	r3, #10
    bd72:	f1a9 0930 	sub.w	r9, r9, #48	; 0x30
    bd76:	fb03 9202 	mla	r2, r3, r2, r9
    bd7a:	f811 9b01 	ldrb.w	r9, [r1], #1
    bd7e:	f1a9 0030 	sub.w	r0, r9, #48	; 0x30
    bd82:	460b      	mov	r3, r1
    bd84:	2809      	cmp	r0, #9
    bd86:	d9f3      	bls.n	bd70 <_svfprintf_r+0x214>
    bd88:	e754      	b.n	bc34 <_svfprintf_r+0xd8>
    bd8a:	f045 0508 	orr.w	r5, r5, #8
    bd8e:	e74f      	b.n	bc30 <_svfprintf_r+0xd4>
    bd90:	f045 0540 	orr.w	r5, r5, #64	; 0x40
    bd94:	e74c      	b.n	bc30 <_svfprintf_r+0xd4>
    bd96:	7819      	ldrb	r1, [r3, #0]
    bd98:	296c      	cmp	r1, #108	; 0x6c
    bd9a:	d101      	bne.n	bda0 <_svfprintf_r+0x244>
    bd9c:	3301      	adds	r3, #1
    bd9e:	e002      	b.n	bda6 <_svfprintf_r+0x24a>
    bda0:	f045 0510 	orr.w	r5, r5, #16
    bda4:	e744      	b.n	bc30 <_svfprintf_r+0xd4>
    bda6:	f045 0520 	orr.w	r5, r5, #32
    bdaa:	e741      	b.n	bc30 <_svfprintf_r+0xd4>
    bdac:	930c      	str	r3, [sp, #48]	; 0x30
    bdae:	f04f 0c00 	mov.w	ip, #0
    bdb2:	6833      	ldr	r3, [r6, #0]
    bdb4:	3604      	adds	r6, #4
    bdb6:	920d      	str	r2, [sp, #52]	; 0x34
    bdb8:	f88d c0f7 	strb.w	ip, [sp, #247]	; 0xf7
    bdbc:	f88d 30a4 	strb.w	r3, [sp, #164]	; 0xa4
    bdc0:	e35b      	b.n	c47a <_svfprintf_r+0x91e>
    bdc2:	930c      	str	r3, [sp, #48]	; 0x30
    bdc4:	f045 0510 	orr.w	r5, r5, #16
    bdc8:	920d      	str	r2, [sp, #52]	; 0x34
    bdca:	e001      	b.n	bdd0 <_svfprintf_r+0x274>
    bdcc:	930c      	str	r3, [sp, #48]	; 0x30
    bdce:	920d      	str	r2, [sp, #52]	; 0x34
    bdd0:	f015 0f20 	tst.w	r5, #32
    bdd4:	d009      	beq.n	bdea <_svfprintf_r+0x28e>
    bdd6:	3607      	adds	r6, #7
    bdd8:	f026 0307 	bic.w	r3, r6, #7
    bddc:	f103 0608 	add.w	r6, r3, #8
    bde0:	e9d3 0100 	ldrd	r0, r1, [r3]
    bde4:	e9cd 0108 	strd	r0, r1, [sp, #32]
    bde8:	e016      	b.n	be18 <_svfprintf_r+0x2bc>
    bdea:	f015 0f10 	tst.w	r5, #16
    bdee:	f106 0304 	add.w	r3, r6, #4
    bdf2:	d001      	beq.n	bdf8 <_svfprintf_r+0x29c>
    bdf4:	6832      	ldr	r2, [r6, #0]
    bdf6:	e009      	b.n	be0c <_svfprintf_r+0x2b0>
    bdf8:	f015 0f40 	tst.w	r5, #64	; 0x40
    bdfc:	6832      	ldr	r2, [r6, #0]
    bdfe:	d005      	beq.n	be0c <_svfprintf_r+0x2b0>
    be00:	b212      	sxth	r2, r2
    be02:	4610      	mov	r0, r2
    be04:	17d1      	asrs	r1, r2, #31
    be06:	e9cd 0108 	strd	r0, r1, [sp, #32]
    be0a:	e004      	b.n	be16 <_svfprintf_r+0x2ba>
    be0c:	4692      	mov	sl, r2
    be0e:	ea4f 7be2 	mov.w	fp, r2, asr #31
    be12:	e9cd ab08 	strd	sl, fp, [sp, #32]
    be16:	461e      	mov	r6, r3
    be18:	e9dd 0108 	ldrd	r0, r1, [sp, #32]
    be1c:	2800      	cmp	r0, #0
    be1e:	f171 0100 	sbcs.w	r1, r1, #0
    be22:	f280 828e 	bge.w	c342 <_svfprintf_r+0x7e6>
    be26:	e9dd 2308 	ldrd	r2, r3, [sp, #32]
    be2a:	4252      	negs	r2, r2
    be2c:	eb63 0343 	sbc.w	r3, r3, r3, lsl #1
    be30:	e9cd 2308 	strd	r2, r3, [sp, #32]
    be34:	232d      	movs	r3, #45	; 0x2d
    be36:	f88d 30f7 	strb.w	r3, [sp, #247]	; 0xf7
    be3a:	e282      	b.n	c342 <_svfprintf_r+0x7e6>
    be3c:	930c      	str	r3, [sp, #48]	; 0x30
    be3e:	1df3      	adds	r3, r6, #7
    be40:	f015 0f08 	tst.w	r5, #8
    be44:	f023 0307 	bic.w	r3, r3, #7
    be48:	920d      	str	r2, [sp, #52]	; 0x34
    be4a:	f103 0608 	add.w	r6, r3, #8
    be4e:	bf14      	ite	ne
    be50:	6818      	ldrne	r0, [r3, #0]
    be52:	6819      	ldreq	r1, [r3, #0]
    be54:	f8cd 9038 	str.w	r9, [sp, #56]	; 0x38
    be58:	bf14      	ite	ne
    be5a:	9010      	strne	r0, [sp, #64]	; 0x40
    be5c:	9110      	streq	r1, [sp, #64]	; 0x40
    be5e:	685b      	ldr	r3, [r3, #4]
    be60:	9810      	ldr	r0, [sp, #64]	; 0x40
    be62:	f8cd c018 	str.w	ip, [sp, #24]
    be66:	9311      	str	r3, [sp, #68]	; 0x44
    be68:	9911      	ldr	r1, [sp, #68]	; 0x44
    be6a:	f7fe fc71 	bl	a750 <__fpclassifyd>
    be6e:	f8dd c018 	ldr.w	ip, [sp, #24]
    be72:	2801      	cmp	r0, #1
    be74:	d119      	bne.n	beaa <_svfprintf_r+0x34e>
    be76:	9810      	ldr	r0, [sp, #64]	; 0x40
    be78:	2200      	movs	r2, #0
    be7a:	9911      	ldr	r1, [sp, #68]	; 0x44
    be7c:	2300      	movs	r3, #0
    be7e:	f004 fa97 	bl	103b0 <__aeabi_dcmplt>
    be82:	b110      	cbz	r0, be8a <_svfprintf_r+0x32e>
    be84:	232d      	movs	r3, #45	; 0x2d
    be86:	f88d 30f7 	strb.w	r3, [sp, #247]	; 0xf7
    be8a:	4ba9      	ldr	r3, [pc, #676]	; (c130 <_svfprintf_r+0x5d4>)
    be8c:	f04f 0c00 	mov.w	ip, #0
    be90:	4aa8      	ldr	r2, [pc, #672]	; (c134 <_svfprintf_r+0x5d8>)
    be92:	f025 0580 	bic.w	r5, r5, #128	; 0x80
    be96:	f04f 0b03 	mov.w	fp, #3
    be9a:	f8cd c020 	str.w	ip, [sp, #32]
    be9e:	f1b9 0f47 	cmp.w	r9, #71	; 0x47
    bea2:	bfcc      	ite	gt
    bea4:	4692      	movgt	sl, r2
    bea6:	469a      	movle	sl, r3
    bea8:	e2fd      	b.n	c4a6 <_svfprintf_r+0x94a>
    beaa:	9810      	ldr	r0, [sp, #64]	; 0x40
    beac:	9911      	ldr	r1, [sp, #68]	; 0x44
    beae:	f8cd c018 	str.w	ip, [sp, #24]
    beb2:	f7fe fc4d 	bl	a750 <__fpclassifyd>
    beb6:	f8dd c018 	ldr.w	ip, [sp, #24]
    beba:	b958      	cbnz	r0, bed4 <_svfprintf_r+0x378>
    bebc:	4b9e      	ldr	r3, [pc, #632]	; (c138 <_svfprintf_r+0x5dc>)
    bebe:	f025 0580 	bic.w	r5, r5, #128	; 0x80
    bec2:	4a9e      	ldr	r2, [pc, #632]	; (c13c <_svfprintf_r+0x5e0>)
    bec4:	f04f 0b03 	mov.w	fp, #3
    bec8:	f1b9 0f47 	cmp.w	r9, #71	; 0x47
    becc:	bfcc      	ite	gt
    bece:	4692      	movgt	sl, r2
    bed0:	469a      	movle	sl, r3
    bed2:	e2dd      	b.n	c490 <_svfprintf_r+0x934>
    bed4:	f1bc 3fff 	cmp.w	ip, #4294967295
    bed8:	d00b      	beq.n	bef2 <_svfprintf_r+0x396>
    beda:	f1b9 0f67 	cmp.w	r9, #103	; 0x67
    bede:	d002      	beq.n	bee6 <_svfprintf_r+0x38a>
    bee0:	f1b9 0f47 	cmp.w	r9, #71	; 0x47
    bee4:	d107      	bne.n	bef6 <_svfprintf_r+0x39a>
    bee6:	f1bc 0f00 	cmp.w	ip, #0
    beea:	bf08      	it	eq
    beec:	f04f 0c01 	moveq.w	ip, #1
    bef0:	e001      	b.n	bef6 <_svfprintf_r+0x39a>
    bef2:	f04f 0c06 	mov.w	ip, #6
    bef6:	9b11      	ldr	r3, [sp, #68]	; 0x44
    bef8:	f445 7580 	orr.w	r5, r5, #256	; 0x100
    befc:	2b00      	cmp	r3, #0
    befe:	da05      	bge.n	bf0c <_svfprintf_r+0x3b0>
    bf00:	f103 4200 	add.w	r2, r3, #2147483648	; 0x80000000
    bf04:	232d      	movs	r3, #45	; 0x2d
    bf06:	920b      	str	r2, [sp, #44]	; 0x2c
    bf08:	9314      	str	r3, [sp, #80]	; 0x50
    bf0a:	e003      	b.n	bf14 <_svfprintf_r+0x3b8>
    bf0c:	9811      	ldr	r0, [sp, #68]	; 0x44
    bf0e:	2100      	movs	r1, #0
    bf10:	9114      	str	r1, [sp, #80]	; 0x50
    bf12:	900b      	str	r0, [sp, #44]	; 0x2c
    bf14:	f1b9 0f66 	cmp.w	r9, #102	; 0x66
    bf18:	d00b      	beq.n	bf32 <_svfprintf_r+0x3d6>
    bf1a:	f1b9 0f46 	cmp.w	r9, #70	; 0x46
    bf1e:	d008      	beq.n	bf32 <_svfprintf_r+0x3d6>
    bf20:	f1b9 0f65 	cmp.w	r9, #101	; 0x65
    bf24:	d002      	beq.n	bf2c <_svfprintf_r+0x3d0>
    bf26:	f1b9 0f45 	cmp.w	r9, #69	; 0x45
    bf2a:	d105      	bne.n	bf38 <_svfprintf_r+0x3dc>
    bf2c:	f10c 0b01 	add.w	fp, ip, #1
    bf30:	e003      	b.n	bf3a <_svfprintf_r+0x3de>
    bf32:	46e3      	mov	fp, ip
    bf34:	2303      	movs	r3, #3
    bf36:	e001      	b.n	bf3c <_svfprintf_r+0x3e0>
    bf38:	46e3      	mov	fp, ip
    bf3a:	2302      	movs	r3, #2
    bf3c:	9300      	str	r3, [sp, #0]
    bf3e:	4640      	mov	r0, r8
    bf40:	ab3c      	add	r3, sp, #240	; 0xf0
    bf42:	9a10      	ldr	r2, [sp, #64]	; 0x40
    bf44:	9302      	str	r3, [sp, #8]
    bf46:	ab3b      	add	r3, sp, #236	; 0xec
    bf48:	9303      	str	r3, [sp, #12]
    bf4a:	ab3a      	add	r3, sp, #232	; 0xe8
    bf4c:	9304      	str	r3, [sp, #16]
    bf4e:	9b0b      	ldr	r3, [sp, #44]	; 0x2c
    bf50:	f8cd c018 	str.w	ip, [sp, #24]
    bf54:	f8cd b004 	str.w	fp, [sp, #4]
    bf58:	f7fc fa82 	bl	8460 <_dtoa_r>
    bf5c:	f1b9 0f67 	cmp.w	r9, #103	; 0x67
    bf60:	f8dd c018 	ldr.w	ip, [sp, #24]
    bf64:	4682      	mov	sl, r0
    bf66:	d002      	beq.n	bf6e <_svfprintf_r+0x412>
    bf68:	f1b9 0f47 	cmp.w	r9, #71	; 0x47
    bf6c:	d102      	bne.n	bf74 <_svfprintf_r+0x418>
    bf6e:	f015 0f01 	tst.w	r5, #1
    bf72:	d034      	beq.n	bfde <_svfprintf_r+0x482>
    bf74:	f1b9 0f66 	cmp.w	r9, #102	; 0x66
    bf78:	eb0a 020b 	add.w	r2, sl, fp
    bf7c:	9208      	str	r2, [sp, #32]
    bf7e:	d002      	beq.n	bf86 <_svfprintf_r+0x42a>
    bf80:	f1b9 0f46 	cmp.w	r9, #70	; 0x46
    bf84:	d115      	bne.n	bfb2 <_svfprintf_r+0x456>
    bf86:	f89a 3000 	ldrb.w	r3, [sl]
    bf8a:	2b30      	cmp	r3, #48	; 0x30
    bf8c:	d10d      	bne.n	bfaa <_svfprintf_r+0x44e>
    bf8e:	9810      	ldr	r0, [sp, #64]	; 0x40
    bf90:	2200      	movs	r2, #0
    bf92:	990b      	ldr	r1, [sp, #44]	; 0x2c
    bf94:	2300      	movs	r3, #0
    bf96:	f8cd c018 	str.w	ip, [sp, #24]
    bf9a:	f004 f9ff 	bl	1039c <__aeabi_dcmpeq>
    bf9e:	f8dd c018 	ldr.w	ip, [sp, #24]
    bfa2:	b910      	cbnz	r0, bfaa <_svfprintf_r+0x44e>
    bfa4:	f1cb 0301 	rsb	r3, fp, #1
    bfa8:	933c      	str	r3, [sp, #240]	; 0xf0
    bfaa:	9808      	ldr	r0, [sp, #32]
    bfac:	9b3c      	ldr	r3, [sp, #240]	; 0xf0
    bfae:	18c0      	adds	r0, r0, r3
    bfb0:	9008      	str	r0, [sp, #32]
    bfb2:	9810      	ldr	r0, [sp, #64]	; 0x40
    bfb4:	2200      	movs	r2, #0
    bfb6:	990b      	ldr	r1, [sp, #44]	; 0x2c
    bfb8:	2300      	movs	r3, #0
    bfba:	f8cd c018 	str.w	ip, [sp, #24]
    bfbe:	f004 f9ed 	bl	1039c <__aeabi_dcmpeq>
    bfc2:	f8dd c018 	ldr.w	ip, [sp, #24]
    bfc6:	b130      	cbz	r0, bfd6 <_svfprintf_r+0x47a>
    bfc8:	9908      	ldr	r1, [sp, #32]
    bfca:	913a      	str	r1, [sp, #232]	; 0xe8
    bfcc:	e003      	b.n	bfd6 <_svfprintf_r+0x47a>
    bfce:	2230      	movs	r2, #48	; 0x30
    bfd0:	f803 2b01 	strb.w	r2, [r3], #1
    bfd4:	933a      	str	r3, [sp, #232]	; 0xe8
    bfd6:	9b3a      	ldr	r3, [sp, #232]	; 0xe8
    bfd8:	9a08      	ldr	r2, [sp, #32]
    bfda:	4293      	cmp	r3, r2
    bfdc:	d3f7      	bcc.n	bfce <_svfprintf_r+0x472>
    bfde:	9b3a      	ldr	r3, [sp, #232]	; 0xe8
    bfe0:	f1b9 0f67 	cmp.w	r9, #103	; 0x67
    bfe4:	ebca 0303 	rsb	r3, sl, r3
    bfe8:	930b      	str	r3, [sp, #44]	; 0x2c
    bfea:	9b3c      	ldr	r3, [sp, #240]	; 0xf0
    bfec:	d002      	beq.n	bff4 <_svfprintf_r+0x498>
    bfee:	f1b9 0f47 	cmp.w	r9, #71	; 0x47
    bff2:	d108      	bne.n	c006 <_svfprintf_r+0x4aa>
    bff4:	f113 0f03 	cmn.w	r3, #3
    bff8:	469b      	mov	fp, r3
    bffa:	db01      	blt.n	c000 <_svfprintf_r+0x4a4>
    bffc:	4563      	cmp	r3, ip
    bffe:	dd75      	ble.n	c0ec <_svfprintf_r+0x590>
    c000:	f1a9 0902 	sub.w	r9, r9, #2
    c004:	e002      	b.n	c00c <_svfprintf_r+0x4b0>
    c006:	f1b9 0f66 	cmp.w	r9, #102	; 0x66
    c00a:	d059      	beq.n	c0c0 <_svfprintf_r+0x564>
    c00c:	f103 3bff 	add.w	fp, r3, #4294967295
    c010:	f88d 90e0 	strb.w	r9, [sp, #224]	; 0xe0
    c014:	f1bb 0f00 	cmp.w	fp, #0
    c018:	f8cd b0f0 	str.w	fp, [sp, #240]	; 0xf0
    c01c:	da03      	bge.n	c026 <_svfprintf_r+0x4ca>
    c01e:	f1cb 0b00 	rsb	fp, fp, #0
    c022:	232d      	movs	r3, #45	; 0x2d
    c024:	e000      	b.n	c028 <_svfprintf_r+0x4cc>
    c026:	232b      	movs	r3, #43	; 0x2b
    c028:	f1bb 0f09 	cmp.w	fp, #9
    c02c:	f88d 30e1 	strb.w	r3, [sp, #225]	; 0xe1
    c030:	dd2f      	ble.n	c092 <_svfprintf_r+0x536>
    c032:	f10d 03de 	add.w	r3, sp, #222	; 0xde
    c036:	4652      	mov	r2, sl
    c038:	46cc      	mov	ip, r9
    c03a:	46a2      	mov	sl, r4
    c03c:	461c      	mov	r4, r3
    c03e:	4658      	mov	r0, fp
    c040:	210a      	movs	r1, #10
    c042:	9207      	str	r2, [sp, #28]
    c044:	46a1      	mov	r9, r4
    c046:	f8cd c018 	str.w	ip, [sp, #24]
    c04a:	f003 fd77 	bl	fb3c <__aeabi_idivmod>
    c04e:	4658      	mov	r0, fp
    c050:	3130      	adds	r1, #48	; 0x30
    c052:	f804 1901 	strb.w	r1, [r4], #-1
    c056:	210a      	movs	r1, #10
    c058:	f003 fc26 	bl	f8a8 <__aeabi_idiv>
    c05c:	9a07      	ldr	r2, [sp, #28]
    c05e:	f8dd c018 	ldr.w	ip, [sp, #24]
    c062:	2809      	cmp	r0, #9
    c064:	4683      	mov	fp, r0
    c066:	dcea      	bgt.n	c03e <_svfprintf_r+0x4e2>
    c068:	4654      	mov	r4, sl
    c06a:	4692      	mov	sl, r2
    c06c:	464a      	mov	r2, r9
    c06e:	f100 0b30 	add.w	fp, r0, #48	; 0x30
    c072:	46e1      	mov	r9, ip
    c074:	f10d 03e2 	add.w	r3, sp, #226	; 0xe2
    c078:	f802 bc01 	strb.w	fp, [r2, #-1]
    c07c:	3a01      	subs	r2, #1
    c07e:	e003      	b.n	c088 <_svfprintf_r+0x52c>
    c080:	f812 1b01 	ldrb.w	r1, [r2], #1
    c084:	f803 1b01 	strb.w	r1, [r3], #1
    c088:	f10d 01df 	add.w	r1, sp, #223	; 0xdf
    c08c:	428a      	cmp	r2, r1
    c08e:	d3f7      	bcc.n	c080 <_svfprintf_r+0x524>
    c090:	e006      	b.n	c0a0 <_svfprintf_r+0x544>
    c092:	2330      	movs	r3, #48	; 0x30
    c094:	f88d 30e2 	strb.w	r3, [sp, #226]	; 0xe2
    c098:	449b      	add	fp, r3
    c09a:	ab39      	add	r3, sp, #228	; 0xe4
    c09c:	f88d b0e3 	strb.w	fp, [sp, #227]	; 0xe3
    c0a0:	aa38      	add	r2, sp, #224	; 0xe0
    c0a2:	1a9a      	subs	r2, r3, r2
    c0a4:	9b0b      	ldr	r3, [sp, #44]	; 0x2c
    c0a6:	9215      	str	r2, [sp, #84]	; 0x54
    c0a8:	2b01      	cmp	r3, #1
    c0aa:	eb02 0b03 	add.w	fp, r2, r3
    c0ae:	dc02      	bgt.n	c0b6 <_svfprintf_r+0x55a>
    c0b0:	f015 0301 	ands.w	r3, r5, #1
    c0b4:	d044      	beq.n	c140 <_svfprintf_r+0x5e4>
    c0b6:	2000      	movs	r0, #0
    c0b8:	f10b 0b01 	add.w	fp, fp, #1
    c0bc:	9008      	str	r0, [sp, #32]
    c0be:	e040      	b.n	c142 <_svfprintf_r+0x5e6>
    c0c0:	2b00      	cmp	r3, #0
    c0c2:	469b      	mov	fp, r3
    c0c4:	dd09      	ble.n	c0da <_svfprintf_r+0x57e>
    c0c6:	f1bc 0f00 	cmp.w	ip, #0
    c0ca:	d102      	bne.n	c0d2 <_svfprintf_r+0x576>
    c0cc:	f015 0f01 	tst.w	r5, #1
    c0d0:	d028      	beq.n	c124 <_svfprintf_r+0x5c8>
    c0d2:	f103 0b01 	add.w	fp, r3, #1
    c0d6:	44e3      	add	fp, ip
    c0d8:	e024      	b.n	c124 <_svfprintf_r+0x5c8>
    c0da:	f1bc 0f00 	cmp.w	ip, #0
    c0de:	d102      	bne.n	c0e6 <_svfprintf_r+0x58a>
    c0e0:	f015 0f01 	tst.w	r5, #1
    c0e4:	d019      	beq.n	c11a <_svfprintf_r+0x5be>
    c0e6:	f10c 0b02 	add.w	fp, ip, #2
    c0ea:	e01b      	b.n	c124 <_svfprintf_r+0x5c8>
    c0ec:	990b      	ldr	r1, [sp, #44]	; 0x2c
    c0ee:	428b      	cmp	r3, r1
    c0f0:	db07      	blt.n	c102 <_svfprintf_r+0x5a6>
    c0f2:	f015 0f01 	tst.w	r5, #1
    c0f6:	d013      	beq.n	c120 <_svfprintf_r+0x5c4>
    c0f8:	2267      	movs	r2, #103	; 0x67
    c0fa:	f103 0b01 	add.w	fp, r3, #1
    c0fe:	920e      	str	r2, [sp, #56]	; 0x38
    c100:	e010      	b.n	c124 <_svfprintf_r+0x5c8>
    c102:	2b00      	cmp	r3, #0
    c104:	bfd8      	it	le
    c106:	f1c3 0b02 	rsble	fp, r3, #2
    c10a:	9b0b      	ldr	r3, [sp, #44]	; 0x2c
    c10c:	bfc8      	it	gt
    c10e:	f04f 0b01 	movgt.w	fp, #1
    c112:	2067      	movs	r0, #103	; 0x67
    c114:	449b      	add	fp, r3
    c116:	900e      	str	r0, [sp, #56]	; 0x38
    c118:	e004      	b.n	c124 <_svfprintf_r+0x5c8>
    c11a:	f04f 0b01 	mov.w	fp, #1
    c11e:	e001      	b.n	c124 <_svfprintf_r+0x5c8>
    c120:	2167      	movs	r1, #103	; 0x67
    c122:	910e      	str	r1, [sp, #56]	; 0x38
    c124:	9a3c      	ldr	r2, [sp, #240]	; 0xf0
    c126:	f8dd 9038 	ldr.w	r9, [sp, #56]	; 0x38
    c12a:	9208      	str	r2, [sp, #32]
    c12c:	e009      	b.n	c142 <_svfprintf_r+0x5e6>
    c12e:	bf00      	nop
    c130:	0001102c 	.word	0x0001102c
    c134:	00011030 	.word	0x00011030
    c138:	00011034 	.word	0x00011034
    c13c:	00011038 	.word	0x00011038
    c140:	9308      	str	r3, [sp, #32]
    c142:	9b14      	ldr	r3, [sp, #80]	; 0x50
    c144:	2b00      	cmp	r3, #0
    c146:	f000 819f 	beq.w	c488 <_svfprintf_r+0x92c>
    c14a:	232d      	movs	r3, #45	; 0x2d
    c14c:	f04f 0c00 	mov.w	ip, #0
    c150:	f88d 30f7 	strb.w	r3, [sp, #247]	; 0xf7
    c154:	e1a7      	b.n	c4a6 <_svfprintf_r+0x94a>
    c156:	f015 0f20 	tst.w	r5, #32
    c15a:	930c      	str	r3, [sp, #48]	; 0x30
    c15c:	f106 0104 	add.w	r1, r6, #4
    c160:	d006      	beq.n	c170 <_svfprintf_r+0x614>
    c162:	9d0f      	ldr	r5, [sp, #60]	; 0x3c
    c164:	6830      	ldr	r0, [r6, #0]
    c166:	462a      	mov	r2, r5
    c168:	17eb      	asrs	r3, r5, #31
    c16a:	e9c0 2300 	strd	r2, r3, [r0]
    c16e:	e00e      	b.n	c18e <_svfprintf_r+0x632>
    c170:	f015 0f10 	tst.w	r5, #16
    c174:	d003      	beq.n	c17e <_svfprintf_r+0x622>
    c176:	6833      	ldr	r3, [r6, #0]
    c178:	980f      	ldr	r0, [sp, #60]	; 0x3c
    c17a:	6018      	str	r0, [r3, #0]
    c17c:	e007      	b.n	c18e <_svfprintf_r+0x632>
    c17e:	f015 0f40 	tst.w	r5, #64	; 0x40
    c182:	6833      	ldr	r3, [r6, #0]
    c184:	bf15      	itete	ne
    c186:	9a0f      	ldrne	r2, [sp, #60]	; 0x3c
    c188:	9d0f      	ldreq	r5, [sp, #60]	; 0x3c
    c18a:	801a      	strhne	r2, [r3, #0]
    c18c:	601d      	streq	r5, [r3, #0]
    c18e:	460e      	mov	r6, r1
    c190:	e514      	b.n	bbbc <_svfprintf_r+0x60>
    c192:	930c      	str	r3, [sp, #48]	; 0x30
    c194:	f045 0510 	orr.w	r5, r5, #16
    c198:	920d      	str	r2, [sp, #52]	; 0x34
    c19a:	e001      	b.n	c1a0 <_svfprintf_r+0x644>
    c19c:	930c      	str	r3, [sp, #48]	; 0x30
    c19e:	920d      	str	r2, [sp, #52]	; 0x34
    c1a0:	f015 0220 	ands.w	r2, r5, #32
    c1a4:	d00a      	beq.n	c1bc <_svfprintf_r+0x660>
    c1a6:	3607      	adds	r6, #7
    c1a8:	2200      	movs	r2, #0
    c1aa:	f026 0307 	bic.w	r3, r6, #7
    c1ae:	f103 0608 	add.w	r6, r3, #8
    c1b2:	e9d3 ab00 	ldrd	sl, fp, [r3]
    c1b6:	e9cd ab08 	strd	sl, fp, [sp, #32]
    c1ba:	e0be      	b.n	c33a <_svfprintf_r+0x7de>
    c1bc:	f015 0110 	ands.w	r1, r5, #16
    c1c0:	f106 0304 	add.w	r3, r6, #4
    c1c4:	d002      	beq.n	c1cc <_svfprintf_r+0x670>
    c1c6:	6831      	ldr	r1, [r6, #0]
    c1c8:	468a      	mov	sl, r1
    c1ca:	e00d      	b.n	c1e8 <_svfprintf_r+0x68c>
    c1cc:	f015 0240 	ands.w	r2, r5, #64	; 0x40
    c1d0:	6830      	ldr	r0, [r6, #0]
    c1d2:	d008      	beq.n	c1e6 <_svfprintf_r+0x68a>
    c1d4:	b280      	uxth	r0, r0
    c1d6:	f04f 0b00 	mov.w	fp, #0
    c1da:	4682      	mov	sl, r0
    c1dc:	461e      	mov	r6, r3
    c1de:	e9cd ab08 	strd	sl, fp, [sp, #32]
    c1e2:	460a      	mov	r2, r1
    c1e4:	e0a9      	b.n	c33a <_svfprintf_r+0x7de>
    c1e6:	4682      	mov	sl, r0
    c1e8:	f04f 0b00 	mov.w	fp, #0
    c1ec:	461e      	mov	r6, r3
    c1ee:	e9cd ab08 	strd	sl, fp, [sp, #32]
    c1f2:	e0a2      	b.n	c33a <_svfprintf_r+0x7de>
    c1f4:	930c      	str	r3, [sp, #48]	; 0x30
    c1f6:	2100      	movs	r1, #0
    c1f8:	6833      	ldr	r3, [r6, #0]
    c1fa:	f04f 0978 	mov.w	r9, #120	; 0x78
    c1fe:	920d      	str	r2, [sp, #52]	; 0x34
    c200:	f045 0502 	orr.w	r5, r5, #2
    c204:	4618      	mov	r0, r3
    c206:	e9cd 0108 	strd	r0, r1, [sp, #32]
    c20a:	49a3      	ldr	r1, [pc, #652]	; (c498 <_svfprintf_r+0x93c>)
    c20c:	2330      	movs	r3, #48	; 0x30
    c20e:	f88d 90f5 	strb.w	r9, [sp, #245]	; 0xf5
    c212:	3604      	adds	r6, #4
    c214:	f88d 30f4 	strb.w	r3, [sp, #244]	; 0xf4
    c218:	9116      	str	r1, [sp, #88]	; 0x58
    c21a:	e08d      	b.n	c338 <_svfprintf_r+0x7dc>
    c21c:	930c      	str	r3, [sp, #48]	; 0x30
    c21e:	2300      	movs	r3, #0
    c220:	920d      	str	r2, [sp, #52]	; 0x34
    c222:	4632      	mov	r2, r6
    c224:	3604      	adds	r6, #4
    c226:	459c      	cmp	ip, r3
    c228:	f88d 30f7 	strb.w	r3, [sp, #247]	; 0xf7
    c22c:	f8d2 a000 	ldr.w	sl, [r2]
    c230:	db13      	blt.n	c25a <_svfprintf_r+0x6fe>
    c232:	4619      	mov	r1, r3
    c234:	4662      	mov	r2, ip
    c236:	4650      	mov	r0, sl
    c238:	9307      	str	r3, [sp, #28]
    c23a:	f8cd c018 	str.w	ip, [sp, #24]
    c23e:	f7fd fdb3 	bl	9da8 <memchr>
    c242:	9b07      	ldr	r3, [sp, #28]
    c244:	f8dd c018 	ldr.w	ip, [sp, #24]
    c248:	2800      	cmp	r0, #0
    c24a:	f000 8120 	beq.w	c48e <_svfprintf_r+0x932>
    c24e:	ebca 0b00 	rsb	fp, sl, r0
    c252:	45e3      	cmp	fp, ip
    c254:	f300 8124 	bgt.w	c4a0 <_svfprintf_r+0x944>
    c258:	e123      	b.n	c4a2 <_svfprintf_r+0x946>
    c25a:	4650      	mov	r0, sl
    c25c:	9307      	str	r3, [sp, #28]
    c25e:	f7fe fb87 	bl	a970 <strlen>
    c262:	9b07      	ldr	r3, [sp, #28]
    c264:	4683      	mov	fp, r0
    c266:	e11c      	b.n	c4a2 <_svfprintf_r+0x946>
    c268:	930c      	str	r3, [sp, #48]	; 0x30
    c26a:	f045 0510 	orr.w	r5, r5, #16
    c26e:	920d      	str	r2, [sp, #52]	; 0x34
    c270:	e001      	b.n	c276 <_svfprintf_r+0x71a>
    c272:	930c      	str	r3, [sp, #48]	; 0x30
    c274:	920d      	str	r2, [sp, #52]	; 0x34
    c276:	f015 0f20 	tst.w	r5, #32
    c27a:	d009      	beq.n	c290 <_svfprintf_r+0x734>
    c27c:	3607      	adds	r6, #7
    c27e:	f026 0307 	bic.w	r3, r6, #7
    c282:	f103 0608 	add.w	r6, r3, #8
    c286:	e9d3 ab00 	ldrd	sl, fp, [r3]
    c28a:	e9cd ab08 	strd	sl, fp, [sp, #32]
    c28e:	e016      	b.n	c2be <_svfprintf_r+0x762>
    c290:	f015 0f10 	tst.w	r5, #16
    c294:	f106 0304 	add.w	r3, r6, #4
    c298:	d001      	beq.n	c29e <_svfprintf_r+0x742>
    c29a:	6832      	ldr	r2, [r6, #0]
    c29c:	e00a      	b.n	c2b4 <_svfprintf_r+0x758>
    c29e:	f015 0f40 	tst.w	r5, #64	; 0x40
    c2a2:	6832      	ldr	r2, [r6, #0]
    c2a4:	d006      	beq.n	c2b4 <_svfprintf_r+0x758>
    c2a6:	b292      	uxth	r2, r2
    c2a8:	f04f 0b00 	mov.w	fp, #0
    c2ac:	4692      	mov	sl, r2
    c2ae:	e9cd ab08 	strd	sl, fp, [sp, #32]
    c2b2:	e003      	b.n	c2bc <_svfprintf_r+0x760>
    c2b4:	4610      	mov	r0, r2
    c2b6:	2100      	movs	r1, #0
    c2b8:	e9cd 0108 	strd	r0, r1, [sp, #32]
    c2bc:	461e      	mov	r6, r3
    c2be:	2201      	movs	r2, #1
    c2c0:	e03b      	b.n	c33a <_svfprintf_r+0x7de>
    c2c2:	4975      	ldr	r1, [pc, #468]	; (c498 <_svfprintf_r+0x93c>)
    c2c4:	930c      	str	r3, [sp, #48]	; 0x30
    c2c6:	920d      	str	r2, [sp, #52]	; 0x34
    c2c8:	9116      	str	r1, [sp, #88]	; 0x58
    c2ca:	e003      	b.n	c2d4 <_svfprintf_r+0x778>
    c2cc:	920d      	str	r2, [sp, #52]	; 0x34
    c2ce:	4a73      	ldr	r2, [pc, #460]	; (c49c <_svfprintf_r+0x940>)
    c2d0:	930c      	str	r3, [sp, #48]	; 0x30
    c2d2:	9216      	str	r2, [sp, #88]	; 0x58
    c2d4:	f015 0f20 	tst.w	r5, #32
    c2d8:	d009      	beq.n	c2ee <_svfprintf_r+0x792>
    c2da:	3607      	adds	r6, #7
    c2dc:	f026 0307 	bic.w	r3, r6, #7
    c2e0:	f103 0608 	add.w	r6, r3, #8
    c2e4:	e9d3 ab00 	ldrd	sl, fp, [r3]
    c2e8:	e9cd ab08 	strd	sl, fp, [sp, #32]
    c2ec:	e016      	b.n	c31c <_svfprintf_r+0x7c0>
    c2ee:	f015 0f10 	tst.w	r5, #16
    c2f2:	f106 0304 	add.w	r3, r6, #4
    c2f6:	d001      	beq.n	c2fc <_svfprintf_r+0x7a0>
    c2f8:	6832      	ldr	r2, [r6, #0]
    c2fa:	e00a      	b.n	c312 <_svfprintf_r+0x7b6>
    c2fc:	f015 0f40 	tst.w	r5, #64	; 0x40
    c300:	6832      	ldr	r2, [r6, #0]
    c302:	d006      	beq.n	c312 <_svfprintf_r+0x7b6>
    c304:	b292      	uxth	r2, r2
    c306:	f04f 0b00 	mov.w	fp, #0
    c30a:	4692      	mov	sl, r2
    c30c:	e9cd ab08 	strd	sl, fp, [sp, #32]
    c310:	e003      	b.n	c31a <_svfprintf_r+0x7be>
    c312:	4610      	mov	r0, r2
    c314:	2100      	movs	r1, #0
    c316:	e9cd 0108 	strd	r0, r1, [sp, #32]
    c31a:	461e      	mov	r6, r3
    c31c:	f015 0f01 	tst.w	r5, #1
    c320:	d00a      	beq.n	c338 <_svfprintf_r+0x7dc>
    c322:	e9dd 2308 	ldrd	r2, r3, [sp, #32]
    c326:	4313      	orrs	r3, r2
    c328:	d006      	beq.n	c338 <_svfprintf_r+0x7dc>
    c32a:	f045 0502 	orr.w	r5, r5, #2
    c32e:	2330      	movs	r3, #48	; 0x30
    c330:	f88d 90f5 	strb.w	r9, [sp, #245]	; 0xf5
    c334:	f88d 30f4 	strb.w	r3, [sp, #244]	; 0xf4
    c338:	2202      	movs	r2, #2
    c33a:	2300      	movs	r3, #0
    c33c:	f88d 30f7 	strb.w	r3, [sp, #247]	; 0xf7
    c340:	e000      	b.n	c344 <_svfprintf_r+0x7e8>
    c342:	2201      	movs	r2, #1
    c344:	e9dd ab08 	ldrd	sl, fp, [sp, #32]
    c348:	f1bc 0f00 	cmp.w	ip, #0
    c34c:	bfa8      	it	ge
    c34e:	f025 0580 	bicge.w	r5, r5, #128	; 0x80
    c352:	ea5a 0b0b 	orrs.w	fp, sl, fp
    c356:	d102      	bne.n	c35e <_svfprintf_r+0x802>
    c358:	f1bc 0f00 	cmp.w	ip, #0
    c35c:	d06e      	beq.n	c43c <_svfprintf_r+0x8e0>
    c35e:	2a01      	cmp	r2, #1
    c360:	d023      	beq.n	c3aa <_svfprintf_r+0x84e>
    c362:	2a02      	cmp	r2, #2
    c364:	d051      	beq.n	c40a <_svfprintf_r+0x8ae>
    c366:	f10d 03cb 	add.w	r3, sp, #203	; 0xcb
    c36a:	9808      	ldr	r0, [sp, #32]
    c36c:	469a      	mov	sl, r3
    c36e:	f000 0207 	and.w	r2, r0, #7
    c372:	3230      	adds	r2, #48	; 0x30
    c374:	701a      	strb	r2, [r3, #0]
    c376:	9908      	ldr	r1, [sp, #32]
    c378:	3b01      	subs	r3, #1
    c37a:	f8dd b024 	ldr.w	fp, [sp, #36]	; 0x24
    c37e:	08c8      	lsrs	r0, r1, #3
    c380:	ea40 714b 	orr.w	r1, r0, fp, lsl #29
    c384:	ea4f 0bdb 	mov.w	fp, fp, lsr #3
    c388:	9108      	str	r1, [sp, #32]
    c38a:	f8cd b024 	str.w	fp, [sp, #36]	; 0x24
    c38e:	e9dd 0108 	ldrd	r0, r1, [sp, #32]
    c392:	4301      	orrs	r1, r0
    c394:	d1e9      	bne.n	c36a <_svfprintf_r+0x80e>
    c396:	f015 0f01 	tst.w	r5, #1
    c39a:	d05b      	beq.n	c454 <_svfprintf_r+0x8f8>
    c39c:	2a30      	cmp	r2, #48	; 0x30
    c39e:	d059      	beq.n	c454 <_svfprintf_r+0x8f8>
    c3a0:	469a      	mov	sl, r3
    c3a2:	2330      	movs	r3, #48	; 0x30
    c3a4:	f88a 3000 	strb.w	r3, [sl]
    c3a8:	e054      	b.n	c454 <_svfprintf_r+0x8f8>
    c3aa:	e9dd 2308 	ldrd	r2, r3, [sp, #32]
    c3ae:	2a0a      	cmp	r2, #10
    c3b0:	f173 0300 	sbcs.w	r3, r3, #0
    c3b4:	d208      	bcs.n	c3c8 <_svfprintf_r+0x86c>
    c3b6:	f8dd a020 	ldr.w	sl, [sp, #32]
    c3ba:	f10a 0330 	add.w	r3, sl, #48	; 0x30
    c3be:	f10d 0acb 	add.w	sl, sp, #203	; 0xcb
    c3c2:	f88d 30cb 	strb.w	r3, [sp, #203]	; 0xcb
    c3c6:	e045      	b.n	c454 <_svfprintf_r+0x8f8>
    c3c8:	f10d 0bcb 	add.w	fp, sp, #203	; 0xcb
    c3cc:	4623      	mov	r3, r4
    c3ce:	465c      	mov	r4, fp
    c3d0:	46cb      	mov	fp, r9
    c3d2:	4699      	mov	r9, r3
    c3d4:	e9dd 0108 	ldrd	r0, r1, [sp, #32]
    c3d8:	220a      	movs	r2, #10
    c3da:	2300      	movs	r3, #0
    c3dc:	f8cd c018 	str.w	ip, [sp, #24]
    c3e0:	f004 fa92 	bl	10908 <__aeabi_uldivmod>
    c3e4:	46a2      	mov	sl, r4
    c3e6:	2300      	movs	r3, #0
    c3e8:	3230      	adds	r2, #48	; 0x30
    c3ea:	f804 2901 	strb.w	r2, [r4], #-1
    c3ee:	e9dd 0108 	ldrd	r0, r1, [sp, #32]
    c3f2:	220a      	movs	r2, #10
    c3f4:	f004 fa88 	bl	10908 <__aeabi_uldivmod>
    c3f8:	f8dd c018 	ldr.w	ip, [sp, #24]
    c3fc:	e9cd 0108 	strd	r0, r1, [sp, #32]
    c400:	4308      	orrs	r0, r1
    c402:	d1e7      	bne.n	c3d4 <_svfprintf_r+0x878>
    c404:	464c      	mov	r4, r9
    c406:	46d9      	mov	r9, fp
    c408:	e024      	b.n	c454 <_svfprintf_r+0x8f8>
    c40a:	f10d 03cb 	add.w	r3, sp, #203	; 0xcb
    c40e:	9908      	ldr	r1, [sp, #32]
    c410:	469a      	mov	sl, r3
    c412:	f8dd b058 	ldr.w	fp, [sp, #88]	; 0x58
    c416:	f001 020f 	and.w	r2, r1, #15
    c41a:	f81b 2002 	ldrb.w	r2, [fp, r2]
    c41e:	f803 2901 	strb.w	r2, [r3], #-1
    c422:	9908      	ldr	r1, [sp, #32]
    c424:	9a09      	ldr	r2, [sp, #36]	; 0x24
    c426:	0908      	lsrs	r0, r1, #4
    c428:	ea40 7102 	orr.w	r1, r0, r2, lsl #28
    c42c:	0912      	lsrs	r2, r2, #4
    c42e:	9108      	str	r1, [sp, #32]
    c430:	9209      	str	r2, [sp, #36]	; 0x24
    c432:	e9dd 0108 	ldrd	r0, r1, [sp, #32]
    c436:	4301      	orrs	r1, r0
    c438:	d1e9      	bne.n	c40e <_svfprintf_r+0x8b2>
    c43a:	e00b      	b.n	c454 <_svfprintf_r+0x8f8>
    c43c:	b942      	cbnz	r2, c450 <_svfprintf_r+0x8f4>
    c43e:	f015 0f01 	tst.w	r5, #1
    c442:	d005      	beq.n	c450 <_svfprintf_r+0x8f4>
    c444:	f10d 0af8 	add.w	sl, sp, #248	; 0xf8
    c448:	2330      	movs	r3, #48	; 0x30
    c44a:	f80a 3d2d 	strb.w	r3, [sl, #-45]!
    c44e:	e001      	b.n	c454 <_svfprintf_r+0x8f8>
    c450:	f10d 0acc 	add.w	sl, sp, #204	; 0xcc
    c454:	f10d 0bcc 	add.w	fp, sp, #204	; 0xcc
    c458:	2200      	movs	r2, #0
    c45a:	ebca 0b0b 	rsb	fp, sl, fp
    c45e:	9208      	str	r2, [sp, #32]
    c460:	e021      	b.n	c4a6 <_svfprintf_r+0x94a>
    c462:	930c      	str	r3, [sp, #48]	; 0x30
    c464:	920d      	str	r2, [sp, #52]	; 0x34
    c466:	f1b9 0f00 	cmp.w	r9, #0
    c46a:	f000 83df 	beq.w	cc2c <_svfprintf_r+0x10d0>
    c46e:	f04f 0c00 	mov.w	ip, #0
    c472:	f88d 90a4 	strb.w	r9, [sp, #164]	; 0xa4
    c476:	f88d c0f7 	strb.w	ip, [sp, #247]	; 0xf7
    c47a:	f04f 0b01 	mov.w	fp, #1
    c47e:	f8cd c020 	str.w	ip, [sp, #32]
    c482:	f10d 0aa4 	add.w	sl, sp, #164	; 0xa4
    c486:	e00e      	b.n	c4a6 <_svfprintf_r+0x94a>
    c488:	f8dd c050 	ldr.w	ip, [sp, #80]	; 0x50
    c48c:	e00b      	b.n	c4a6 <_svfprintf_r+0x94a>
    c48e:	46e3      	mov	fp, ip
    c490:	4684      	mov	ip, r0
    c492:	9008      	str	r0, [sp, #32]
    c494:	e007      	b.n	c4a6 <_svfprintf_r+0x94a>
    c496:	bf00      	nop
    c498:	0001104d 	.word	0x0001104d
    c49c:	0001103c 	.word	0x0001103c
    c4a0:	46e3      	mov	fp, ip
    c4a2:	469c      	mov	ip, r3
    c4a4:	9308      	str	r3, [sp, #32]
    c4a6:	45e3      	cmp	fp, ip
    c4a8:	bfac      	ite	ge
    c4aa:	465b      	movge	r3, fp
    c4ac:	4663      	movlt	r3, ip
    c4ae:	930e      	str	r3, [sp, #56]	; 0x38
    c4b0:	f89d 30f7 	ldrb.w	r3, [sp, #247]	; 0xf7
    c4b4:	b113      	cbz	r3, c4bc <_svfprintf_r+0x960>
    c4b6:	980e      	ldr	r0, [sp, #56]	; 0x38
    c4b8:	3001      	adds	r0, #1
    c4ba:	900e      	str	r0, [sp, #56]	; 0x38
    c4bc:	f015 0102 	ands.w	r1, r5, #2
    c4c0:	9114      	str	r1, [sp, #80]	; 0x50
    c4c2:	d002      	beq.n	c4ca <_svfprintf_r+0x96e>
    c4c4:	9a0e      	ldr	r2, [sp, #56]	; 0x38
    c4c6:	3202      	adds	r2, #2
    c4c8:	920e      	str	r2, [sp, #56]	; 0x38
    c4ca:	f015 0384 	ands.w	r3, r5, #132	; 0x84
    c4ce:	9317      	str	r3, [sp, #92]	; 0x5c
    c4d0:	d146      	bne.n	c560 <_svfprintf_r+0xa04>
    c4d2:	980d      	ldr	r0, [sp, #52]	; 0x34
    c4d4:	990e      	ldr	r1, [sp, #56]	; 0x38
    c4d6:	1a43      	subs	r3, r0, r1
    c4d8:	2b00      	cmp	r3, #0
    c4da:	dc1b      	bgt.n	c514 <_svfprintf_r+0x9b8>
    c4dc:	e040      	b.n	c560 <_svfprintf_r+0xa04>
    c4de:	601a      	str	r2, [r3, #0]
    c4e0:	2210      	movs	r2, #16
    c4e2:	1889      	adds	r1, r1, r2
    c4e4:	605a      	str	r2, [r3, #4]
    c4e6:	9a34      	ldr	r2, [sp, #208]	; 0xd0
    c4e8:	9135      	str	r1, [sp, #212]	; 0xd4
    c4ea:	3201      	adds	r2, #1
    c4ec:	9234      	str	r2, [sp, #208]	; 0xd0
    c4ee:	2a07      	cmp	r2, #7
    c4f0:	dc01      	bgt.n	c4f6 <_svfprintf_r+0x99a>
    c4f2:	3308      	adds	r3, #8
    c4f4:	e00c      	b.n	c510 <_svfprintf_r+0x9b4>
    c4f6:	4640      	mov	r0, r8
    c4f8:	4639      	mov	r1, r7
    c4fa:	aa33      	add	r2, sp, #204	; 0xcc
    c4fc:	f8cd c018 	str.w	ip, [sp, #24]
    c500:	f002 f977 	bl	e7f2 <__ssprint_r>
    c504:	f8dd c018 	ldr.w	ip, [sp, #24]
    c508:	2800      	cmp	r0, #0
    c50a:	f040 8396 	bne.w	cc3a <_svfprintf_r+0x10de>
    c50e:	ab19      	add	r3, sp, #100	; 0x64
    c510:	3d10      	subs	r5, #16
    c512:	e004      	b.n	c51e <_svfprintf_r+0x9c2>
    c514:	462a      	mov	r2, r5
    c516:	461d      	mov	r5, r3
    c518:	4623      	mov	r3, r4
    c51a:	464c      	mov	r4, r9
    c51c:	4691      	mov	r9, r2
    c51e:	2d10      	cmp	r5, #16
    c520:	9935      	ldr	r1, [sp, #212]	; 0xd4
    c522:	4a93      	ldr	r2, [pc, #588]	; (c770 <_svfprintf_r+0xc14>)
    c524:	dcdb      	bgt.n	c4de <_svfprintf_r+0x982>
    c526:	4648      	mov	r0, r9
    c528:	46a1      	mov	r9, r4
    c52a:	461c      	mov	r4, r3
    c52c:	462b      	mov	r3, r5
    c52e:	4605      	mov	r5, r0
    c530:	6063      	str	r3, [r4, #4]
    c532:	18cb      	adds	r3, r1, r3
    c534:	6022      	str	r2, [r4, #0]
    c536:	9335      	str	r3, [sp, #212]	; 0xd4
    c538:	9b34      	ldr	r3, [sp, #208]	; 0xd0
    c53a:	3301      	adds	r3, #1
    c53c:	9334      	str	r3, [sp, #208]	; 0xd0
    c53e:	2b07      	cmp	r3, #7
    c540:	dc01      	bgt.n	c546 <_svfprintf_r+0x9ea>
    c542:	3408      	adds	r4, #8
    c544:	e00c      	b.n	c560 <_svfprintf_r+0xa04>
    c546:	4640      	mov	r0, r8
    c548:	4639      	mov	r1, r7
    c54a:	aa33      	add	r2, sp, #204	; 0xcc
    c54c:	f8cd c018 	str.w	ip, [sp, #24]
    c550:	f002 f94f 	bl	e7f2 <__ssprint_r>
    c554:	f8dd c018 	ldr.w	ip, [sp, #24]
    c558:	2800      	cmp	r0, #0
    c55a:	f040 836e 	bne.w	cc3a <_svfprintf_r+0x10de>
    c55e:	ac19      	add	r4, sp, #100	; 0x64
    c560:	f89d 30f7 	ldrb.w	r3, [sp, #247]	; 0xf7
    c564:	b1db      	cbz	r3, c59e <_svfprintf_r+0xa42>
    c566:	f10d 03f7 	add.w	r3, sp, #247	; 0xf7
    c56a:	6023      	str	r3, [r4, #0]
    c56c:	2301      	movs	r3, #1
    c56e:	6063      	str	r3, [r4, #4]
    c570:	9b35      	ldr	r3, [sp, #212]	; 0xd4
    c572:	3301      	adds	r3, #1
    c574:	9335      	str	r3, [sp, #212]	; 0xd4
    c576:	9b34      	ldr	r3, [sp, #208]	; 0xd0
    c578:	3301      	adds	r3, #1
    c57a:	9334      	str	r3, [sp, #208]	; 0xd0
    c57c:	2b07      	cmp	r3, #7
    c57e:	dc01      	bgt.n	c584 <_svfprintf_r+0xa28>
    c580:	3408      	adds	r4, #8
    c582:	e00c      	b.n	c59e <_svfprintf_r+0xa42>
    c584:	4640      	mov	r0, r8
    c586:	4639      	mov	r1, r7
    c588:	aa33      	add	r2, sp, #204	; 0xcc
    c58a:	f8cd c018 	str.w	ip, [sp, #24]
    c58e:	f002 f930 	bl	e7f2 <__ssprint_r>
    c592:	f8dd c018 	ldr.w	ip, [sp, #24]
    c596:	2800      	cmp	r0, #0
    c598:	f040 834f 	bne.w	cc3a <_svfprintf_r+0x10de>
    c59c:	ac19      	add	r4, sp, #100	; 0x64
    c59e:	9a14      	ldr	r2, [sp, #80]	; 0x50
    c5a0:	b1d2      	cbz	r2, c5d8 <_svfprintf_r+0xa7c>
    c5a2:	ab3d      	add	r3, sp, #244	; 0xf4
    c5a4:	6023      	str	r3, [r4, #0]
    c5a6:	2302      	movs	r3, #2
    c5a8:	6063      	str	r3, [r4, #4]
    c5aa:	9b35      	ldr	r3, [sp, #212]	; 0xd4
    c5ac:	3302      	adds	r3, #2
    c5ae:	9335      	str	r3, [sp, #212]	; 0xd4
    c5b0:	9b34      	ldr	r3, [sp, #208]	; 0xd0
    c5b2:	3301      	adds	r3, #1
    c5b4:	9334      	str	r3, [sp, #208]	; 0xd0
    c5b6:	2b07      	cmp	r3, #7
    c5b8:	dc01      	bgt.n	c5be <_svfprintf_r+0xa62>
    c5ba:	3408      	adds	r4, #8
    c5bc:	e00c      	b.n	c5d8 <_svfprintf_r+0xa7c>
    c5be:	4640      	mov	r0, r8
    c5c0:	4639      	mov	r1, r7
    c5c2:	aa33      	add	r2, sp, #204	; 0xcc
    c5c4:	f8cd c018 	str.w	ip, [sp, #24]
    c5c8:	f002 f913 	bl	e7f2 <__ssprint_r>
    c5cc:	f8dd c018 	ldr.w	ip, [sp, #24]
    c5d0:	2800      	cmp	r0, #0
    c5d2:	f040 8332 	bne.w	cc3a <_svfprintf_r+0x10de>
    c5d6:	ac19      	add	r4, sp, #100	; 0x64
    c5d8:	9b17      	ldr	r3, [sp, #92]	; 0x5c
    c5da:	2b80      	cmp	r3, #128	; 0x80
    c5dc:	d146      	bne.n	c66c <_svfprintf_r+0xb10>
    c5de:	980d      	ldr	r0, [sp, #52]	; 0x34
    c5e0:	990e      	ldr	r1, [sp, #56]	; 0x38
    c5e2:	1a43      	subs	r3, r0, r1
    c5e4:	2b00      	cmp	r3, #0
    c5e6:	dc1b      	bgt.n	c620 <_svfprintf_r+0xac4>
    c5e8:	e040      	b.n	c66c <_svfprintf_r+0xb10>
    c5ea:	601a      	str	r2, [r3, #0]
    c5ec:	2210      	movs	r2, #16
    c5ee:	1889      	adds	r1, r1, r2
    c5f0:	605a      	str	r2, [r3, #4]
    c5f2:	9a34      	ldr	r2, [sp, #208]	; 0xd0
    c5f4:	9135      	str	r1, [sp, #212]	; 0xd4
    c5f6:	3201      	adds	r2, #1
    c5f8:	9234      	str	r2, [sp, #208]	; 0xd0
    c5fa:	2a07      	cmp	r2, #7
    c5fc:	dc01      	bgt.n	c602 <_svfprintf_r+0xaa6>
    c5fe:	3308      	adds	r3, #8
    c600:	e00c      	b.n	c61c <_svfprintf_r+0xac0>
    c602:	4640      	mov	r0, r8
    c604:	4639      	mov	r1, r7
    c606:	aa33      	add	r2, sp, #204	; 0xcc
    c608:	f8cd c018 	str.w	ip, [sp, #24]
    c60c:	f002 f8f1 	bl	e7f2 <__ssprint_r>
    c610:	f8dd c018 	ldr.w	ip, [sp, #24]
    c614:	2800      	cmp	r0, #0
    c616:	f040 8310 	bne.w	cc3a <_svfprintf_r+0x10de>
    c61a:	ab19      	add	r3, sp, #100	; 0x64
    c61c:	3d10      	subs	r5, #16
    c61e:	e004      	b.n	c62a <_svfprintf_r+0xace>
    c620:	462a      	mov	r2, r5
    c622:	461d      	mov	r5, r3
    c624:	4623      	mov	r3, r4
    c626:	464c      	mov	r4, r9
    c628:	4691      	mov	r9, r2
    c62a:	2d10      	cmp	r5, #16
    c62c:	9935      	ldr	r1, [sp, #212]	; 0xd4
    c62e:	4a51      	ldr	r2, [pc, #324]	; (c774 <_svfprintf_r+0xc18>)
    c630:	dcdb      	bgt.n	c5ea <_svfprintf_r+0xa8e>
    c632:	4648      	mov	r0, r9
    c634:	46a1      	mov	r9, r4
    c636:	461c      	mov	r4, r3
    c638:	462b      	mov	r3, r5
    c63a:	4605      	mov	r5, r0
    c63c:	6063      	str	r3, [r4, #4]
    c63e:	18cb      	adds	r3, r1, r3
    c640:	6022      	str	r2, [r4, #0]
    c642:	9335      	str	r3, [sp, #212]	; 0xd4
    c644:	9b34      	ldr	r3, [sp, #208]	; 0xd0
    c646:	3301      	adds	r3, #1
    c648:	9334      	str	r3, [sp, #208]	; 0xd0
    c64a:	2b07      	cmp	r3, #7
    c64c:	dc01      	bgt.n	c652 <_svfprintf_r+0xaf6>
    c64e:	3408      	adds	r4, #8
    c650:	e00c      	b.n	c66c <_svfprintf_r+0xb10>
    c652:	4640      	mov	r0, r8
    c654:	4639      	mov	r1, r7
    c656:	aa33      	add	r2, sp, #204	; 0xcc
    c658:	f8cd c018 	str.w	ip, [sp, #24]
    c65c:	f002 f8c9 	bl	e7f2 <__ssprint_r>
    c660:	f8dd c018 	ldr.w	ip, [sp, #24]
    c664:	2800      	cmp	r0, #0
    c666:	f040 82e8 	bne.w	cc3a <_svfprintf_r+0x10de>
    c66a:	ac19      	add	r4, sp, #100	; 0x64
    c66c:	ebcb 030c 	rsb	r3, fp, ip
    c670:	2b00      	cmp	r3, #0
    c672:	dc17      	bgt.n	c6a4 <_svfprintf_r+0xb48>
    c674:	e038      	b.n	c6e8 <_svfprintf_r+0xb8c>
    c676:	601a      	str	r2, [r3, #0]
    c678:	2210      	movs	r2, #16
    c67a:	1889      	adds	r1, r1, r2
    c67c:	605a      	str	r2, [r3, #4]
    c67e:	9a34      	ldr	r2, [sp, #208]	; 0xd0
    c680:	9135      	str	r1, [sp, #212]	; 0xd4
    c682:	3201      	adds	r2, #1
    c684:	9234      	str	r2, [sp, #208]	; 0xd0
    c686:	2a07      	cmp	r2, #7
    c688:	dc01      	bgt.n	c68e <_svfprintf_r+0xb32>
    c68a:	3308      	adds	r3, #8
    c68c:	e008      	b.n	c6a0 <_svfprintf_r+0xb44>
    c68e:	4640      	mov	r0, r8
    c690:	4639      	mov	r1, r7
    c692:	aa33      	add	r2, sp, #204	; 0xcc
    c694:	f002 f8ad 	bl	e7f2 <__ssprint_r>
    c698:	2800      	cmp	r0, #0
    c69a:	f040 82ce 	bne.w	cc3a <_svfprintf_r+0x10de>
    c69e:	ab19      	add	r3, sp, #100	; 0x64
    c6a0:	3d10      	subs	r5, #16
    c6a2:	e004      	b.n	c6ae <_svfprintf_r+0xb52>
    c6a4:	462a      	mov	r2, r5
    c6a6:	461d      	mov	r5, r3
    c6a8:	4623      	mov	r3, r4
    c6aa:	464c      	mov	r4, r9
    c6ac:	4691      	mov	r9, r2
    c6ae:	2d10      	cmp	r5, #16
    c6b0:	9935      	ldr	r1, [sp, #212]	; 0xd4
    c6b2:	4a30      	ldr	r2, [pc, #192]	; (c774 <_svfprintf_r+0xc18>)
    c6b4:	dcdf      	bgt.n	c676 <_svfprintf_r+0xb1a>
    c6b6:	4648      	mov	r0, r9
    c6b8:	46a1      	mov	r9, r4
    c6ba:	461c      	mov	r4, r3
    c6bc:	462b      	mov	r3, r5
    c6be:	4605      	mov	r5, r0
    c6c0:	6063      	str	r3, [r4, #4]
    c6c2:	18cb      	adds	r3, r1, r3
    c6c4:	6022      	str	r2, [r4, #0]
    c6c6:	9335      	str	r3, [sp, #212]	; 0xd4
    c6c8:	9b34      	ldr	r3, [sp, #208]	; 0xd0
    c6ca:	3301      	adds	r3, #1
    c6cc:	9334      	str	r3, [sp, #208]	; 0xd0
    c6ce:	2b07      	cmp	r3, #7
    c6d0:	dc01      	bgt.n	c6d6 <_svfprintf_r+0xb7a>
    c6d2:	3408      	adds	r4, #8
    c6d4:	e008      	b.n	c6e8 <_svfprintf_r+0xb8c>
    c6d6:	4640      	mov	r0, r8
    c6d8:	4639      	mov	r1, r7
    c6da:	aa33      	add	r2, sp, #204	; 0xcc
    c6dc:	f002 f889 	bl	e7f2 <__ssprint_r>
    c6e0:	2800      	cmp	r0, #0
    c6e2:	f040 82aa 	bne.w	cc3a <_svfprintf_r+0x10de>
    c6e6:	ac19      	add	r4, sp, #100	; 0x64
    c6e8:	f415 7f80 	tst.w	r5, #256	; 0x100
    c6ec:	d106      	bne.n	c6fc <_svfprintf_r+0xba0>
    c6ee:	9b35      	ldr	r3, [sp, #212]	; 0xd4
    c6f0:	f8c4 a000 	str.w	sl, [r4]
    c6f4:	f8c4 b004 	str.w	fp, [r4, #4]
    c6f8:	445b      	add	r3, fp
    c6fa:	e23f      	b.n	cb7c <_svfprintf_r+0x1020>
    c6fc:	f1b9 0f65 	cmp.w	r9, #101	; 0x65
    c700:	f340 81b7 	ble.w	ca72 <_svfprintf_r+0xf16>
    c704:	9810      	ldr	r0, [sp, #64]	; 0x40
    c706:	2200      	movs	r2, #0
    c708:	9911      	ldr	r1, [sp, #68]	; 0x44
    c70a:	2300      	movs	r3, #0
    c70c:	f003 fe46 	bl	1039c <__aeabi_dcmpeq>
    c710:	2800      	cmp	r0, #0
    c712:	d060      	beq.n	c7d6 <_svfprintf_r+0xc7a>
    c714:	4b18      	ldr	r3, [pc, #96]	; (c778 <_svfprintf_r+0xc1c>)
    c716:	6023      	str	r3, [r4, #0]
    c718:	2301      	movs	r3, #1
    c71a:	6063      	str	r3, [r4, #4]
    c71c:	9b35      	ldr	r3, [sp, #212]	; 0xd4
    c71e:	3301      	adds	r3, #1
    c720:	9335      	str	r3, [sp, #212]	; 0xd4
    c722:	9b34      	ldr	r3, [sp, #208]	; 0xd0
    c724:	3301      	adds	r3, #1
    c726:	9334      	str	r3, [sp, #208]	; 0xd0
    c728:	2b07      	cmp	r3, #7
    c72a:	dc01      	bgt.n	c730 <_svfprintf_r+0xbd4>
    c72c:	3408      	adds	r4, #8
    c72e:	e008      	b.n	c742 <_svfprintf_r+0xbe6>
    c730:	4640      	mov	r0, r8
    c732:	4639      	mov	r1, r7
    c734:	aa33      	add	r2, sp, #204	; 0xcc
    c736:	f002 f85c 	bl	e7f2 <__ssprint_r>
    c73a:	2800      	cmp	r0, #0
    c73c:	f040 827d 	bne.w	cc3a <_svfprintf_r+0x10de>
    c740:	ac19      	add	r4, sp, #100	; 0x64
    c742:	9b3c      	ldr	r3, [sp, #240]	; 0xf0
    c744:	9a0b      	ldr	r2, [sp, #44]	; 0x2c
    c746:	4293      	cmp	r3, r2
    c748:	db03      	blt.n	c752 <_svfprintf_r+0xbf6>
    c74a:	f015 0f01 	tst.w	r5, #1
    c74e:	f000 8225 	beq.w	cb9c <_svfprintf_r+0x1040>
    c752:	9b13      	ldr	r3, [sp, #76]	; 0x4c
    c754:	9812      	ldr	r0, [sp, #72]	; 0x48
    c756:	6023      	str	r3, [r4, #0]
    c758:	9b35      	ldr	r3, [sp, #212]	; 0xd4
    c75a:	6060      	str	r0, [r4, #4]
    c75c:	181b      	adds	r3, r3, r0
    c75e:	9335      	str	r3, [sp, #212]	; 0xd4
    c760:	9b34      	ldr	r3, [sp, #208]	; 0xd0
    c762:	3301      	adds	r3, #1
    c764:	9334      	str	r3, [sp, #208]	; 0xd0
    c766:	2b07      	cmp	r3, #7
    c768:	dc08      	bgt.n	c77c <_svfprintf_r+0xc20>
    c76a:	3408      	adds	r4, #8
    c76c:	e00f      	b.n	c78e <_svfprintf_r+0xc32>
    c76e:	bf00      	nop
    c770:	00011378 	.word	0x00011378
    c774:	00011368 	.word	0x00011368
    c778:	0001105e 	.word	0x0001105e
    c77c:	4640      	mov	r0, r8
    c77e:	4639      	mov	r1, r7
    c780:	aa33      	add	r2, sp, #204	; 0xcc
    c782:	f002 f836 	bl	e7f2 <__ssprint_r>
    c786:	2800      	cmp	r0, #0
    c788:	f040 8257 	bne.w	cc3a <_svfprintf_r+0x10de>
    c78c:	ac19      	add	r4, sp, #100	; 0x64
    c78e:	990b      	ldr	r1, [sp, #44]	; 0x2c
    c790:	f101 39ff 	add.w	r9, r1, #4294967295
    c794:	f1b9 0f00 	cmp.w	r9, #0
    c798:	dc17      	bgt.n	c7ca <_svfprintf_r+0xc6e>
    c79a:	e1ff      	b.n	cb9c <_svfprintf_r+0x1040>
    c79c:	6022      	str	r2, [r4, #0]
    c79e:	2210      	movs	r2, #16
    c7a0:	189b      	adds	r3, r3, r2
    c7a2:	6062      	str	r2, [r4, #4]
    c7a4:	9335      	str	r3, [sp, #212]	; 0xd4
    c7a6:	9b34      	ldr	r3, [sp, #208]	; 0xd0
    c7a8:	3301      	adds	r3, #1
    c7aa:	9334      	str	r3, [sp, #208]	; 0xd0
    c7ac:	2b07      	cmp	r3, #7
    c7ae:	dc01      	bgt.n	c7b4 <_svfprintf_r+0xc58>
    c7b0:	3408      	adds	r4, #8
    c7b2:	e008      	b.n	c7c6 <_svfprintf_r+0xc6a>
    c7b4:	4640      	mov	r0, r8
    c7b6:	4639      	mov	r1, r7
    c7b8:	aa33      	add	r2, sp, #204	; 0xcc
    c7ba:	f002 f81a 	bl	e7f2 <__ssprint_r>
    c7be:	2800      	cmp	r0, #0
    c7c0:	f040 823b 	bne.w	cc3a <_svfprintf_r+0x10de>
    c7c4:	ac19      	add	r4, sp, #100	; 0x64
    c7c6:	f1a9 0910 	sub.w	r9, r9, #16
    c7ca:	f1b9 0f10 	cmp.w	r9, #16
    c7ce:	9b35      	ldr	r3, [sp, #212]	; 0xd4
    c7d0:	4a95      	ldr	r2, [pc, #596]	; (ca28 <_svfprintf_r+0xecc>)
    c7d2:	dce3      	bgt.n	c79c <_svfprintf_r+0xc40>
    c7d4:	e148      	b.n	ca68 <_svfprintf_r+0xf0c>
    c7d6:	9b3c      	ldr	r3, [sp, #240]	; 0xf0
    c7d8:	2b00      	cmp	r3, #0
    c7da:	dc79      	bgt.n	c8d0 <_svfprintf_r+0xd74>
    c7dc:	4b93      	ldr	r3, [pc, #588]	; (ca2c <_svfprintf_r+0xed0>)
    c7de:	6023      	str	r3, [r4, #0]
    c7e0:	2301      	movs	r3, #1
    c7e2:	6063      	str	r3, [r4, #4]
    c7e4:	9b35      	ldr	r3, [sp, #212]	; 0xd4
    c7e6:	3301      	adds	r3, #1
    c7e8:	9335      	str	r3, [sp, #212]	; 0xd4
    c7ea:	9b34      	ldr	r3, [sp, #208]	; 0xd0
    c7ec:	3301      	adds	r3, #1
    c7ee:	9334      	str	r3, [sp, #208]	; 0xd0
    c7f0:	2b07      	cmp	r3, #7
    c7f2:	dc01      	bgt.n	c7f8 <_svfprintf_r+0xc9c>
    c7f4:	3408      	adds	r4, #8
    c7f6:	e008      	b.n	c80a <_svfprintf_r+0xcae>
    c7f8:	4640      	mov	r0, r8
    c7fa:	4639      	mov	r1, r7
    c7fc:	aa33      	add	r2, sp, #204	; 0xcc
    c7fe:	f001 fff8 	bl	e7f2 <__ssprint_r>
    c802:	2800      	cmp	r0, #0
    c804:	f040 8219 	bne.w	cc3a <_svfprintf_r+0x10de>
    c808:	ac19      	add	r4, sp, #100	; 0x64
    c80a:	9b3c      	ldr	r3, [sp, #240]	; 0xf0
    c80c:	b92b      	cbnz	r3, c81a <_svfprintf_r+0xcbe>
    c80e:	9a0b      	ldr	r2, [sp, #44]	; 0x2c
    c810:	b91a      	cbnz	r2, c81a <_svfprintf_r+0xcbe>
    c812:	f015 0f01 	tst.w	r5, #1
    c816:	f000 81c1 	beq.w	cb9c <_svfprintf_r+0x1040>
    c81a:	9b13      	ldr	r3, [sp, #76]	; 0x4c
    c81c:	9812      	ldr	r0, [sp, #72]	; 0x48
    c81e:	6023      	str	r3, [r4, #0]
    c820:	9b35      	ldr	r3, [sp, #212]	; 0xd4
    c822:	6060      	str	r0, [r4, #4]
    c824:	181b      	adds	r3, r3, r0
    c826:	9335      	str	r3, [sp, #212]	; 0xd4
    c828:	9b34      	ldr	r3, [sp, #208]	; 0xd0
    c82a:	3301      	adds	r3, #1
    c82c:	9334      	str	r3, [sp, #208]	; 0xd0
    c82e:	2b07      	cmp	r3, #7
    c830:	dc02      	bgt.n	c838 <_svfprintf_r+0xcdc>
    c832:	f104 0308 	add.w	r3, r4, #8
    c836:	e008      	b.n	c84a <_svfprintf_r+0xcee>
    c838:	4640      	mov	r0, r8
    c83a:	4639      	mov	r1, r7
    c83c:	aa33      	add	r2, sp, #204	; 0xcc
    c83e:	f001 ffd8 	bl	e7f2 <__ssprint_r>
    c842:	2800      	cmp	r0, #0
    c844:	f040 81f9 	bne.w	cc3a <_svfprintf_r+0x10de>
    c848:	ab19      	add	r3, sp, #100	; 0x64
    c84a:	9c3c      	ldr	r4, [sp, #240]	; 0xf0
    c84c:	4264      	negs	r4, r4
    c84e:	2c00      	cmp	r4, #0
    c850:	dc16      	bgt.n	c880 <_svfprintf_r+0xd24>
    c852:	e02d      	b.n	c8b0 <_svfprintf_r+0xd54>
    c854:	6019      	str	r1, [r3, #0]
    c856:	2110      	movs	r1, #16
    c858:	1852      	adds	r2, r2, r1
    c85a:	6059      	str	r1, [r3, #4]
    c85c:	9235      	str	r2, [sp, #212]	; 0xd4
    c85e:	9a34      	ldr	r2, [sp, #208]	; 0xd0
    c860:	3201      	adds	r2, #1
    c862:	9234      	str	r2, [sp, #208]	; 0xd0
    c864:	2a07      	cmp	r2, #7
    c866:	dc01      	bgt.n	c86c <_svfprintf_r+0xd10>
    c868:	3308      	adds	r3, #8
    c86a:	e008      	b.n	c87e <_svfprintf_r+0xd22>
    c86c:	4640      	mov	r0, r8
    c86e:	4639      	mov	r1, r7
    c870:	aa33      	add	r2, sp, #204	; 0xcc
    c872:	f001 ffbe 	bl	e7f2 <__ssprint_r>
    c876:	2800      	cmp	r0, #0
    c878:	f040 81df 	bne.w	cc3a <_svfprintf_r+0x10de>
    c87c:	ab19      	add	r3, sp, #100	; 0x64
    c87e:	3c10      	subs	r4, #16
    c880:	2c10      	cmp	r4, #16
    c882:	9a35      	ldr	r2, [sp, #212]	; 0xd4
    c884:	4968      	ldr	r1, [pc, #416]	; (ca28 <_svfprintf_r+0xecc>)
    c886:	dce5      	bgt.n	c854 <_svfprintf_r+0xcf8>
    c888:	605c      	str	r4, [r3, #4]
    c88a:	1914      	adds	r4, r2, r4
    c88c:	9a34      	ldr	r2, [sp, #208]	; 0xd0
    c88e:	6019      	str	r1, [r3, #0]
    c890:	3201      	adds	r2, #1
    c892:	9435      	str	r4, [sp, #212]	; 0xd4
    c894:	2a07      	cmp	r2, #7
    c896:	9234      	str	r2, [sp, #208]	; 0xd0
    c898:	dc01      	bgt.n	c89e <_svfprintf_r+0xd42>
    c89a:	3308      	adds	r3, #8
    c89c:	e008      	b.n	c8b0 <_svfprintf_r+0xd54>
    c89e:	4640      	mov	r0, r8
    c8a0:	4639      	mov	r1, r7
    c8a2:	aa33      	add	r2, sp, #204	; 0xcc
    c8a4:	f001 ffa5 	bl	e7f2 <__ssprint_r>
    c8a8:	2800      	cmp	r0, #0
    c8aa:	f040 81c6 	bne.w	cc3a <_svfprintf_r+0x10de>
    c8ae:	ab19      	add	r3, sp, #100	; 0x64
    c8b0:	990b      	ldr	r1, [sp, #44]	; 0x2c
    c8b2:	9a35      	ldr	r2, [sp, #212]	; 0xd4
    c8b4:	f8c3 a000 	str.w	sl, [r3]
    c8b8:	6059      	str	r1, [r3, #4]
    c8ba:	1852      	adds	r2, r2, r1
    c8bc:	9235      	str	r2, [sp, #212]	; 0xd4
    c8be:	9a34      	ldr	r2, [sp, #208]	; 0xd0
    c8c0:	3201      	adds	r2, #1
    c8c2:	9234      	str	r2, [sp, #208]	; 0xd0
    c8c4:	2a07      	cmp	r2, #7
    c8c6:	f300 8161 	bgt.w	cb8c <_svfprintf_r+0x1030>
    c8ca:	f103 0408 	add.w	r4, r3, #8
    c8ce:	e165      	b.n	cb9c <_svfprintf_r+0x1040>
    c8d0:	9a0b      	ldr	r2, [sp, #44]	; 0x2c
    c8d2:	9b08      	ldr	r3, [sp, #32]
    c8d4:	4691      	mov	r9, r2
    c8d6:	eb0a 0b02 	add.w	fp, sl, r2
    c8da:	4599      	cmp	r9, r3
    c8dc:	bfa8      	it	ge
    c8de:	4699      	movge	r9, r3
    c8e0:	f1b9 0f00 	cmp.w	r9, #0
    c8e4:	dd16      	ble.n	c914 <_svfprintf_r+0xdb8>
    c8e6:	9b35      	ldr	r3, [sp, #212]	; 0xd4
    c8e8:	f8c4 a000 	str.w	sl, [r4]
    c8ec:	f8c4 9004 	str.w	r9, [r4, #4]
    c8f0:	444b      	add	r3, r9
    c8f2:	9335      	str	r3, [sp, #212]	; 0xd4
    c8f4:	9b34      	ldr	r3, [sp, #208]	; 0xd0
    c8f6:	3301      	adds	r3, #1
    c8f8:	9334      	str	r3, [sp, #208]	; 0xd0
    c8fa:	2b07      	cmp	r3, #7
    c8fc:	dc01      	bgt.n	c902 <_svfprintf_r+0xda6>
    c8fe:	3408      	adds	r4, #8
    c900:	e008      	b.n	c914 <_svfprintf_r+0xdb8>
    c902:	4640      	mov	r0, r8
    c904:	4639      	mov	r1, r7
    c906:	aa33      	add	r2, sp, #204	; 0xcc
    c908:	f001 ff73 	bl	e7f2 <__ssprint_r>
    c90c:	2800      	cmp	r0, #0
    c90e:	f040 8194 	bne.w	cc3a <_svfprintf_r+0x10de>
    c912:	ac19      	add	r4, sp, #100	; 0x64
    c914:	9808      	ldr	r0, [sp, #32]
    c916:	ea29 79e9 	bic.w	r9, r9, r9, asr #31
    c91a:	ebc9 0900 	rsb	r9, r9, r0
    c91e:	f1b9 0f00 	cmp.w	r9, #0
    c922:	dc17      	bgt.n	c954 <_svfprintf_r+0xdf8>
    c924:	e030      	b.n	c988 <_svfprintf_r+0xe2c>
    c926:	6022      	str	r2, [r4, #0]
    c928:	2210      	movs	r2, #16
    c92a:	189b      	adds	r3, r3, r2
    c92c:	6062      	str	r2, [r4, #4]
    c92e:	9335      	str	r3, [sp, #212]	; 0xd4
    c930:	9b34      	ldr	r3, [sp, #208]	; 0xd0
    c932:	3301      	adds	r3, #1
    c934:	9334      	str	r3, [sp, #208]	; 0xd0
    c936:	2b07      	cmp	r3, #7
    c938:	dc01      	bgt.n	c93e <_svfprintf_r+0xde2>
    c93a:	3408      	adds	r4, #8
    c93c:	e008      	b.n	c950 <_svfprintf_r+0xdf4>
    c93e:	4640      	mov	r0, r8
    c940:	4639      	mov	r1, r7
    c942:	aa33      	add	r2, sp, #204	; 0xcc
    c944:	f001 ff55 	bl	e7f2 <__ssprint_r>
    c948:	2800      	cmp	r0, #0
    c94a:	f040 8176 	bne.w	cc3a <_svfprintf_r+0x10de>
    c94e:	ac19      	add	r4, sp, #100	; 0x64
    c950:	f1a9 0910 	sub.w	r9, r9, #16
    c954:	f1b9 0f10 	cmp.w	r9, #16
    c958:	9b35      	ldr	r3, [sp, #212]	; 0xd4
    c95a:	4a33      	ldr	r2, [pc, #204]	; (ca28 <_svfprintf_r+0xecc>)
    c95c:	dce3      	bgt.n	c926 <_svfprintf_r+0xdca>
    c95e:	6022      	str	r2, [r4, #0]
    c960:	444b      	add	r3, r9
    c962:	f8c4 9004 	str.w	r9, [r4, #4]
    c966:	9335      	str	r3, [sp, #212]	; 0xd4
    c968:	9b34      	ldr	r3, [sp, #208]	; 0xd0
    c96a:	3301      	adds	r3, #1
    c96c:	9334      	str	r3, [sp, #208]	; 0xd0
    c96e:	2b07      	cmp	r3, #7
    c970:	dc01      	bgt.n	c976 <_svfprintf_r+0xe1a>
    c972:	3408      	adds	r4, #8
    c974:	e008      	b.n	c988 <_svfprintf_r+0xe2c>
    c976:	4640      	mov	r0, r8
    c978:	4639      	mov	r1, r7
    c97a:	aa33      	add	r2, sp, #204	; 0xcc
    c97c:	f001 ff39 	bl	e7f2 <__ssprint_r>
    c980:	2800      	cmp	r0, #0
    c982:	f040 815a 	bne.w	cc3a <_svfprintf_r+0x10de>
    c986:	ac19      	add	r4, sp, #100	; 0x64
    c988:	9b3c      	ldr	r3, [sp, #240]	; 0xf0
    c98a:	990b      	ldr	r1, [sp, #44]	; 0x2c
    c98c:	428b      	cmp	r3, r1
    c98e:	db02      	blt.n	c996 <_svfprintf_r+0xe3a>
    c990:	f015 0f01 	tst.w	r5, #1
    c994:	d017      	beq.n	c9c6 <_svfprintf_r+0xe6a>
    c996:	9b12      	ldr	r3, [sp, #72]	; 0x48
    c998:	9a13      	ldr	r2, [sp, #76]	; 0x4c
    c99a:	9812      	ldr	r0, [sp, #72]	; 0x48
    c99c:	6063      	str	r3, [r4, #4]
    c99e:	9b35      	ldr	r3, [sp, #212]	; 0xd4
    c9a0:	6022      	str	r2, [r4, #0]
    c9a2:	181b      	adds	r3, r3, r0
    c9a4:	9335      	str	r3, [sp, #212]	; 0xd4
    c9a6:	9b34      	ldr	r3, [sp, #208]	; 0xd0
    c9a8:	3301      	adds	r3, #1
    c9aa:	9334      	str	r3, [sp, #208]	; 0xd0
    c9ac:	2b07      	cmp	r3, #7
    c9ae:	dc01      	bgt.n	c9b4 <_svfprintf_r+0xe58>
    c9b0:	3408      	adds	r4, #8
    c9b2:	e008      	b.n	c9c6 <_svfprintf_r+0xe6a>
    c9b4:	4640      	mov	r0, r8
    c9b6:	4639      	mov	r1, r7
    c9b8:	aa33      	add	r2, sp, #204	; 0xcc
    c9ba:	f001 ff1a 	bl	e7f2 <__ssprint_r>
    c9be:	2800      	cmp	r0, #0
    c9c0:	f040 813b 	bne.w	cc3a <_svfprintf_r+0x10de>
    c9c4:	ac19      	add	r4, sp, #100	; 0x64
    c9c6:	9908      	ldr	r1, [sp, #32]
    c9c8:	9a3c      	ldr	r2, [sp, #240]	; 0xf0
    c9ca:	980b      	ldr	r0, [sp, #44]	; 0x2c
    c9cc:	eb0a 0301 	add.w	r3, sl, r1
    c9d0:	ebc3 0b0b 	rsb	fp, r3, fp
    c9d4:	ebc2 0900 	rsb	r9, r2, r0
    c9d8:	45cb      	cmp	fp, r9
    c9da:	bfb8      	it	lt
    c9dc:	46d9      	movlt	r9, fp
    c9de:	f1b9 0f00 	cmp.w	r9, #0
    c9e2:	dd15      	ble.n	ca10 <_svfprintf_r+0xeb4>
    c9e4:	6023      	str	r3, [r4, #0]
    c9e6:	9b35      	ldr	r3, [sp, #212]	; 0xd4
    c9e8:	f8c4 9004 	str.w	r9, [r4, #4]
    c9ec:	444b      	add	r3, r9
    c9ee:	9335      	str	r3, [sp, #212]	; 0xd4
    c9f0:	9b34      	ldr	r3, [sp, #208]	; 0xd0
    c9f2:	3301      	adds	r3, #1
    c9f4:	9334      	str	r3, [sp, #208]	; 0xd0
    c9f6:	2b07      	cmp	r3, #7
    c9f8:	dc01      	bgt.n	c9fe <_svfprintf_r+0xea2>
    c9fa:	3408      	adds	r4, #8
    c9fc:	e008      	b.n	ca10 <_svfprintf_r+0xeb4>
    c9fe:	4640      	mov	r0, r8
    ca00:	4639      	mov	r1, r7
    ca02:	aa33      	add	r2, sp, #204	; 0xcc
    ca04:	f001 fef5 	bl	e7f2 <__ssprint_r>
    ca08:	2800      	cmp	r0, #0
    ca0a:	f040 8116 	bne.w	cc3a <_svfprintf_r+0x10de>
    ca0e:	ac19      	add	r4, sp, #100	; 0x64
    ca10:	9b3c      	ldr	r3, [sp, #240]	; 0xf0
    ca12:	ea29 79e9 	bic.w	r9, r9, r9, asr #31
    ca16:	990b      	ldr	r1, [sp, #44]	; 0x2c
    ca18:	1acb      	subs	r3, r1, r3
    ca1a:	ebc9 0903 	rsb	r9, r9, r3
    ca1e:	f1b9 0f00 	cmp.w	r9, #0
    ca22:	dc1c      	bgt.n	ca5e <_svfprintf_r+0xf02>
    ca24:	e0ba      	b.n	cb9c <_svfprintf_r+0x1040>
    ca26:	bf00      	nop
    ca28:	00011368 	.word	0x00011368
    ca2c:	0001105e 	.word	0x0001105e
    ca30:	6022      	str	r2, [r4, #0]
    ca32:	2210      	movs	r2, #16
    ca34:	189b      	adds	r3, r3, r2
    ca36:	6062      	str	r2, [r4, #4]
    ca38:	9335      	str	r3, [sp, #212]	; 0xd4
    ca3a:	9b34      	ldr	r3, [sp, #208]	; 0xd0
    ca3c:	3301      	adds	r3, #1
    ca3e:	9334      	str	r3, [sp, #208]	; 0xd0
    ca40:	2b07      	cmp	r3, #7
    ca42:	dc01      	bgt.n	ca48 <_svfprintf_r+0xeec>
    ca44:	3408      	adds	r4, #8
    ca46:	e008      	b.n	ca5a <_svfprintf_r+0xefe>
    ca48:	4640      	mov	r0, r8
    ca4a:	4639      	mov	r1, r7
    ca4c:	aa33      	add	r2, sp, #204	; 0xcc
    ca4e:	f001 fed0 	bl	e7f2 <__ssprint_r>
    ca52:	2800      	cmp	r0, #0
    ca54:	f040 80f1 	bne.w	cc3a <_svfprintf_r+0x10de>
    ca58:	ac19      	add	r4, sp, #100	; 0x64
    ca5a:	f1a9 0910 	sub.w	r9, r9, #16
    ca5e:	f1b9 0f10 	cmp.w	r9, #16
    ca62:	9b35      	ldr	r3, [sp, #212]	; 0xd4
    ca64:	4a7b      	ldr	r2, [pc, #492]	; (cc54 <_svfprintf_r+0x10f8>)
    ca66:	dce3      	bgt.n	ca30 <_svfprintf_r+0xed4>
    ca68:	6022      	str	r2, [r4, #0]
    ca6a:	444b      	add	r3, r9
    ca6c:	f8c4 9004 	str.w	r9, [r4, #4]
    ca70:	e084      	b.n	cb7c <_svfprintf_r+0x1020>
    ca72:	9a0b      	ldr	r2, [sp, #44]	; 0x2c
    ca74:	2a01      	cmp	r2, #1
    ca76:	dc02      	bgt.n	ca7e <_svfprintf_r+0xf22>
    ca78:	f015 0f01 	tst.w	r5, #1
    ca7c:	d062      	beq.n	cb44 <_svfprintf_r+0xfe8>
    ca7e:	2301      	movs	r3, #1
    ca80:	6063      	str	r3, [r4, #4]
    ca82:	9b35      	ldr	r3, [sp, #212]	; 0xd4
    ca84:	f8c4 a000 	str.w	sl, [r4]
    ca88:	3301      	adds	r3, #1
    ca8a:	9335      	str	r3, [sp, #212]	; 0xd4
    ca8c:	9b34      	ldr	r3, [sp, #208]	; 0xd0
    ca8e:	3301      	adds	r3, #1
    ca90:	9334      	str	r3, [sp, #208]	; 0xd0
    ca92:	2b07      	cmp	r3, #7
    ca94:	dc01      	bgt.n	ca9a <_svfprintf_r+0xf3e>
    ca96:	3408      	adds	r4, #8
    ca98:	e008      	b.n	caac <_svfprintf_r+0xf50>
    ca9a:	4640      	mov	r0, r8
    ca9c:	4639      	mov	r1, r7
    ca9e:	aa33      	add	r2, sp, #204	; 0xcc
    caa0:	f001 fea7 	bl	e7f2 <__ssprint_r>
    caa4:	2800      	cmp	r0, #0
    caa6:	f040 80c8 	bne.w	cc3a <_svfprintf_r+0x10de>
    caaa:	ac19      	add	r4, sp, #100	; 0x64
    caac:	9b13      	ldr	r3, [sp, #76]	; 0x4c
    caae:	9812      	ldr	r0, [sp, #72]	; 0x48
    cab0:	6023      	str	r3, [r4, #0]
    cab2:	9b35      	ldr	r3, [sp, #212]	; 0xd4
    cab4:	6060      	str	r0, [r4, #4]
    cab6:	181b      	adds	r3, r3, r0
    cab8:	9335      	str	r3, [sp, #212]	; 0xd4
    caba:	9b34      	ldr	r3, [sp, #208]	; 0xd0
    cabc:	3301      	adds	r3, #1
    cabe:	9334      	str	r3, [sp, #208]	; 0xd0
    cac0:	2b07      	cmp	r3, #7
    cac2:	dc01      	bgt.n	cac8 <_svfprintf_r+0xf6c>
    cac4:	3408      	adds	r4, #8
    cac6:	e008      	b.n	cada <_svfprintf_r+0xf7e>
    cac8:	4640      	mov	r0, r8
    caca:	4639      	mov	r1, r7
    cacc:	aa33      	add	r2, sp, #204	; 0xcc
    cace:	f001 fe90 	bl	e7f2 <__ssprint_r>
    cad2:	2800      	cmp	r0, #0
    cad4:	f040 80b1 	bne.w	cc3a <_svfprintf_r+0x10de>
    cad8:	ac19      	add	r4, sp, #100	; 0x64
    cada:	9911      	ldr	r1, [sp, #68]	; 0x44
    cadc:	2300      	movs	r3, #0
    cade:	9810      	ldr	r0, [sp, #64]	; 0x40
    cae0:	2200      	movs	r2, #0
    cae2:	f003 fc5b 	bl	1039c <__aeabi_dcmpeq>
    cae6:	990b      	ldr	r1, [sp, #44]	; 0x2c
    cae8:	1e4b      	subs	r3, r1, #1
    caea:	b930      	cbnz	r0, cafa <_svfprintf_r+0xf9e>
    caec:	f10a 0201 	add.w	r2, sl, #1
    caf0:	6022      	str	r2, [r4, #0]
    caf2:	9a35      	ldr	r2, [sp, #212]	; 0xd4
    caf4:	6063      	str	r3, [r4, #4]
    caf6:	18d3      	adds	r3, r2, r3
    caf8:	e02a      	b.n	cb50 <_svfprintf_r+0xff4>
    cafa:	f1b3 0900 	subs.w	r9, r3, #0
    cafe:	dc17      	bgt.n	cb30 <_svfprintf_r+0xfd4>
    cb00:	e036      	b.n	cb70 <_svfprintf_r+0x1014>
    cb02:	6022      	str	r2, [r4, #0]
    cb04:	2210      	movs	r2, #16
    cb06:	189b      	adds	r3, r3, r2
    cb08:	6062      	str	r2, [r4, #4]
    cb0a:	9335      	str	r3, [sp, #212]	; 0xd4
    cb0c:	9b34      	ldr	r3, [sp, #208]	; 0xd0
    cb0e:	3301      	adds	r3, #1
    cb10:	9334      	str	r3, [sp, #208]	; 0xd0
    cb12:	2b07      	cmp	r3, #7
    cb14:	dc01      	bgt.n	cb1a <_svfprintf_r+0xfbe>
    cb16:	3408      	adds	r4, #8
    cb18:	e008      	b.n	cb2c <_svfprintf_r+0xfd0>
    cb1a:	4640      	mov	r0, r8
    cb1c:	4639      	mov	r1, r7
    cb1e:	aa33      	add	r2, sp, #204	; 0xcc
    cb20:	f001 fe67 	bl	e7f2 <__ssprint_r>
    cb24:	2800      	cmp	r0, #0
    cb26:	f040 8088 	bne.w	cc3a <_svfprintf_r+0x10de>
    cb2a:	ac19      	add	r4, sp, #100	; 0x64
    cb2c:	f1a9 0910 	sub.w	r9, r9, #16
    cb30:	f1b9 0f10 	cmp.w	r9, #16
    cb34:	9b35      	ldr	r3, [sp, #212]	; 0xd4
    cb36:	4a47      	ldr	r2, [pc, #284]	; (cc54 <_svfprintf_r+0x10f8>)
    cb38:	dce3      	bgt.n	cb02 <_svfprintf_r+0xfa6>
    cb3a:	6022      	str	r2, [r4, #0]
    cb3c:	444b      	add	r3, r9
    cb3e:	f8c4 9004 	str.w	r9, [r4, #4]
    cb42:	e005      	b.n	cb50 <_svfprintf_r+0xff4>
    cb44:	2301      	movs	r3, #1
    cb46:	6063      	str	r3, [r4, #4]
    cb48:	9b35      	ldr	r3, [sp, #212]	; 0xd4
    cb4a:	f8c4 a000 	str.w	sl, [r4]
    cb4e:	3301      	adds	r3, #1
    cb50:	9335      	str	r3, [sp, #212]	; 0xd4
    cb52:	9b34      	ldr	r3, [sp, #208]	; 0xd0
    cb54:	3301      	adds	r3, #1
    cb56:	9334      	str	r3, [sp, #208]	; 0xd0
    cb58:	2b07      	cmp	r3, #7
    cb5a:	dc01      	bgt.n	cb60 <_svfprintf_r+0x1004>
    cb5c:	3408      	adds	r4, #8
    cb5e:	e007      	b.n	cb70 <_svfprintf_r+0x1014>
    cb60:	4640      	mov	r0, r8
    cb62:	4639      	mov	r1, r7
    cb64:	aa33      	add	r2, sp, #204	; 0xcc
    cb66:	f001 fe44 	bl	e7f2 <__ssprint_r>
    cb6a:	2800      	cmp	r0, #0
    cb6c:	d165      	bne.n	cc3a <_svfprintf_r+0x10de>
    cb6e:	ac19      	add	r4, sp, #100	; 0x64
    cb70:	ab38      	add	r3, sp, #224	; 0xe0
    cb72:	9a15      	ldr	r2, [sp, #84]	; 0x54
    cb74:	6023      	str	r3, [r4, #0]
    cb76:	9b35      	ldr	r3, [sp, #212]	; 0xd4
    cb78:	6062      	str	r2, [r4, #4]
    cb7a:	189b      	adds	r3, r3, r2
    cb7c:	9335      	str	r3, [sp, #212]	; 0xd4
    cb7e:	9b34      	ldr	r3, [sp, #208]	; 0xd0
    cb80:	3301      	adds	r3, #1
    cb82:	9334      	str	r3, [sp, #208]	; 0xd0
    cb84:	2b07      	cmp	r3, #7
    cb86:	dc01      	bgt.n	cb8c <_svfprintf_r+0x1030>
    cb88:	3408      	adds	r4, #8
    cb8a:	e007      	b.n	cb9c <_svfprintf_r+0x1040>
    cb8c:	4640      	mov	r0, r8
    cb8e:	4639      	mov	r1, r7
    cb90:	aa33      	add	r2, sp, #204	; 0xcc
    cb92:	f001 fe2e 	bl	e7f2 <__ssprint_r>
    cb96:	2800      	cmp	r0, #0
    cb98:	d14f      	bne.n	cc3a <_svfprintf_r+0x10de>
    cb9a:	ac19      	add	r4, sp, #100	; 0x64
    cb9c:	f015 0f04 	tst.w	r5, #4
    cba0:	d02f      	beq.n	cc02 <_svfprintf_r+0x10a6>
    cba2:	9b0d      	ldr	r3, [sp, #52]	; 0x34
    cba4:	f8dd a038 	ldr.w	sl, [sp, #56]	; 0x38
    cba8:	ebca 0503 	rsb	r5, sl, r3
    cbac:	2d00      	cmp	r5, #0
    cbae:	dc15      	bgt.n	cbdc <_svfprintf_r+0x1080>
    cbb0:	e027      	b.n	cc02 <_svfprintf_r+0x10a6>
    cbb2:	6022      	str	r2, [r4, #0]
    cbb4:	2210      	movs	r2, #16
    cbb6:	189b      	adds	r3, r3, r2
    cbb8:	6062      	str	r2, [r4, #4]
    cbba:	9335      	str	r3, [sp, #212]	; 0xd4
    cbbc:	9b34      	ldr	r3, [sp, #208]	; 0xd0
    cbbe:	3301      	adds	r3, #1
    cbc0:	9334      	str	r3, [sp, #208]	; 0xd0
    cbc2:	2b07      	cmp	r3, #7
    cbc4:	dc01      	bgt.n	cbca <_svfprintf_r+0x106e>
    cbc6:	3408      	adds	r4, #8
    cbc8:	e007      	b.n	cbda <_svfprintf_r+0x107e>
    cbca:	4640      	mov	r0, r8
    cbcc:	4639      	mov	r1, r7
    cbce:	aa33      	add	r2, sp, #204	; 0xcc
    cbd0:	f001 fe0f 	bl	e7f2 <__ssprint_r>
    cbd4:	2800      	cmp	r0, #0
    cbd6:	d130      	bne.n	cc3a <_svfprintf_r+0x10de>
    cbd8:	ac19      	add	r4, sp, #100	; 0x64
    cbda:	3d10      	subs	r5, #16
    cbdc:	2d10      	cmp	r5, #16
    cbde:	9b35      	ldr	r3, [sp, #212]	; 0xd4
    cbe0:	4a1d      	ldr	r2, [pc, #116]	; (cc58 <_svfprintf_r+0x10fc>)
    cbe2:	dce6      	bgt.n	cbb2 <_svfprintf_r+0x1056>
    cbe4:	6065      	str	r5, [r4, #4]
    cbe6:	195d      	adds	r5, r3, r5
    cbe8:	9b34      	ldr	r3, [sp, #208]	; 0xd0
    cbea:	6022      	str	r2, [r4, #0]
    cbec:	3301      	adds	r3, #1
    cbee:	9535      	str	r5, [sp, #212]	; 0xd4
    cbf0:	2b07      	cmp	r3, #7
    cbf2:	9334      	str	r3, [sp, #208]	; 0xd0
    cbf4:	dd05      	ble.n	cc02 <_svfprintf_r+0x10a6>
    cbf6:	4640      	mov	r0, r8
    cbf8:	4639      	mov	r1, r7
    cbfa:	aa33      	add	r2, sp, #204	; 0xcc
    cbfc:	f001 fdf9 	bl	e7f2 <__ssprint_r>
    cc00:	b9d8      	cbnz	r0, cc3a <_svfprintf_r+0x10de>
    cc02:	980f      	ldr	r0, [sp, #60]	; 0x3c
    cc04:	9a0e      	ldr	r2, [sp, #56]	; 0x38
    cc06:	990d      	ldr	r1, [sp, #52]	; 0x34
    cc08:	9b35      	ldr	r3, [sp, #212]	; 0xd4
    cc0a:	428a      	cmp	r2, r1
    cc0c:	bfac      	ite	ge
    cc0e:	1880      	addge	r0, r0, r2
    cc10:	1840      	addlt	r0, r0, r1
    cc12:	900f      	str	r0, [sp, #60]	; 0x3c
    cc14:	b12b      	cbz	r3, cc22 <_svfprintf_r+0x10c6>
    cc16:	4640      	mov	r0, r8
    cc18:	4639      	mov	r1, r7
    cc1a:	aa33      	add	r2, sp, #204	; 0xcc
    cc1c:	f001 fde9 	bl	e7f2 <__ssprint_r>
    cc20:	b958      	cbnz	r0, cc3a <_svfprintf_r+0x10de>
    cc22:	2300      	movs	r3, #0
    cc24:	ac19      	add	r4, sp, #100	; 0x64
    cc26:	9334      	str	r3, [sp, #208]	; 0xd0
    cc28:	f7fe bfc8 	b.w	bbbc <_svfprintf_r+0x60>
    cc2c:	9b35      	ldr	r3, [sp, #212]	; 0xd4
    cc2e:	b123      	cbz	r3, cc3a <_svfprintf_r+0x10de>
    cc30:	4640      	mov	r0, r8
    cc32:	4639      	mov	r1, r7
    cc34:	aa33      	add	r2, sp, #204	; 0xcc
    cc36:	f001 fddc 	bl	e7f2 <__ssprint_r>
    cc3a:	89bb      	ldrh	r3, [r7, #12]
    cc3c:	9d0f      	ldr	r5, [sp, #60]	; 0x3c
    cc3e:	f003 0340 	and.w	r3, r3, #64	; 0x40
    cc42:	2b00      	cmp	r3, #0
    cc44:	bf18      	it	ne
    cc46:	f04f 35ff 	movne.w	r5, #4294967295
    cc4a:	950f      	str	r5, [sp, #60]	; 0x3c
    cc4c:	980f      	ldr	r0, [sp, #60]	; 0x3c
    cc4e:	b03f      	add	sp, #252	; 0xfc
    cc50:	e8bd 8ff0 	ldmia.w	sp!, {r4, r5, r6, r7, r8, r9, sl, fp, pc}
    cc54:	00011368 	.word	0x00011368
    cc58:	00011378 	.word	0x00011378

0000cc5c <__submore>:
    cc5c:	e92d 41f0 	stmdb	sp!, {r4, r5, r6, r7, r8, lr}
    cc60:	460c      	mov	r4, r1
    cc62:	6b49      	ldr	r1, [r1, #52]	; 0x34
    cc64:	f104 0344 	add.w	r3, r4, #68	; 0x44
    cc68:	4299      	cmp	r1, r3
    cc6a:	d118      	bne.n	cc9e <__submore+0x42>
    cc6c:	f44f 7180 	mov.w	r1, #256	; 0x100
    cc70:	f7fc fe2c 	bl	98cc <_malloc_r>
    cc74:	b340      	cbz	r0, ccc8 <__submore+0x6c>
    cc76:	f894 2046 	ldrb.w	r2, [r4, #70]	; 0x46
    cc7a:	f44f 7380 	mov.w	r3, #256	; 0x100
    cc7e:	6360      	str	r0, [r4, #52]	; 0x34
    cc80:	63a3      	str	r3, [r4, #56]	; 0x38
    cc82:	f100 03fd 	add.w	r3, r0, #253	; 0xfd
    cc86:	f880 20ff 	strb.w	r2, [r0, #255]	; 0xff
    cc8a:	f894 2045 	ldrb.w	r2, [r4, #69]	; 0x45
    cc8e:	f880 20fe 	strb.w	r2, [r0, #254]	; 0xfe
    cc92:	f894 2044 	ldrb.w	r2, [r4, #68]	; 0x44
    cc96:	f880 20fd 	strb.w	r2, [r0, #253]	; 0xfd
    cc9a:	6023      	str	r3, [r4, #0]
    cc9c:	e011      	b.n	ccc2 <__submore+0x66>
    cc9e:	6ba6      	ldr	r6, [r4, #56]	; 0x38
    cca0:	0077      	lsls	r7, r6, #1
    cca2:	463a      	mov	r2, r7
    cca4:	f001 fb92 	bl	e3cc <_realloc_r>
    cca8:	4605      	mov	r5, r0
    ccaa:	b188      	cbz	r0, ccd0 <__submore+0x74>
    ccac:	eb00 0806 	add.w	r8, r0, r6
    ccb0:	4629      	mov	r1, r5
    ccb2:	4640      	mov	r0, r8
    ccb4:	4632      	mov	r2, r6
    ccb6:	f7fd f885 	bl	9dc4 <memcpy>
    ccba:	f8c4 8000 	str.w	r8, [r4]
    ccbe:	6365      	str	r5, [r4, #52]	; 0x34
    ccc0:	63a7      	str	r7, [r4, #56]	; 0x38
    ccc2:	2000      	movs	r0, #0
    ccc4:	e8bd 81f0 	ldmia.w	sp!, {r4, r5, r6, r7, r8, pc}
    ccc8:	f04f 30ff 	mov.w	r0, #4294967295
    cccc:	e8bd 81f0 	ldmia.w	sp!, {r4, r5, r6, r7, r8, pc}
    ccd0:	f04f 30ff 	mov.w	r0, #4294967295
    ccd4:	e8bd 81f0 	ldmia.w	sp!, {r4, r5, r6, r7, r8, pc}

0000ccd8 <_ungetc_r>:
    ccd8:	f1b1 3fff 	cmp.w	r1, #4294967295
    ccdc:	b570      	push	{r4, r5, r6, lr}
    ccde:	4605      	mov	r5, r0
    cce0:	460c      	mov	r4, r1
    cce2:	4616      	mov	r6, r2
    cce4:	d06f      	beq.n	cdc6 <_ungetc_r+0xee>
    cce6:	b118      	cbz	r0, ccf0 <_ungetc_r+0x18>
    cce8:	6983      	ldr	r3, [r0, #24]
    ccea:	b90b      	cbnz	r3, ccf0 <_ungetc_r+0x18>
    ccec:	f7fc fad0 	bl	9290 <__sinit>
    ccf0:	4b36      	ldr	r3, [pc, #216]	; (cdcc <_ungetc_r+0xf4>)
    ccf2:	429e      	cmp	r6, r3
    ccf4:	d101      	bne.n	ccfa <_ungetc_r+0x22>
    ccf6:	686e      	ldr	r6, [r5, #4]
    ccf8:	e008      	b.n	cd0c <_ungetc_r+0x34>
    ccfa:	4b35      	ldr	r3, [pc, #212]	; (cdd0 <_ungetc_r+0xf8>)
    ccfc:	429e      	cmp	r6, r3
    ccfe:	d101      	bne.n	cd04 <_ungetc_r+0x2c>
    cd00:	68ae      	ldr	r6, [r5, #8]
    cd02:	e003      	b.n	cd0c <_ungetc_r+0x34>
    cd04:	4b33      	ldr	r3, [pc, #204]	; (cdd4 <_ungetc_r+0xfc>)
    cd06:	429e      	cmp	r6, r3
    cd08:	bf08      	it	eq
    cd0a:	68ee      	ldreq	r6, [r5, #12]
    cd0c:	89b3      	ldrh	r3, [r6, #12]
    cd0e:	f413 5f00 	tst.w	r3, #8192	; 0x2000
    cd12:	d106      	bne.n	cd22 <_ungetc_r+0x4a>
    cd14:	f443 5300 	orr.w	r3, r3, #8192	; 0x2000
    cd18:	81b3      	strh	r3, [r6, #12]
    cd1a:	6e73      	ldr	r3, [r6, #100]	; 0x64
    cd1c:	f423 5300 	bic.w	r3, r3, #8192	; 0x2000
    cd20:	6673      	str	r3, [r6, #100]	; 0x64
    cd22:	89b3      	ldrh	r3, [r6, #12]
    cd24:	f023 0320 	bic.w	r3, r3, #32
    cd28:	041b      	lsls	r3, r3, #16
    cd2a:	0c1b      	lsrs	r3, r3, #16
    cd2c:	81b3      	strh	r3, [r6, #12]
    cd2e:	b29b      	uxth	r3, r3
    cd30:	f013 0f04 	tst.w	r3, #4
    cd34:	d115      	bne.n	cd62 <_ungetc_r+0x8a>
    cd36:	f013 0f10 	tst.w	r3, #16
    cd3a:	d042      	beq.n	cdc2 <_ungetc_r+0xea>
    cd3c:	f013 0f08 	tst.w	r3, #8
    cd40:	d00b      	beq.n	cd5a <_ungetc_r+0x82>
    cd42:	4628      	mov	r0, r5
    cd44:	4631      	mov	r1, r6
    cd46:	f7fc f98f 	bl	9068 <_fflush_r>
    cd4a:	2800      	cmp	r0, #0
    cd4c:	d139      	bne.n	cdc2 <_ungetc_r+0xea>
    cd4e:	89b3      	ldrh	r3, [r6, #12]
    cd50:	60b0      	str	r0, [r6, #8]
    cd52:	f023 0308 	bic.w	r3, r3, #8
    cd56:	61b0      	str	r0, [r6, #24]
    cd58:	81b3      	strh	r3, [r6, #12]
    cd5a:	89b3      	ldrh	r3, [r6, #12]
    cd5c:	f043 0304 	orr.w	r3, r3, #4
    cd60:	81b3      	strh	r3, [r6, #12]
    cd62:	6b73      	ldr	r3, [r6, #52]	; 0x34
    cd64:	b2e4      	uxtb	r4, r4
    cd66:	b173      	cbz	r3, cd86 <_ungetc_r+0xae>
    cd68:	6872      	ldr	r2, [r6, #4]
    cd6a:	6bb3      	ldr	r3, [r6, #56]	; 0x38
    cd6c:	429a      	cmp	r2, r3
    cd6e:	db04      	blt.n	cd7a <_ungetc_r+0xa2>
    cd70:	4628      	mov	r0, r5
    cd72:	4631      	mov	r1, r6
    cd74:	f7ff ff72 	bl	cc5c <__submore>
    cd78:	bb18      	cbnz	r0, cdc2 <_ungetc_r+0xea>
    cd7a:	6833      	ldr	r3, [r6, #0]
    cd7c:	1e5a      	subs	r2, r3, #1
    cd7e:	6032      	str	r2, [r6, #0]
    cd80:	f803 4c01 	strb.w	r4, [r3, #-1]
    cd84:	e00a      	b.n	cd9c <_ungetc_r+0xc4>
    cd86:	6932      	ldr	r2, [r6, #16]
    cd88:	b15a      	cbz	r2, cda2 <_ungetc_r+0xca>
    cd8a:	6833      	ldr	r3, [r6, #0]
    cd8c:	4293      	cmp	r3, r2
    cd8e:	d908      	bls.n	cda2 <_ungetc_r+0xca>
    cd90:	1e5a      	subs	r2, r3, #1
    cd92:	f813 3c01 	ldrb.w	r3, [r3, #-1]
    cd96:	42a3      	cmp	r3, r4
    cd98:	d103      	bne.n	cda2 <_ungetc_r+0xca>
    cd9a:	6032      	str	r2, [r6, #0]
    cd9c:	6873      	ldr	r3, [r6, #4]
    cd9e:	3301      	adds	r3, #1
    cda0:	e00d      	b.n	cdbe <_ungetc_r+0xe6>
    cda2:	6873      	ldr	r3, [r6, #4]
    cda4:	6433      	str	r3, [r6, #64]	; 0x40
    cda6:	6833      	ldr	r3, [r6, #0]
    cda8:	63f3      	str	r3, [r6, #60]	; 0x3c
    cdaa:	f106 0344 	add.w	r3, r6, #68	; 0x44
    cdae:	6373      	str	r3, [r6, #52]	; 0x34
    cdb0:	2303      	movs	r3, #3
    cdb2:	63b3      	str	r3, [r6, #56]	; 0x38
    cdb4:	4633      	mov	r3, r6
    cdb6:	f803 4f46 	strb.w	r4, [r3, #70]!
    cdba:	6033      	str	r3, [r6, #0]
    cdbc:	2301      	movs	r3, #1
    cdbe:	6073      	str	r3, [r6, #4]
    cdc0:	e001      	b.n	cdc6 <_ungetc_r+0xee>
    cdc2:	f04f 34ff 	mov.w	r4, #4294967295
    cdc6:	4620      	mov	r0, r4
    cdc8:	bd70      	pop	{r4, r5, r6, pc}
    cdca:	bf00      	nop
    cdcc:	000111a8 	.word	0x000111a8
    cdd0:	000111c8 	.word	0x000111c8
    cdd4:	000111e8 	.word	0x000111e8

0000cdd8 <ungetc>:
    cdd8:	460a      	mov	r2, r1
    cdda:	4903      	ldr	r1, [pc, #12]	; (cde8 <ungetc+0x10>)
    cddc:	4603      	mov	r3, r0
    cdde:	6808      	ldr	r0, [r1, #0]
    cde0:	4619      	mov	r1, r3
    cde2:	f7ff bf79 	b.w	ccd8 <_ungetc_r>
    cde6:	bf00      	nop
    cde8:	100000f4 	.word	0x100000f4

0000cdec <__sprint_r>:
    cdec:	e92d 4ff8 	stmdb	sp!, {r3, r4, r5, r6, r7, r8, r9, sl, fp, lr}
    cdf0:	4683      	mov	fp, r0
    cdf2:	6893      	ldr	r3, [r2, #8]
    cdf4:	460f      	mov	r7, r1
    cdf6:	4614      	mov	r4, r2
    cdf8:	b91b      	cbnz	r3, ce02 <__sprint_r+0x16>
    cdfa:	6053      	str	r3, [r2, #4]
    cdfc:	4618      	mov	r0, r3
    cdfe:	e8bd 8ff8 	ldmia.w	sp!, {r3, r4, r5, r6, r7, r8, r9, sl, fp, pc}
    ce02:	6e4b      	ldr	r3, [r1, #100]	; 0x64
    ce04:	f413 5f00 	tst.w	r3, #8192	; 0x2000
    ce08:	d023      	beq.n	ce52 <__sprint_r+0x66>
    ce0a:	f8d2 a000 	ldr.w	sl, [r2]
    ce0e:	2500      	movs	r5, #0
    ce10:	e01b      	b.n	ce4a <__sprint_r+0x5e>
    ce12:	eb0a 0305 	add.w	r3, sl, r5
    ce16:	f85a 9005 	ldr.w	r9, [sl, r5]
    ce1a:	2600      	movs	r6, #0
    ce1c:	685b      	ldr	r3, [r3, #4]
    ce1e:	ea4f 0893 	mov.w	r8, r3, lsr #2
    ce22:	e009      	b.n	ce38 <__sprint_r+0x4c>
    ce24:	4658      	mov	r0, fp
    ce26:	f859 1b04 	ldr.w	r1, [r9], #4
    ce2a:	463a      	mov	r2, r7
    ce2c:	f000 fd62 	bl	d8f4 <_fputwc_r>
    ce30:	f1b0 3fff 	cmp.w	r0, #4294967295
    ce34:	d00f      	beq.n	ce56 <__sprint_r+0x6a>
    ce36:	3601      	adds	r6, #1
    ce38:	4546      	cmp	r6, r8
    ce3a:	dbf3      	blt.n	ce24 <__sprint_r+0x38>
    ce3c:	68a3      	ldr	r3, [r4, #8]
    ce3e:	3508      	adds	r5, #8
    ce40:	ea4f 0888 	mov.w	r8, r8, lsl #2
    ce44:	ebc8 0303 	rsb	r3, r8, r3
    ce48:	60a3      	str	r3, [r4, #8]
    ce4a:	68a0      	ldr	r0, [r4, #8]
    ce4c:	2800      	cmp	r0, #0
    ce4e:	d1e0      	bne.n	ce12 <__sprint_r+0x26>
    ce50:	e001      	b.n	ce56 <__sprint_r+0x6a>
    ce52:	f000 fdeb 	bl	da2c <__sfvwrite_r>
    ce56:	2300      	movs	r3, #0
    ce58:	60a3      	str	r3, [r4, #8]
    ce5a:	6063      	str	r3, [r4, #4]
    ce5c:	e8bd 8ff8 	ldmia.w	sp!, {r3, r4, r5, r6, r7, r8, r9, sl, fp, pc}

0000ce60 <_vfiprintf_r>:
    ce60:	e92d 4ff0 	stmdb	sp!, {r4, r5, r6, r7, r8, r9, sl, fp, lr}
    ce64:	460f      	mov	r7, r1
    ce66:	f5ad 7d01 	sub.w	sp, sp, #516	; 0x204
    ce6a:	4615      	mov	r5, r2
    ce6c:	461c      	mov	r4, r3
    ce6e:	4680      	mov	r8, r0
    ce70:	b118      	cbz	r0, ce7a <_vfiprintf_r+0x1a>
    ce72:	6983      	ldr	r3, [r0, #24]
    ce74:	b90b      	cbnz	r3, ce7a <_vfiprintf_r+0x1a>
    ce76:	f7fc fa0b 	bl	9290 <__sinit>
    ce7a:	4b9d      	ldr	r3, [pc, #628]	; (d0f0 <_vfiprintf_r+0x290>)
    ce7c:	429f      	cmp	r7, r3
    ce7e:	d102      	bne.n	ce86 <_vfiprintf_r+0x26>
    ce80:	f8d8 7004 	ldr.w	r7, [r8, #4]
    ce84:	e00a      	b.n	ce9c <_vfiprintf_r+0x3c>
    ce86:	4b9b      	ldr	r3, [pc, #620]	; (d0f4 <_vfiprintf_r+0x294>)
    ce88:	429f      	cmp	r7, r3
    ce8a:	d102      	bne.n	ce92 <_vfiprintf_r+0x32>
    ce8c:	f8d8 7008 	ldr.w	r7, [r8, #8]
    ce90:	e004      	b.n	ce9c <_vfiprintf_r+0x3c>
    ce92:	4b99      	ldr	r3, [pc, #612]	; (d0f8 <_vfiprintf_r+0x298>)
    ce94:	429f      	cmp	r7, r3
    ce96:	bf08      	it	eq
    ce98:	f8d8 700c 	ldreq.w	r7, [r8, #12]
    ce9c:	89bb      	ldrh	r3, [r7, #12]
    ce9e:	f413 5f00 	tst.w	r3, #8192	; 0x2000
    cea2:	d106      	bne.n	ceb2 <_vfiprintf_r+0x52>
    cea4:	f443 5300 	orr.w	r3, r3, #8192	; 0x2000
    cea8:	81bb      	strh	r3, [r7, #12]
    ceaa:	6e7b      	ldr	r3, [r7, #100]	; 0x64
    ceac:	f423 5300 	bic.w	r3, r3, #8192	; 0x2000
    ceb0:	667b      	str	r3, [r7, #100]	; 0x64
    ceb2:	89bb      	ldrh	r3, [r7, #12]
    ceb4:	f013 0f08 	tst.w	r3, #8
    ceb8:	d001      	beq.n	cebe <_vfiprintf_r+0x5e>
    ceba:	693b      	ldr	r3, [r7, #16]
    cebc:	b933      	cbnz	r3, cecc <_vfiprintf_r+0x6c>
    cebe:	4640      	mov	r0, r8
    cec0:	4639      	mov	r1, r7
    cec2:	f7fb f9cb 	bl	825c <__swsetup_r>
    cec6:	2800      	cmp	r0, #0
    cec8:	f040 844c 	bne.w	d764 <_vfiprintf_r+0x904>
    cecc:	89ba      	ldrh	r2, [r7, #12]
    cece:	f002 031a 	and.w	r3, r2, #26
    ced2:	2b0a      	cmp	r3, #10
    ced4:	d137      	bne.n	cf46 <_vfiprintf_r+0xe6>
    ced6:	89fb      	ldrh	r3, [r7, #14]
    ced8:	f413 4f00 	tst.w	r3, #32768	; 0x8000
    cedc:	d133      	bne.n	cf46 <_vfiprintf_r+0xe6>
    cede:	f8ad 312e 	strh.w	r3, [sp, #302]	; 0x12e
    cee2:	f022 0202 	bic.w	r2, r2, #2
    cee6:	6a3b      	ldr	r3, [r7, #32]
    cee8:	a908      	add	r1, sp, #32
    ceea:	f8ad 212c 	strh.w	r2, [sp, #300]	; 0x12c
    ceee:	4640      	mov	r0, r8
    cef0:	6e7a      	ldr	r2, [r7, #100]	; 0x64
    cef2:	9350      	str	r3, [sp, #320]	; 0x140
    cef4:	6abb      	ldr	r3, [r7, #40]	; 0x28
    cef6:	9261      	str	r2, [sp, #388]	; 0x184
    cef8:	462a      	mov	r2, r5
    cefa:	9148      	str	r1, [sp, #288]	; 0x120
    cefc:	9352      	str	r3, [sp, #328]	; 0x148
    cefe:	f44f 7380 	mov.w	r3, #256	; 0x100
    cf02:	914c      	str	r1, [sp, #304]	; 0x130
    cf04:	a948      	add	r1, sp, #288	; 0x120
    cf06:	934a      	str	r3, [sp, #296]	; 0x128
    cf08:	934d      	str	r3, [sp, #308]	; 0x134
    cf0a:	2300      	movs	r3, #0
    cf0c:	934e      	str	r3, [sp, #312]	; 0x138
    cf0e:	4623      	mov	r3, r4
    cf10:	f7ff ffa6 	bl	ce60 <_vfiprintf_r>
    cf14:	2800      	cmp	r0, #0
    cf16:	9003      	str	r0, [sp, #12]
    cf18:	db09      	blt.n	cf2e <_vfiprintf_r+0xce>
    cf1a:	4640      	mov	r0, r8
    cf1c:	a948      	add	r1, sp, #288	; 0x120
    cf1e:	f7fc f8a3 	bl	9068 <_fflush_r>
    cf22:	9a03      	ldr	r2, [sp, #12]
    cf24:	2800      	cmp	r0, #0
    cf26:	bf18      	it	ne
    cf28:	f04f 32ff 	movne.w	r2, #4294967295
    cf2c:	9203      	str	r2, [sp, #12]
    cf2e:	f8bd 312c 	ldrh.w	r3, [sp, #300]	; 0x12c
    cf32:	f013 0f40 	tst.w	r3, #64	; 0x40
    cf36:	f000 8418 	beq.w	d76a <_vfiprintf_r+0x90a>
    cf3a:	89bb      	ldrh	r3, [r7, #12]
    cf3c:	f043 0340 	orr.w	r3, r3, #64	; 0x40
    cf40:	81bb      	strh	r3, [r7, #12]
    cf42:	f000 bc12 	b.w	d76a <_vfiprintf_r+0x90a>
    cf46:	46c3      	mov	fp, r8
    cf48:	46ba      	mov	sl, r7
    cf4a:	2300      	movs	r3, #0
    cf4c:	ae62      	add	r6, sp, #392	; 0x188
    cf4e:	937e      	str	r3, [sp, #504]	; 0x1f8
    cf50:	967c      	str	r6, [sp, #496]	; 0x1f0
    cf52:	937d      	str	r3, [sp, #500]	; 0x1f4
    cf54:	9501      	str	r5, [sp, #4]
    cf56:	9305      	str	r3, [sp, #20]
    cf58:	9303      	str	r3, [sp, #12]
    cf5a:	9b01      	ldr	r3, [sp, #4]
    cf5c:	461f      	mov	r7, r3
    cf5e:	f813 2b01 	ldrb.w	r2, [r3], #1
    cf62:	b10a      	cbz	r2, cf68 <_vfiprintf_r+0x108>
    cf64:	2a25      	cmp	r2, #37	; 0x25
    cf66:	d1f9      	bne.n	cf5c <_vfiprintf_r+0xfc>
    cf68:	9b01      	ldr	r3, [sp, #4]
    cf6a:	1afd      	subs	r5, r7, r3
    cf6c:	d017      	beq.n	cf9e <_vfiprintf_r+0x13e>
    cf6e:	6033      	str	r3, [r6, #0]
    cf70:	9b7e      	ldr	r3, [sp, #504]	; 0x1f8
    cf72:	6075      	str	r5, [r6, #4]
    cf74:	195b      	adds	r3, r3, r5
    cf76:	937e      	str	r3, [sp, #504]	; 0x1f8
    cf78:	9b7d      	ldr	r3, [sp, #500]	; 0x1f4
    cf7a:	3301      	adds	r3, #1
    cf7c:	937d      	str	r3, [sp, #500]	; 0x1f4
    cf7e:	2b07      	cmp	r3, #7
    cf80:	dc01      	bgt.n	cf86 <_vfiprintf_r+0x126>
    cf82:	3608      	adds	r6, #8
    cf84:	e008      	b.n	cf98 <_vfiprintf_r+0x138>
    cf86:	4658      	mov	r0, fp
    cf88:	4651      	mov	r1, sl
    cf8a:	aa7c      	add	r2, sp, #496	; 0x1f0
    cf8c:	f7ff ff2e 	bl	cdec <__sprint_r>
    cf90:	2800      	cmp	r0, #0
    cf92:	f040 83dc 	bne.w	d74e <_vfiprintf_r+0x8ee>
    cf96:	ae62      	add	r6, sp, #392	; 0x188
    cf98:	9903      	ldr	r1, [sp, #12]
    cf9a:	1949      	adds	r1, r1, r5
    cf9c:	9103      	str	r1, [sp, #12]
    cf9e:	783b      	ldrb	r3, [r7, #0]
    cfa0:	2b00      	cmp	r3, #0
    cfa2:	f000 83cb 	beq.w	d73c <_vfiprintf_r+0x8dc>
    cfa6:	2300      	movs	r3, #0
    cfa8:	3701      	adds	r7, #1
    cfaa:	f88d 31ff 	strb.w	r3, [sp, #511]	; 0x1ff
    cfae:	f04f 3cff 	mov.w	ip, #4294967295
    cfb2:	9701      	str	r7, [sp, #4]
    cfb4:	461d      	mov	r5, r3
    cfb6:	9302      	str	r3, [sp, #8]
    cfb8:	463a      	mov	r2, r7
    cfba:	4619      	mov	r1, r3
    cfbc:	e005      	b.n	cfca <_vfiprintf_r+0x16a>
    cfbe:	461c      	mov	r4, r3
    cfc0:	e003      	b.n	cfca <_vfiprintf_r+0x16a>
    cfc2:	461c      	mov	r4, r3
    cfc4:	4602      	mov	r2, r0
    cfc6:	f04f 3cff 	mov.w	ip, #4294967295
    cfca:	f812 3b01 	ldrb.w	r3, [r2], #1
    cfce:	2b63      	cmp	r3, #99	; 0x63
    cfd0:	f000 80b0 	beq.w	d134 <_vfiprintf_r+0x2d4>
    cfd4:	dc28      	bgt.n	d028 <_vfiprintf_r+0x1c8>
    cfd6:	2b39      	cmp	r3, #57	; 0x39
    cfd8:	dc15      	bgt.n	d006 <_vfiprintf_r+0x1a6>
    cfda:	2b31      	cmp	r3, #49	; 0x31
    cfdc:	f280 808e 	bge.w	d0fc <_vfiprintf_r+0x29c>
    cfe0:	2b2b      	cmp	r3, #43	; 0x2b
    cfe2:	d05e      	beq.n	d0a2 <_vfiprintf_r+0x242>
    cfe4:	dc07      	bgt.n	cff6 <_vfiprintf_r+0x196>
    cfe6:	2b23      	cmp	r3, #35	; 0x23
    cfe8:	d04f      	beq.n	d08a <_vfiprintf_r+0x22a>
    cfea:	2b2a      	cmp	r3, #42	; 0x2a
    cfec:	d050      	beq.n	d090 <_vfiprintf_r+0x230>
    cfee:	2b20      	cmp	r3, #32
    cff0:	f040 822e 	bne.w	d450 <_vfiprintf_r+0x5f0>
    cff4:	e043      	b.n	d07e <_vfiprintf_r+0x21e>
    cff6:	2b2e      	cmp	r3, #46	; 0x2e
    cff8:	d056      	beq.n	d0a8 <_vfiprintf_r+0x248>
    cffa:	2b30      	cmp	r3, #48	; 0x30
    cffc:	d074      	beq.n	d0e8 <_vfiprintf_r+0x288>
    cffe:	2b2d      	cmp	r3, #45	; 0x2d
    d000:	f040 8226 	bne.w	d450 <_vfiprintf_r+0x5f0>
    d004:	e04a      	b.n	d09c <_vfiprintf_r+0x23c>
    d006:	2b4f      	cmp	r3, #79	; 0x4f
    d008:	9201      	str	r2, [sp, #4]
    d00a:	9102      	str	r1, [sp, #8]
    d00c:	f000 80ef 	beq.w	d1ee <_vfiprintf_r+0x38e>
    d010:	dc03      	bgt.n	d01a <_vfiprintf_r+0x1ba>
    d012:	2b44      	cmp	r3, #68	; 0x44
    d014:	f040 821e 	bne.w	d454 <_vfiprintf_r+0x5f4>
    d018:	e097      	b.n	d14a <_vfiprintf_r+0x2ea>
    d01a:	2b55      	cmp	r3, #85	; 0x55
    d01c:	f000 8144 	beq.w	d2a8 <_vfiprintf_r+0x448>
    d020:	2b58      	cmp	r3, #88	; 0x58
    d022:	f040 8217 	bne.w	d454 <_vfiprintf_r+0x5f4>
    d026:	e163      	b.n	d2f0 <_vfiprintf_r+0x490>
    d028:	2b6f      	cmp	r3, #111	; 0x6f
    d02a:	f000 80e3 	beq.w	d1f4 <_vfiprintf_r+0x394>
    d02e:	dc12      	bgt.n	d056 <_vfiprintf_r+0x1f6>
    d030:	2b69      	cmp	r3, #105	; 0x69
    d032:	f000 808d 	beq.w	d150 <_vfiprintf_r+0x2f0>
    d036:	dc06      	bgt.n	d046 <_vfiprintf_r+0x1e6>
    d038:	2b64      	cmp	r3, #100	; 0x64
    d03a:	f000 8089 	beq.w	d150 <_vfiprintf_r+0x2f0>
    d03e:	2b68      	cmp	r3, #104	; 0x68
    d040:	f040 8206 	bne.w	d450 <_vfiprintf_r+0x5f0>
    d044:	e068      	b.n	d118 <_vfiprintf_r+0x2b8>
    d046:	2b6c      	cmp	r3, #108	; 0x6c
    d048:	d069      	beq.n	d11e <_vfiprintf_r+0x2be>
    d04a:	2b6e      	cmp	r3, #110	; 0x6e
    d04c:	9201      	str	r2, [sp, #4]
    d04e:	9102      	str	r1, [sp, #8]
    d050:	f040 8200 	bne.w	d454 <_vfiprintf_r+0x5f4>
    d054:	e0ab      	b.n	d1ae <_vfiprintf_r+0x34e>
    d056:	2b73      	cmp	r3, #115	; 0x73
    d058:	f000 8104 	beq.w	d264 <_vfiprintf_r+0x404>
    d05c:	dc06      	bgt.n	d06c <_vfiprintf_r+0x20c>
    d05e:	2b70      	cmp	r3, #112	; 0x70
    d060:	f000 80ee 	beq.w	d240 <_vfiprintf_r+0x3e0>
    d064:	2b71      	cmp	r3, #113	; 0x71
    d066:	f040 81f3 	bne.w	d450 <_vfiprintf_r+0x5f0>
    d06a:	e060      	b.n	d12e <_vfiprintf_r+0x2ce>
    d06c:	2b75      	cmp	r3, #117	; 0x75
    d06e:	9201      	str	r2, [sp, #4]
    d070:	9102      	str	r1, [sp, #8]
    d072:	f000 811b 	beq.w	d2ac <_vfiprintf_r+0x44c>
    d076:	2b78      	cmp	r3, #120	; 0x78
    d078:	f040 81ec 	bne.w	d454 <_vfiprintf_r+0x5f4>
    d07c:	e135      	b.n	d2ea <_vfiprintf_r+0x48a>
    d07e:	f89d 31ff 	ldrb.w	r3, [sp, #511]	; 0x1ff
    d082:	2b00      	cmp	r3, #0
    d084:	d1a1      	bne.n	cfca <_vfiprintf_r+0x16a>
    d086:	3320      	adds	r3, #32
    d088:	e00b      	b.n	d0a2 <_vfiprintf_r+0x242>
    d08a:	f045 0501 	orr.w	r5, r5, #1
    d08e:	e79c      	b.n	cfca <_vfiprintf_r+0x16a>
    d090:	6821      	ldr	r1, [r4, #0]
    d092:	1d23      	adds	r3, r4, #4
    d094:	2900      	cmp	r1, #0
    d096:	da92      	bge.n	cfbe <_vfiprintf_r+0x15e>
    d098:	4249      	negs	r1, r1
    d09a:	461c      	mov	r4, r3
    d09c:	f045 0504 	orr.w	r5, r5, #4
    d0a0:	e793      	b.n	cfca <_vfiprintf_r+0x16a>
    d0a2:	f88d 31ff 	strb.w	r3, [sp, #511]	; 0x1ff
    d0a6:	e790      	b.n	cfca <_vfiprintf_r+0x16a>
    d0a8:	4610      	mov	r0, r2
    d0aa:	f810 3b01 	ldrb.w	r3, [r0], #1
    d0ae:	2b2a      	cmp	r3, #42	; 0x2a
    d0b0:	d003      	beq.n	d0ba <_vfiprintf_r+0x25a>
    d0b2:	4610      	mov	r0, r2
    d0b4:	f04f 0c00 	mov.w	ip, #0
    d0b8:	e00e      	b.n	d0d8 <_vfiprintf_r+0x278>
    d0ba:	f8d4 c000 	ldr.w	ip, [r4]
    d0be:	1d23      	adds	r3, r4, #4
    d0c0:	f1bc 0f00 	cmp.w	ip, #0
    d0c4:	f6ff af7d 	blt.w	cfc2 <_vfiprintf_r+0x162>
    d0c8:	461c      	mov	r4, r3
    d0ca:	4602      	mov	r2, r0
    d0cc:	e77d      	b.n	cfca <_vfiprintf_r+0x16a>
    d0ce:	230a      	movs	r3, #10
    d0d0:	fb03 7c0c 	mla	ip, r3, ip, r7
    d0d4:	7843      	ldrb	r3, [r0, #1]
    d0d6:	4610      	mov	r0, r2
    d0d8:	f1a3 0730 	sub.w	r7, r3, #48	; 0x30
    d0dc:	3201      	adds	r2, #1
    d0de:	2f09      	cmp	r7, #9
    d0e0:	d9f5      	bls.n	d0ce <_vfiprintf_r+0x26e>
    d0e2:	ea4c 7cec 	orr.w	ip, ip, ip, asr #31
    d0e6:	e772      	b.n	cfce <_vfiprintf_r+0x16e>
    d0e8:	f045 0580 	orr.w	r5, r5, #128	; 0x80
    d0ec:	e76d      	b.n	cfca <_vfiprintf_r+0x16a>
    d0ee:	bf00      	nop
    d0f0:	000111a8 	.word	0x000111a8
    d0f4:	000111c8 	.word	0x000111c8
    d0f8:	000111e8 	.word	0x000111e8
    d0fc:	4610      	mov	r0, r2
    d0fe:	2100      	movs	r1, #0
    d100:	3b30      	subs	r3, #48	; 0x30
    d102:	220a      	movs	r2, #10
    d104:	fb02 3101 	mla	r1, r2, r1, r3
    d108:	f810 3b01 	ldrb.w	r3, [r0], #1
    d10c:	f1a3 0730 	sub.w	r7, r3, #48	; 0x30
    d110:	4602      	mov	r2, r0
    d112:	2f09      	cmp	r7, #9
    d114:	d9f4      	bls.n	d100 <_vfiprintf_r+0x2a0>
    d116:	e75a      	b.n	cfce <_vfiprintf_r+0x16e>
    d118:	f045 0540 	orr.w	r5, r5, #64	; 0x40
    d11c:	e755      	b.n	cfca <_vfiprintf_r+0x16a>
    d11e:	7813      	ldrb	r3, [r2, #0]
    d120:	2b6c      	cmp	r3, #108	; 0x6c
    d122:	d101      	bne.n	d128 <_vfiprintf_r+0x2c8>
    d124:	3201      	adds	r2, #1
    d126:	e002      	b.n	d12e <_vfiprintf_r+0x2ce>
    d128:	f045 0510 	orr.w	r5, r5, #16
    d12c:	e74d      	b.n	cfca <_vfiprintf_r+0x16a>
    d12e:	f045 0520 	orr.w	r5, r5, #32
    d132:	e74a      	b.n	cfca <_vfiprintf_r+0x16a>
    d134:	6823      	ldr	r3, [r4, #0]
    d136:	f04f 0900 	mov.w	r9, #0
    d13a:	9201      	str	r2, [sp, #4]
    d13c:	3404      	adds	r4, #4
    d13e:	9102      	str	r1, [sp, #8]
    d140:	f88d 31c8 	strb.w	r3, [sp, #456]	; 0x1c8
    d144:	f88d 91ff 	strb.w	r9, [sp, #511]	; 0x1ff
    d148:	e18d      	b.n	d466 <_vfiprintf_r+0x606>
    d14a:	f045 0510 	orr.w	r5, r5, #16
    d14e:	e001      	b.n	d154 <_vfiprintf_r+0x2f4>
    d150:	9201      	str	r2, [sp, #4]
    d152:	9102      	str	r1, [sp, #8]
    d154:	f015 0f20 	tst.w	r5, #32
    d158:	d007      	beq.n	d16a <_vfiprintf_r+0x30a>
    d15a:	3407      	adds	r4, #7
    d15c:	f024 0307 	bic.w	r3, r4, #7
    d160:	f103 0408 	add.w	r4, r3, #8
    d164:	e9d3 8900 	ldrd	r8, r9, [r3]
    d168:	e013      	b.n	d192 <_vfiprintf_r+0x332>
    d16a:	f015 0f10 	tst.w	r5, #16
    d16e:	f104 0304 	add.w	r3, r4, #4
    d172:	d001      	beq.n	d178 <_vfiprintf_r+0x318>
    d174:	6822      	ldr	r2, [r4, #0]
    d176:	e008      	b.n	d18a <_vfiprintf_r+0x32a>
    d178:	f015 0f40 	tst.w	r5, #64	; 0x40
    d17c:	6822      	ldr	r2, [r4, #0]
    d17e:	d004      	beq.n	d18a <_vfiprintf_r+0x32a>
    d180:	fa0f f882 	sxth.w	r8, r2
    d184:	ea4f 79e8 	mov.w	r9, r8, asr #31
    d188:	e002      	b.n	d190 <_vfiprintf_r+0x330>
    d18a:	4690      	mov	r8, r2
    d18c:	ea4f 79e2 	mov.w	r9, r2, asr #31
    d190:	461c      	mov	r4, r3
    d192:	f1b8 0f00 	cmp.w	r8, #0
    d196:	f179 0200 	sbcs.w	r2, r9, #0
    d19a:	f280 80dc 	bge.w	d356 <_vfiprintf_r+0x4f6>
    d19e:	232d      	movs	r3, #45	; 0x2d
    d1a0:	f1d8 0800 	rsbs	r8, r8, #0
    d1a4:	eb69 0949 	sbc.w	r9, r9, r9, lsl #1
    d1a8:	f88d 31ff 	strb.w	r3, [sp, #511]	; 0x1ff
    d1ac:	e0d3      	b.n	d356 <_vfiprintf_r+0x4f6>
    d1ae:	f015 0f20 	tst.w	r5, #32
    d1b2:	f104 0104 	add.w	r1, r4, #4
    d1b6:	d006      	beq.n	d1c6 <_vfiprintf_r+0x366>
    d1b8:	6820      	ldr	r0, [r4, #0]
    d1ba:	9c03      	ldr	r4, [sp, #12]
    d1bc:	4622      	mov	r2, r4
    d1be:	17e3      	asrs	r3, r4, #31
    d1c0:	e9c0 2300 	strd	r2, r3, [r0]
    d1c4:	e005      	b.n	d1d2 <_vfiprintf_r+0x372>
    d1c6:	f015 0f10 	tst.w	r5, #16
    d1ca:	d004      	beq.n	d1d6 <_vfiprintf_r+0x376>
    d1cc:	6823      	ldr	r3, [r4, #0]
    d1ce:	9a03      	ldr	r2, [sp, #12]
    d1d0:	601a      	str	r2, [r3, #0]
    d1d2:	460c      	mov	r4, r1
    d1d4:	e6c1      	b.n	cf5a <_vfiprintf_r+0xfa>
    d1d6:	f015 0f40 	tst.w	r5, #64	; 0x40
    d1da:	6822      	ldr	r2, [r4, #0]
    d1dc:	f104 0304 	add.w	r3, r4, #4
    d1e0:	bf0b      	itete	eq
    d1e2:	9903      	ldreq	r1, [sp, #12]
    d1e4:	9c03      	ldrne	r4, [sp, #12]
    d1e6:	6011      	streq	r1, [r2, #0]
    d1e8:	8014      	strhne	r4, [r2, #0]
    d1ea:	461c      	mov	r4, r3
    d1ec:	e6b5      	b.n	cf5a <_vfiprintf_r+0xfa>
    d1ee:	f045 0510 	orr.w	r5, r5, #16
    d1f2:	e001      	b.n	d1f8 <_vfiprintf_r+0x398>
    d1f4:	9201      	str	r2, [sp, #4]
    d1f6:	9102      	str	r1, [sp, #8]
    d1f8:	f015 0220 	ands.w	r2, r5, #32
    d1fc:	d008      	beq.n	d210 <_vfiprintf_r+0x3b0>
    d1fe:	3407      	adds	r4, #7
    d200:	2200      	movs	r2, #0
    d202:	f024 0307 	bic.w	r3, r4, #7
    d206:	f103 0408 	add.w	r4, r3, #8
    d20a:	e9d3 8900 	ldrd	r8, r9, [r3]
    d20e:	e09e      	b.n	d34e <_vfiprintf_r+0x4ee>
    d210:	f015 0110 	ands.w	r1, r5, #16
    d214:	f104 0304 	add.w	r3, r4, #4
    d218:	d002      	beq.n	d220 <_vfiprintf_r+0x3c0>
    d21a:	6821      	ldr	r1, [r4, #0]
    d21c:	4688      	mov	r8, r1
    d21e:	e00b      	b.n	d238 <_vfiprintf_r+0x3d8>
    d220:	f015 0240 	ands.w	r2, r5, #64	; 0x40
    d224:	6820      	ldr	r0, [r4, #0]
    d226:	d006      	beq.n	d236 <_vfiprintf_r+0x3d6>
    d228:	fa1f f880 	uxth.w	r8, r0
    d22c:	f04f 0900 	mov.w	r9, #0
    d230:	461c      	mov	r4, r3
    d232:	460a      	mov	r2, r1
    d234:	e08b      	b.n	d34e <_vfiprintf_r+0x4ee>
    d236:	4680      	mov	r8, r0
    d238:	f04f 0900 	mov.w	r9, #0
    d23c:	461c      	mov	r4, r3
    d23e:	e086      	b.n	d34e <_vfiprintf_r+0x4ee>
    d240:	6823      	ldr	r3, [r4, #0]
    d242:	f04f 0900 	mov.w	r9, #0
    d246:	9201      	str	r2, [sp, #4]
    d248:	f045 0502 	orr.w	r5, r5, #2
    d24c:	4aa3      	ldr	r2, [pc, #652]	; (d4dc <_vfiprintf_r+0x67c>)
    d24e:	4698      	mov	r8, r3
    d250:	2330      	movs	r3, #48	; 0x30
    d252:	9102      	str	r1, [sp, #8]
    d254:	f88d 31fc 	strb.w	r3, [sp, #508]	; 0x1fc
    d258:	3404      	adds	r4, #4
    d25a:	3348      	adds	r3, #72	; 0x48
    d25c:	9205      	str	r2, [sp, #20]
    d25e:	f88d 31fd 	strb.w	r3, [sp, #509]	; 0x1fd
    d262:	e073      	b.n	d34c <_vfiprintf_r+0x4ec>
    d264:	f04f 0900 	mov.w	r9, #0
    d268:	4623      	mov	r3, r4
    d26a:	3404      	adds	r4, #4
    d26c:	45cc      	cmp	ip, r9
    d26e:	f88d 91ff 	strb.w	r9, [sp, #511]	; 0x1ff
    d272:	9201      	str	r2, [sp, #4]
    d274:	9102      	str	r1, [sp, #8]
    d276:	681f      	ldr	r7, [r3, #0]
    d278:	db11      	blt.n	d29e <_vfiprintf_r+0x43e>
    d27a:	4662      	mov	r2, ip
    d27c:	4638      	mov	r0, r7
    d27e:	4649      	mov	r1, r9
    d280:	f8cd c000 	str.w	ip, [sp]
    d284:	f7fc fd90 	bl	9da8 <memchr>
    d288:	f8dd c000 	ldr.w	ip, [sp]
    d28c:	2800      	cmp	r0, #0
    d28e:	f000 80ee 	beq.w	d46e <_vfiprintf_r+0x60e>
    d292:	ebc7 0800 	rsb	r8, r7, r0
    d296:	45e0      	cmp	r8, ip
    d298:	f300 80ec 	bgt.w	d474 <_vfiprintf_r+0x614>
    d29c:	e0eb      	b.n	d476 <_vfiprintf_r+0x616>
    d29e:	4638      	mov	r0, r7
    d2a0:	f7fd fb66 	bl	a970 <strlen>
    d2a4:	4680      	mov	r8, r0
    d2a6:	e0e6      	b.n	d476 <_vfiprintf_r+0x616>
    d2a8:	f045 0510 	orr.w	r5, r5, #16
    d2ac:	f015 0f20 	tst.w	r5, #32
    d2b0:	d007      	beq.n	d2c2 <_vfiprintf_r+0x462>
    d2b2:	3407      	adds	r4, #7
    d2b4:	f024 0307 	bic.w	r3, r4, #7
    d2b8:	f103 0408 	add.w	r4, r3, #8
    d2bc:	e9d3 8900 	ldrd	r8, r9, [r3]
    d2c0:	e011      	b.n	d2e6 <_vfiprintf_r+0x486>
    d2c2:	f015 0f10 	tst.w	r5, #16
    d2c6:	f104 0304 	add.w	r3, r4, #4
    d2ca:	d001      	beq.n	d2d0 <_vfiprintf_r+0x470>
    d2cc:	6822      	ldr	r2, [r4, #0]
    d2ce:	e006      	b.n	d2de <_vfiprintf_r+0x47e>
    d2d0:	f015 0f40 	tst.w	r5, #64	; 0x40
    d2d4:	6822      	ldr	r2, [r4, #0]
    d2d6:	d002      	beq.n	d2de <_vfiprintf_r+0x47e>
    d2d8:	fa1f f882 	uxth.w	r8, r2
    d2dc:	e000      	b.n	d2e0 <_vfiprintf_r+0x480>
    d2de:	4690      	mov	r8, r2
    d2e0:	f04f 0900 	mov.w	r9, #0
    d2e4:	461c      	mov	r4, r3
    d2e6:	2201      	movs	r2, #1
    d2e8:	e031      	b.n	d34e <_vfiprintf_r+0x4ee>
    d2ea:	497c      	ldr	r1, [pc, #496]	; (d4dc <_vfiprintf_r+0x67c>)
    d2ec:	9105      	str	r1, [sp, #20]
    d2ee:	e001      	b.n	d2f4 <_vfiprintf_r+0x494>
    d2f0:	4a7b      	ldr	r2, [pc, #492]	; (d4e0 <_vfiprintf_r+0x680>)
    d2f2:	9205      	str	r2, [sp, #20]
    d2f4:	f015 0f20 	tst.w	r5, #32
    d2f8:	d007      	beq.n	d30a <_vfiprintf_r+0x4aa>
    d2fa:	3407      	adds	r4, #7
    d2fc:	f024 0207 	bic.w	r2, r4, #7
    d300:	f102 0408 	add.w	r4, r2, #8
    d304:	e9d2 8900 	ldrd	r8, r9, [r2]
    d308:	e011      	b.n	d32e <_vfiprintf_r+0x4ce>
    d30a:	f015 0f10 	tst.w	r5, #16
    d30e:	f104 0204 	add.w	r2, r4, #4
    d312:	d001      	beq.n	d318 <_vfiprintf_r+0x4b8>
    d314:	6821      	ldr	r1, [r4, #0]
    d316:	e006      	b.n	d326 <_vfiprintf_r+0x4c6>
    d318:	f015 0f40 	tst.w	r5, #64	; 0x40
    d31c:	6821      	ldr	r1, [r4, #0]
    d31e:	d002      	beq.n	d326 <_vfiprintf_r+0x4c6>
    d320:	fa1f f881 	uxth.w	r8, r1
    d324:	e000      	b.n	d328 <_vfiprintf_r+0x4c8>
    d326:	4688      	mov	r8, r1
    d328:	f04f 0900 	mov.w	r9, #0
    d32c:	4614      	mov	r4, r2
    d32e:	f015 0f01 	tst.w	r5, #1
    d332:	d00b      	beq.n	d34c <_vfiprintf_r+0x4ec>
    d334:	ea58 0109 	orrs.w	r1, r8, r9
    d338:	d008      	beq.n	d34c <_vfiprintf_r+0x4ec>
    d33a:	2230      	movs	r2, #48	; 0x30
    d33c:	f88d 31fd 	strb.w	r3, [sp, #509]	; 0x1fd
    d340:	f88d 21fc 	strb.w	r2, [sp, #508]	; 0x1fc
    d344:	f045 0502 	orr.w	r5, r5, #2
    d348:	3a2e      	subs	r2, #46	; 0x2e
    d34a:	e000      	b.n	d34e <_vfiprintf_r+0x4ee>
    d34c:	2202      	movs	r2, #2
    d34e:	2300      	movs	r3, #0
    d350:	f88d 31ff 	strb.w	r3, [sp, #511]	; 0x1ff
    d354:	e000      	b.n	d358 <_vfiprintf_r+0x4f8>
    d356:	2201      	movs	r2, #1
    d358:	f1bc 0f00 	cmp.w	ip, #0
    d35c:	bfa8      	it	ge
    d35e:	f025 0580 	bicge.w	r5, r5, #128	; 0x80
    d362:	ea58 0309 	orrs.w	r3, r8, r9
    d366:	d102      	bne.n	d36e <_vfiprintf_r+0x50e>
    d368:	f1bc 0f00 	cmp.w	ip, #0
    d36c:	d060      	beq.n	d430 <_vfiprintf_r+0x5d0>
    d36e:	2a01      	cmp	r2, #1
    d370:	d01e      	beq.n	d3b0 <_vfiprintf_r+0x550>
    d372:	2a02      	cmp	r2, #2
    d374:	d047      	beq.n	d406 <_vfiprintf_r+0x5a6>
    d376:	ab7b      	add	r3, sp, #492	; 0x1ec
    d378:	3303      	adds	r3, #3
    d37a:	ea4f 01d8 	mov.w	r1, r8, lsr #3
    d37e:	f008 0207 	and.w	r2, r8, #7
    d382:	ea41 7049 	orr.w	r0, r1, r9, lsl #29
    d386:	ea4f 01d9 	mov.w	r1, r9, lsr #3
    d38a:	4680      	mov	r8, r0
    d38c:	4689      	mov	r9, r1
    d38e:	3230      	adds	r2, #48	; 0x30
    d390:	461f      	mov	r7, r3
    d392:	701a      	strb	r2, [r3, #0]
    d394:	3b01      	subs	r3, #1
    d396:	9104      	str	r1, [sp, #16]
    d398:	ea58 0109 	orrs.w	r1, r8, r9
    d39c:	d1ed      	bne.n	d37a <_vfiprintf_r+0x51a>
    d39e:	f015 0f01 	tst.w	r5, #1
    d3a2:	d04f      	beq.n	d444 <_vfiprintf_r+0x5e4>
    d3a4:	2a30      	cmp	r2, #48	; 0x30
    d3a6:	d04d      	beq.n	d444 <_vfiprintf_r+0x5e4>
    d3a8:	461f      	mov	r7, r3
    d3aa:	2330      	movs	r3, #48	; 0x30
    d3ac:	703b      	strb	r3, [r7, #0]
    d3ae:	e049      	b.n	d444 <_vfiprintf_r+0x5e4>
    d3b0:	f1b8 0f0a 	cmp.w	r8, #10
    d3b4:	f179 0200 	sbcs.w	r2, r9, #0
    d3b8:	d206      	bcs.n	d3c8 <_vfiprintf_r+0x568>
    d3ba:	af7b      	add	r7, sp, #492	; 0x1ec
    d3bc:	f108 0830 	add.w	r8, r8, #48	; 0x30
    d3c0:	3703      	adds	r7, #3
    d3c2:	f88d 81ef 	strb.w	r8, [sp, #495]	; 0x1ef
    d3c6:	e03d      	b.n	d444 <_vfiprintf_r+0x5e4>
    d3c8:	ab7b      	add	r3, sp, #492	; 0x1ec
    d3ca:	3303      	adds	r3, #3
    d3cc:	9304      	str	r3, [sp, #16]
    d3ce:	4640      	mov	r0, r8
    d3d0:	4649      	mov	r1, r9
    d3d2:	220a      	movs	r2, #10
    d3d4:	2300      	movs	r3, #0
    d3d6:	f8cd c000 	str.w	ip, [sp]
    d3da:	f003 fa95 	bl	10908 <__aeabi_uldivmod>
    d3de:	9904      	ldr	r1, [sp, #16]
    d3e0:	4640      	mov	r0, r8
    d3e2:	9f04      	ldr	r7, [sp, #16]
    d3e4:	2300      	movs	r3, #0
    d3e6:	3230      	adds	r2, #48	; 0x30
    d3e8:	f801 2901 	strb.w	r2, [r1], #-1
    d3ec:	220a      	movs	r2, #10
    d3ee:	9104      	str	r1, [sp, #16]
    d3f0:	4649      	mov	r1, r9
    d3f2:	f003 fa89 	bl	10908 <__aeabi_uldivmod>
    d3f6:	f8dd c000 	ldr.w	ip, [sp]
    d3fa:	4680      	mov	r8, r0
    d3fc:	4689      	mov	r9, r1
    d3fe:	ea58 0209 	orrs.w	r2, r8, r9
    d402:	d1e4      	bne.n	d3ce <_vfiprintf_r+0x56e>
    d404:	e01e      	b.n	d444 <_vfiprintf_r+0x5e4>
    d406:	aa7b      	add	r2, sp, #492	; 0x1ec
    d408:	3203      	adds	r2, #3
    d40a:	9905      	ldr	r1, [sp, #20]
    d40c:	f008 030f 	and.w	r3, r8, #15
    d410:	4617      	mov	r7, r2
    d412:	ea4f 1019 	mov.w	r0, r9, lsr #4
    d416:	5ccb      	ldrb	r3, [r1, r3]
    d418:	ea4f 1118 	mov.w	r1, r8, lsr #4
    d41c:	f802 3901 	strb.w	r3, [r2], #-1
    d420:	ea41 7309 	orr.w	r3, r1, r9, lsl #28
    d424:	4698      	mov	r8, r3
    d426:	4681      	mov	r9, r0
    d428:	ea58 0309 	orrs.w	r3, r8, r9
    d42c:	d1ed      	bne.n	d40a <_vfiprintf_r+0x5aa>
    d42e:	e009      	b.n	d444 <_vfiprintf_r+0x5e4>
    d430:	b93a      	cbnz	r2, d442 <_vfiprintf_r+0x5e2>
    d432:	f015 0f01 	tst.w	r5, #1
    d436:	d004      	beq.n	d442 <_vfiprintf_r+0x5e2>
    d438:	af80      	add	r7, sp, #512	; 0x200
    d43a:	2330      	movs	r3, #48	; 0x30
    d43c:	f807 3d11 	strb.w	r3, [r7, #-17]!
    d440:	e000      	b.n	d444 <_vfiprintf_r+0x5e4>
    d442:	af7c      	add	r7, sp, #496	; 0x1f0
    d444:	f50d 78f8 	add.w	r8, sp, #496	; 0x1f0
    d448:	46e1      	mov	r9, ip
    d44a:	ebc7 0808 	rsb	r8, r7, r8
    d44e:	e012      	b.n	d476 <_vfiprintf_r+0x616>
    d450:	9201      	str	r2, [sp, #4]
    d452:	9102      	str	r1, [sp, #8]
    d454:	2b00      	cmp	r3, #0
    d456:	f000 8171 	beq.w	d73c <_vfiprintf_r+0x8dc>
    d45a:	f04f 0900 	mov.w	r9, #0
    d45e:	f88d 31c8 	strb.w	r3, [sp, #456]	; 0x1c8
    d462:	f88d 91ff 	strb.w	r9, [sp, #511]	; 0x1ff
    d466:	f04f 0801 	mov.w	r8, #1
    d46a:	af72      	add	r7, sp, #456	; 0x1c8
    d46c:	e003      	b.n	d476 <_vfiprintf_r+0x616>
    d46e:	46e0      	mov	r8, ip
    d470:	4681      	mov	r9, r0
    d472:	e000      	b.n	d476 <_vfiprintf_r+0x616>
    d474:	46e0      	mov	r8, ip
    d476:	f89d 31ff 	ldrb.w	r3, [sp, #511]	; 0x1ff
    d47a:	45c8      	cmp	r8, r9
    d47c:	bfac      	ite	ge
    d47e:	4641      	movge	r1, r8
    d480:	4649      	movlt	r1, r9
    d482:	9104      	str	r1, [sp, #16]
    d484:	b10b      	cbz	r3, d48a <_vfiprintf_r+0x62a>
    d486:	3101      	adds	r1, #1
    d488:	9104      	str	r1, [sp, #16]
    d48a:	f015 0202 	ands.w	r2, r5, #2
    d48e:	9206      	str	r2, [sp, #24]
    d490:	d002      	beq.n	d498 <_vfiprintf_r+0x638>
    d492:	9b04      	ldr	r3, [sp, #16]
    d494:	3302      	adds	r3, #2
    d496:	9304      	str	r3, [sp, #16]
    d498:	f015 0184 	ands.w	r1, r5, #132	; 0x84
    d49c:	9107      	str	r1, [sp, #28]
    d49e:	d143      	bne.n	d528 <_vfiprintf_r+0x6c8>
    d4a0:	9a02      	ldr	r2, [sp, #8]
    d4a2:	9904      	ldr	r1, [sp, #16]
    d4a4:	1a53      	subs	r3, r2, r1
    d4a6:	2b00      	cmp	r3, #0
    d4a8:	dc1c      	bgt.n	d4e4 <_vfiprintf_r+0x684>
    d4aa:	e03d      	b.n	d528 <_vfiprintf_r+0x6c8>
    d4ac:	601a      	str	r2, [r3, #0]
    d4ae:	2210      	movs	r2, #16
    d4b0:	1889      	adds	r1, r1, r2
    d4b2:	605a      	str	r2, [r3, #4]
    d4b4:	9a7d      	ldr	r2, [sp, #500]	; 0x1f4
    d4b6:	917e      	str	r1, [sp, #504]	; 0x1f8
    d4b8:	3201      	adds	r2, #1
    d4ba:	927d      	str	r2, [sp, #500]	; 0x1f4
    d4bc:	2a07      	cmp	r2, #7
    d4be:	dc01      	bgt.n	d4c4 <_vfiprintf_r+0x664>
    d4c0:	3308      	adds	r3, #8
    d4c2:	e008      	b.n	d4d6 <_vfiprintf_r+0x676>
    d4c4:	4658      	mov	r0, fp
    d4c6:	4651      	mov	r1, sl
    d4c8:	aa7c      	add	r2, sp, #496	; 0x1f0
    d4ca:	f7ff fc8f 	bl	cdec <__sprint_r>
    d4ce:	2800      	cmp	r0, #0
    d4d0:	f040 813d 	bne.w	d74e <_vfiprintf_r+0x8ee>
    d4d4:	ab62      	add	r3, sp, #392	; 0x188
    d4d6:	3d10      	subs	r5, #16
    d4d8:	e009      	b.n	d4ee <_vfiprintf_r+0x68e>
    d4da:	bf00      	nop
    d4dc:	0001104d 	.word	0x0001104d
    d4e0:	0001103c 	.word	0x0001103c
    d4e4:	462a      	mov	r2, r5
    d4e6:	461d      	mov	r5, r3
    d4e8:	4633      	mov	r3, r6
    d4ea:	463e      	mov	r6, r7
    d4ec:	4617      	mov	r7, r2
    d4ee:	2d10      	cmp	r5, #16
    d4f0:	997e      	ldr	r1, [sp, #504]	; 0x1f8
    d4f2:	4a78      	ldr	r2, [pc, #480]	; (d6d4 <_vfiprintf_r+0x874>)
    d4f4:	dcda      	bgt.n	d4ac <_vfiprintf_r+0x64c>
    d4f6:	4638      	mov	r0, r7
    d4f8:	4637      	mov	r7, r6
    d4fa:	461e      	mov	r6, r3
    d4fc:	462b      	mov	r3, r5
    d4fe:	4605      	mov	r5, r0
    d500:	6073      	str	r3, [r6, #4]
    d502:	18cb      	adds	r3, r1, r3
    d504:	6032      	str	r2, [r6, #0]
    d506:	937e      	str	r3, [sp, #504]	; 0x1f8
    d508:	9b7d      	ldr	r3, [sp, #500]	; 0x1f4
    d50a:	3301      	adds	r3, #1
    d50c:	937d      	str	r3, [sp, #500]	; 0x1f4
    d50e:	2b07      	cmp	r3, #7
    d510:	dc01      	bgt.n	d516 <_vfiprintf_r+0x6b6>
    d512:	3608      	adds	r6, #8
    d514:	e008      	b.n	d528 <_vfiprintf_r+0x6c8>
    d516:	4658      	mov	r0, fp
    d518:	4651      	mov	r1, sl
    d51a:	aa7c      	add	r2, sp, #496	; 0x1f0
    d51c:	f7ff fc66 	bl	cdec <__sprint_r>
    d520:	2800      	cmp	r0, #0
    d522:	f040 8114 	bne.w	d74e <_vfiprintf_r+0x8ee>
    d526:	ae62      	add	r6, sp, #392	; 0x188
    d528:	f89d 31ff 	ldrb.w	r3, [sp, #511]	; 0x1ff
    d52c:	b1bb      	cbz	r3, d55e <_vfiprintf_r+0x6fe>
    d52e:	ab7f      	add	r3, sp, #508	; 0x1fc
    d530:	3303      	adds	r3, #3
    d532:	6033      	str	r3, [r6, #0]
    d534:	2301      	movs	r3, #1
    d536:	6073      	str	r3, [r6, #4]
    d538:	9b7e      	ldr	r3, [sp, #504]	; 0x1f8
    d53a:	3301      	adds	r3, #1
    d53c:	937e      	str	r3, [sp, #504]	; 0x1f8
    d53e:	9b7d      	ldr	r3, [sp, #500]	; 0x1f4
    d540:	3301      	adds	r3, #1
    d542:	937d      	str	r3, [sp, #500]	; 0x1f4
    d544:	2b07      	cmp	r3, #7
    d546:	dc01      	bgt.n	d54c <_vfiprintf_r+0x6ec>
    d548:	3608      	adds	r6, #8
    d54a:	e008      	b.n	d55e <_vfiprintf_r+0x6fe>
    d54c:	4658      	mov	r0, fp
    d54e:	4651      	mov	r1, sl
    d550:	aa7c      	add	r2, sp, #496	; 0x1f0
    d552:	f7ff fc4b 	bl	cdec <__sprint_r>
    d556:	2800      	cmp	r0, #0
    d558:	f040 80f9 	bne.w	d74e <_vfiprintf_r+0x8ee>
    d55c:	ae62      	add	r6, sp, #392	; 0x188
    d55e:	9a06      	ldr	r2, [sp, #24]
    d560:	b1b2      	cbz	r2, d590 <_vfiprintf_r+0x730>
    d562:	ab7f      	add	r3, sp, #508	; 0x1fc
    d564:	6033      	str	r3, [r6, #0]
    d566:	2302      	movs	r3, #2
    d568:	6073      	str	r3, [r6, #4]
    d56a:	9b7e      	ldr	r3, [sp, #504]	; 0x1f8
    d56c:	3302      	adds	r3, #2
    d56e:	937e      	str	r3, [sp, #504]	; 0x1f8
    d570:	9b7d      	ldr	r3, [sp, #500]	; 0x1f4
    d572:	3301      	adds	r3, #1
    d574:	937d      	str	r3, [sp, #500]	; 0x1f4
    d576:	2b07      	cmp	r3, #7
    d578:	dc01      	bgt.n	d57e <_vfiprintf_r+0x71e>
    d57a:	3608      	adds	r6, #8
    d57c:	e008      	b.n	d590 <_vfiprintf_r+0x730>
    d57e:	4658      	mov	r0, fp
    d580:	4651      	mov	r1, sl
    d582:	aa7c      	add	r2, sp, #496	; 0x1f0
    d584:	f7ff fc32 	bl	cdec <__sprint_r>
    d588:	2800      	cmp	r0, #0
    d58a:	f040 80e0 	bne.w	d74e <_vfiprintf_r+0x8ee>
    d58e:	ae62      	add	r6, sp, #392	; 0x188
    d590:	9b07      	ldr	r3, [sp, #28]
    d592:	2b80      	cmp	r3, #128	; 0x80
    d594:	d13e      	bne.n	d614 <_vfiprintf_r+0x7b4>
    d596:	9902      	ldr	r1, [sp, #8]
    d598:	9a04      	ldr	r2, [sp, #16]
    d59a:	1a8b      	subs	r3, r1, r2
    d59c:	2b00      	cmp	r3, #0
    d59e:	dc17      	bgt.n	d5d0 <_vfiprintf_r+0x770>
    d5a0:	e038      	b.n	d614 <_vfiprintf_r+0x7b4>
    d5a2:	601a      	str	r2, [r3, #0]
    d5a4:	2210      	movs	r2, #16
    d5a6:	1889      	adds	r1, r1, r2
    d5a8:	605a      	str	r2, [r3, #4]
    d5aa:	9a7d      	ldr	r2, [sp, #500]	; 0x1f4
    d5ac:	917e      	str	r1, [sp, #504]	; 0x1f8
    d5ae:	3201      	adds	r2, #1
    d5b0:	927d      	str	r2, [sp, #500]	; 0x1f4
    d5b2:	2a07      	cmp	r2, #7
    d5b4:	dc01      	bgt.n	d5ba <_vfiprintf_r+0x75a>
    d5b6:	3308      	adds	r3, #8
    d5b8:	e008      	b.n	d5cc <_vfiprintf_r+0x76c>
    d5ba:	4658      	mov	r0, fp
    d5bc:	4651      	mov	r1, sl
    d5be:	aa7c      	add	r2, sp, #496	; 0x1f0
    d5c0:	f7ff fc14 	bl	cdec <__sprint_r>
    d5c4:	2800      	cmp	r0, #0
    d5c6:	f040 80c2 	bne.w	d74e <_vfiprintf_r+0x8ee>
    d5ca:	ab62      	add	r3, sp, #392	; 0x188
    d5cc:	3d10      	subs	r5, #16
    d5ce:	e004      	b.n	d5da <_vfiprintf_r+0x77a>
    d5d0:	462a      	mov	r2, r5
    d5d2:	461d      	mov	r5, r3
    d5d4:	4633      	mov	r3, r6
    d5d6:	463e      	mov	r6, r7
    d5d8:	4617      	mov	r7, r2
    d5da:	2d10      	cmp	r5, #16
    d5dc:	997e      	ldr	r1, [sp, #504]	; 0x1f8
    d5de:	4a3e      	ldr	r2, [pc, #248]	; (d6d8 <_vfiprintf_r+0x878>)
    d5e0:	dcdf      	bgt.n	d5a2 <_vfiprintf_r+0x742>
    d5e2:	4638      	mov	r0, r7
    d5e4:	4637      	mov	r7, r6
    d5e6:	461e      	mov	r6, r3
    d5e8:	462b      	mov	r3, r5
    d5ea:	4605      	mov	r5, r0
    d5ec:	6073      	str	r3, [r6, #4]
    d5ee:	18cb      	adds	r3, r1, r3
    d5f0:	6032      	str	r2, [r6, #0]
    d5f2:	937e      	str	r3, [sp, #504]	; 0x1f8
    d5f4:	9b7d      	ldr	r3, [sp, #500]	; 0x1f4
    d5f6:	3301      	adds	r3, #1
    d5f8:	937d      	str	r3, [sp, #500]	; 0x1f4
    d5fa:	2b07      	cmp	r3, #7
    d5fc:	dc01      	bgt.n	d602 <_vfiprintf_r+0x7a2>
    d5fe:	3608      	adds	r6, #8
    d600:	e008      	b.n	d614 <_vfiprintf_r+0x7b4>
    d602:	4658      	mov	r0, fp
    d604:	4651      	mov	r1, sl
    d606:	aa7c      	add	r2, sp, #496	; 0x1f0
    d608:	f7ff fbf0 	bl	cdec <__sprint_r>
    d60c:	2800      	cmp	r0, #0
    d60e:	f040 809e 	bne.w	d74e <_vfiprintf_r+0x8ee>
    d612:	ae62      	add	r6, sp, #392	; 0x188
    d614:	ebc8 0909 	rsb	r9, r8, r9
    d618:	f1b9 0f00 	cmp.w	r9, #0
    d61c:	dc17      	bgt.n	d64e <_vfiprintf_r+0x7ee>
    d61e:	e02f      	b.n	d680 <_vfiprintf_r+0x820>
    d620:	6033      	str	r3, [r6, #0]
    d622:	2310      	movs	r3, #16
    d624:	18d2      	adds	r2, r2, r3
    d626:	6073      	str	r3, [r6, #4]
    d628:	9b7d      	ldr	r3, [sp, #500]	; 0x1f4
    d62a:	927e      	str	r2, [sp, #504]	; 0x1f8
    d62c:	3301      	adds	r3, #1
    d62e:	937d      	str	r3, [sp, #500]	; 0x1f4
    d630:	2b07      	cmp	r3, #7
    d632:	dc01      	bgt.n	d638 <_vfiprintf_r+0x7d8>
    d634:	3608      	adds	r6, #8
    d636:	e008      	b.n	d64a <_vfiprintf_r+0x7ea>
    d638:	4658      	mov	r0, fp
    d63a:	4651      	mov	r1, sl
    d63c:	aa7c      	add	r2, sp, #496	; 0x1f0
    d63e:	f7ff fbd5 	bl	cdec <__sprint_r>
    d642:	2800      	cmp	r0, #0
    d644:	f040 8083 	bne.w	d74e <_vfiprintf_r+0x8ee>
    d648:	ae62      	add	r6, sp, #392	; 0x188
    d64a:	f1a9 0910 	sub.w	r9, r9, #16
    d64e:	f1b9 0f10 	cmp.w	r9, #16
    d652:	9a7e      	ldr	r2, [sp, #504]	; 0x1f8
    d654:	4b20      	ldr	r3, [pc, #128]	; (d6d8 <_vfiprintf_r+0x878>)
    d656:	dce3      	bgt.n	d620 <_vfiprintf_r+0x7c0>
    d658:	6033      	str	r3, [r6, #0]
    d65a:	444a      	add	r2, r9
    d65c:	9b7d      	ldr	r3, [sp, #500]	; 0x1f4
    d65e:	f8c6 9004 	str.w	r9, [r6, #4]
    d662:	3301      	adds	r3, #1
    d664:	927e      	str	r2, [sp, #504]	; 0x1f8
    d666:	2b07      	cmp	r3, #7
    d668:	937d      	str	r3, [sp, #500]	; 0x1f4
    d66a:	dc01      	bgt.n	d670 <_vfiprintf_r+0x810>
    d66c:	3608      	adds	r6, #8
    d66e:	e007      	b.n	d680 <_vfiprintf_r+0x820>
    d670:	4658      	mov	r0, fp
    d672:	4651      	mov	r1, sl
    d674:	aa7c      	add	r2, sp, #496	; 0x1f0
    d676:	f7ff fbb9 	bl	cdec <__sprint_r>
    d67a:	2800      	cmp	r0, #0
    d67c:	d167      	bne.n	d74e <_vfiprintf_r+0x8ee>
    d67e:	ae62      	add	r6, sp, #392	; 0x188
    d680:	9b7e      	ldr	r3, [sp, #504]	; 0x1f8
    d682:	6037      	str	r7, [r6, #0]
    d684:	f8c6 8004 	str.w	r8, [r6, #4]
    d688:	4443      	add	r3, r8
    d68a:	937e      	str	r3, [sp, #504]	; 0x1f8
    d68c:	9b7d      	ldr	r3, [sp, #500]	; 0x1f4
    d68e:	3301      	adds	r3, #1
    d690:	937d      	str	r3, [sp, #500]	; 0x1f4
    d692:	2b07      	cmp	r3, #7
    d694:	dc01      	bgt.n	d69a <_vfiprintf_r+0x83a>
    d696:	3608      	adds	r6, #8
    d698:	e007      	b.n	d6aa <_vfiprintf_r+0x84a>
    d69a:	4658      	mov	r0, fp
    d69c:	4651      	mov	r1, sl
    d69e:	aa7c      	add	r2, sp, #496	; 0x1f0
    d6a0:	f7ff fba4 	bl	cdec <__sprint_r>
    d6a4:	2800      	cmp	r0, #0
    d6a6:	d152      	bne.n	d74e <_vfiprintf_r+0x8ee>
    d6a8:	ae62      	add	r6, sp, #392	; 0x188
    d6aa:	f015 0f04 	tst.w	r5, #4
    d6ae:	d031      	beq.n	d714 <_vfiprintf_r+0x8b4>
    d6b0:	9b02      	ldr	r3, [sp, #8]
    d6b2:	9904      	ldr	r1, [sp, #16]
    d6b4:	1a5d      	subs	r5, r3, r1
    d6b6:	2d00      	cmp	r5, #0
    d6b8:	dc19      	bgt.n	d6ee <_vfiprintf_r+0x88e>
    d6ba:	e02b      	b.n	d714 <_vfiprintf_r+0x8b4>
    d6bc:	6032      	str	r2, [r6, #0]
    d6be:	2210      	movs	r2, #16
    d6c0:	189b      	adds	r3, r3, r2
    d6c2:	6072      	str	r2, [r6, #4]
    d6c4:	937e      	str	r3, [sp, #504]	; 0x1f8
    d6c6:	9b7d      	ldr	r3, [sp, #500]	; 0x1f4
    d6c8:	3301      	adds	r3, #1
    d6ca:	937d      	str	r3, [sp, #500]	; 0x1f4
    d6cc:	2b07      	cmp	r3, #7
    d6ce:	dc05      	bgt.n	d6dc <_vfiprintf_r+0x87c>
    d6d0:	3608      	adds	r6, #8
    d6d2:	e00b      	b.n	d6ec <_vfiprintf_r+0x88c>
    d6d4:	00011388 	.word	0x00011388
    d6d8:	00011398 	.word	0x00011398
    d6dc:	4658      	mov	r0, fp
    d6de:	4651      	mov	r1, sl
    d6e0:	aa7c      	add	r2, sp, #496	; 0x1f0
    d6e2:	f7ff fb83 	bl	cdec <__sprint_r>
    d6e6:	2800      	cmp	r0, #0
    d6e8:	d131      	bne.n	d74e <_vfiprintf_r+0x8ee>
    d6ea:	ae62      	add	r6, sp, #392	; 0x188
    d6ec:	3d10      	subs	r5, #16
    d6ee:	2d10      	cmp	r5, #16
    d6f0:	9b7e      	ldr	r3, [sp, #504]	; 0x1f8
    d6f2:	4a20      	ldr	r2, [pc, #128]	; (d774 <_vfiprintf_r+0x914>)
    d6f4:	dce2      	bgt.n	d6bc <_vfiprintf_r+0x85c>
    d6f6:	6075      	str	r5, [r6, #4]
    d6f8:	195d      	adds	r5, r3, r5
    d6fa:	9b7d      	ldr	r3, [sp, #500]	; 0x1f4
    d6fc:	6032      	str	r2, [r6, #0]
    d6fe:	3301      	adds	r3, #1
    d700:	957e      	str	r5, [sp, #504]	; 0x1f8
    d702:	2b07      	cmp	r3, #7
    d704:	937d      	str	r3, [sp, #500]	; 0x1f4
    d706:	dd05      	ble.n	d714 <_vfiprintf_r+0x8b4>
    d708:	4658      	mov	r0, fp
    d70a:	4651      	mov	r1, sl
    d70c:	aa7c      	add	r2, sp, #496	; 0x1f0
    d70e:	f7ff fb6d 	bl	cdec <__sprint_r>
    d712:	b9e0      	cbnz	r0, d74e <_vfiprintf_r+0x8ee>
    d714:	9a03      	ldr	r2, [sp, #12]
    d716:	9b02      	ldr	r3, [sp, #8]
    d718:	9904      	ldr	r1, [sp, #16]
    d71a:	4299      	cmp	r1, r3
    d71c:	bfac      	ite	ge
    d71e:	1852      	addge	r2, r2, r1
    d720:	18d2      	addlt	r2, r2, r3
    d722:	9b7e      	ldr	r3, [sp, #504]	; 0x1f8
    d724:	9203      	str	r2, [sp, #12]
    d726:	b12b      	cbz	r3, d734 <_vfiprintf_r+0x8d4>
    d728:	4658      	mov	r0, fp
    d72a:	4651      	mov	r1, sl
    d72c:	aa7c      	add	r2, sp, #496	; 0x1f0
    d72e:	f7ff fb5d 	bl	cdec <__sprint_r>
    d732:	b960      	cbnz	r0, d74e <_vfiprintf_r+0x8ee>
    d734:	2300      	movs	r3, #0
    d736:	ae62      	add	r6, sp, #392	; 0x188
    d738:	937d      	str	r3, [sp, #500]	; 0x1f4
    d73a:	e40e      	b.n	cf5a <_vfiprintf_r+0xfa>
    d73c:	9b7e      	ldr	r3, [sp, #504]	; 0x1f8
    d73e:	4657      	mov	r7, sl
    d740:	b133      	cbz	r3, d750 <_vfiprintf_r+0x8f0>
    d742:	4658      	mov	r0, fp
    d744:	4651      	mov	r1, sl
    d746:	aa7c      	add	r2, sp, #496	; 0x1f0
    d748:	f7ff fb50 	bl	cdec <__sprint_r>
    d74c:	e000      	b.n	d750 <_vfiprintf_r+0x8f0>
    d74e:	4657      	mov	r7, sl
    d750:	89bb      	ldrh	r3, [r7, #12]
    d752:	9a03      	ldr	r2, [sp, #12]
    d754:	f003 0340 	and.w	r3, r3, #64	; 0x40
    d758:	2b00      	cmp	r3, #0
    d75a:	bf18      	it	ne
    d75c:	f04f 32ff 	movne.w	r2, #4294967295
    d760:	9203      	str	r2, [sp, #12]
    d762:	e002      	b.n	d76a <_vfiprintf_r+0x90a>
    d764:	f04f 33ff 	mov.w	r3, #4294967295
    d768:	9303      	str	r3, [sp, #12]
    d76a:	9803      	ldr	r0, [sp, #12]
    d76c:	f50d 7d01 	add.w	sp, sp, #516	; 0x204
    d770:	e8bd 8ff0 	ldmia.w	sp!, {r4, r5, r6, r7, r8, r9, sl, fp, pc}
    d774:	00011388 	.word	0x00011388

0000d778 <vfiprintf>:
    d778:	4613      	mov	r3, r2
    d77a:	4a05      	ldr	r2, [pc, #20]	; (d790 <vfiprintf+0x18>)
    d77c:	b530      	push	{r4, r5, lr}
    d77e:	4605      	mov	r5, r0
    d780:	460c      	mov	r4, r1
    d782:	6810      	ldr	r0, [r2, #0]
    d784:	4629      	mov	r1, r5
    d786:	4622      	mov	r2, r4
    d788:	e8bd 4030 	ldmia.w	sp!, {r4, r5, lr}
    d78c:	f7ff bb68 	b.w	ce60 <_vfiprintf_r>
    d790:	100000f4 	.word	0x100000f4

0000d794 <_write_r>:
    d794:	b538      	push	{r3, r4, r5, lr}
    d796:	4605      	mov	r5, r0
    d798:	4c07      	ldr	r4, [pc, #28]	; (d7b8 <_write_r+0x24>)
    d79a:	2000      	movs	r0, #0
    d79c:	6020      	str	r0, [r4, #0]
    d79e:	4608      	mov	r0, r1
    d7a0:	4611      	mov	r1, r2
    d7a2:	461a      	mov	r2, r3
    d7a4:	f001 fdb0 	bl	f308 <_write>
    d7a8:	f1b0 3fff 	cmp.w	r0, #4294967295
    d7ac:	d102      	bne.n	d7b4 <_write_r+0x20>
    d7ae:	6823      	ldr	r3, [r4, #0]
    d7b0:	b103      	cbz	r3, d7b4 <_write_r+0x20>
    d7b2:	602b      	str	r3, [r5, #0]
    d7b4:	bd38      	pop	{r3, r4, r5, pc}
    d7b6:	bf00      	nop
    d7b8:	10000728 	.word	0x10000728

0000d7bc <_calloc_r>:
    d7bc:	b510      	push	{r4, lr}
    d7be:	4351      	muls	r1, r2
    d7c0:	f7fc f884 	bl	98cc <_malloc_r>
    d7c4:	4604      	mov	r4, r0
    d7c6:	b318      	cbz	r0, d810 <_calloc_r+0x54>
    d7c8:	f850 2c04 	ldr.w	r2, [r0, #-4]
    d7cc:	f022 0203 	bic.w	r2, r2, #3
    d7d0:	3a04      	subs	r2, #4
    d7d2:	2a24      	cmp	r2, #36	; 0x24
    d7d4:	d819      	bhi.n	d80a <_calloc_r+0x4e>
    d7d6:	2a13      	cmp	r2, #19
    d7d8:	4603      	mov	r3, r0
    d7da:	d90f      	bls.n	d7fc <_calloc_r+0x40>
    d7dc:	2100      	movs	r1, #0
    d7de:	f840 1b04 	str.w	r1, [r0], #4
    d7e2:	1d03      	adds	r3, r0, #4
    d7e4:	2a1b      	cmp	r2, #27
    d7e6:	6061      	str	r1, [r4, #4]
    d7e8:	d908      	bls.n	d7fc <_calloc_r+0x40>
    d7ea:	6041      	str	r1, [r0, #4]
    d7ec:	1d18      	adds	r0, r3, #4
    d7ee:	6059      	str	r1, [r3, #4]
    d7f0:	3308      	adds	r3, #8
    d7f2:	2a24      	cmp	r2, #36	; 0x24
    d7f4:	d102      	bne.n	d7fc <_calloc_r+0x40>
    d7f6:	6041      	str	r1, [r0, #4]
    d7f8:	6059      	str	r1, [r3, #4]
    d7fa:	3308      	adds	r3, #8
    d7fc:	461a      	mov	r2, r3
    d7fe:	2100      	movs	r1, #0
    d800:	f842 1b04 	str.w	r1, [r2], #4
    d804:	6059      	str	r1, [r3, #4]
    d806:	6051      	str	r1, [r2, #4]
    d808:	e002      	b.n	d810 <_calloc_r+0x54>
    d80a:	2100      	movs	r1, #0
    d80c:	f7fc fae5 	bl	9dda <memset>
    d810:	4620      	mov	r0, r4
    d812:	bd10      	pop	{r4, pc}

0000d814 <_close_r>:
    d814:	b538      	push	{r3, r4, r5, lr}
    d816:	4605      	mov	r5, r0
    d818:	4c06      	ldr	r4, [pc, #24]	; (d834 <_close_r+0x20>)
    d81a:	4608      	mov	r0, r1
    d81c:	2300      	movs	r3, #0
    d81e:	6023      	str	r3, [r4, #0]
    d820:	f001 fdc4 	bl	f3ac <_close>
    d824:	f1b0 3fff 	cmp.w	r0, #4294967295
    d828:	d102      	bne.n	d830 <_close_r+0x1c>
    d82a:	6823      	ldr	r3, [r4, #0]
    d82c:	b103      	cbz	r3, d830 <_close_r+0x1c>
    d82e:	602b      	str	r3, [r5, #0]
    d830:	bd38      	pop	{r3, r4, r5, pc}
    d832:	bf00      	nop
    d834:	10000728 	.word	0x10000728

0000d838 <_fclose_r>:
    d838:	b570      	push	{r4, r5, r6, lr}
    d83a:	4605      	mov	r5, r0
    d83c:	460c      	mov	r4, r1
    d83e:	2900      	cmp	r1, #0
    d840:	d046      	beq.n	d8d0 <_fclose_r+0x98>
    d842:	f7fb fd8f 	bl	9364 <__sfp_lock_acquire>
    d846:	b125      	cbz	r5, d852 <_fclose_r+0x1a>
    d848:	69ab      	ldr	r3, [r5, #24]
    d84a:	b913      	cbnz	r3, d852 <_fclose_r+0x1a>
    d84c:	4628      	mov	r0, r5
    d84e:	f7fb fd1f 	bl	9290 <__sinit>
    d852:	4b21      	ldr	r3, [pc, #132]	; (d8d8 <_fclose_r+0xa0>)
    d854:	429c      	cmp	r4, r3
    d856:	d101      	bne.n	d85c <_fclose_r+0x24>
    d858:	686c      	ldr	r4, [r5, #4]
    d85a:	e008      	b.n	d86e <_fclose_r+0x36>
    d85c:	4b1f      	ldr	r3, [pc, #124]	; (d8dc <_fclose_r+0xa4>)
    d85e:	429c      	cmp	r4, r3
    d860:	d101      	bne.n	d866 <_fclose_r+0x2e>
    d862:	68ac      	ldr	r4, [r5, #8]
    d864:	e003      	b.n	d86e <_fclose_r+0x36>
    d866:	4b1e      	ldr	r3, [pc, #120]	; (d8e0 <_fclose_r+0xa8>)
    d868:	429c      	cmp	r4, r3
    d86a:	bf08      	it	eq
    d86c:	68ec      	ldreq	r4, [r5, #12]
    d86e:	f9b4 600c 	ldrsh.w	r6, [r4, #12]
    d872:	b356      	cbz	r6, d8ca <_fclose_r+0x92>
    d874:	4628      	mov	r0, r5
    d876:	4621      	mov	r1, r4
    d878:	f7fb fbf6 	bl	9068 <_fflush_r>
    d87c:	6b23      	ldr	r3, [r4, #48]	; 0x30
    d87e:	4606      	mov	r6, r0
    d880:	b13b      	cbz	r3, d892 <_fclose_r+0x5a>
    d882:	4628      	mov	r0, r5
    d884:	6a21      	ldr	r1, [r4, #32]
    d886:	4798      	blx	r3
    d888:	ea36 0620 	bics.w	r6, r6, r0, asr #32
    d88c:	bf28      	it	cs
    d88e:	f04f 36ff 	movcs.w	r6, #4294967295
    d892:	89a3      	ldrh	r3, [r4, #12]
    d894:	f013 0f80 	tst.w	r3, #128	; 0x80
    d898:	d003      	beq.n	d8a2 <_fclose_r+0x6a>
    d89a:	4628      	mov	r0, r5
    d89c:	6921      	ldr	r1, [r4, #16]
    d89e:	f7fb fe3d 	bl	951c <_free_r>
    d8a2:	6b61      	ldr	r1, [r4, #52]	; 0x34
    d8a4:	b141      	cbz	r1, d8b8 <_fclose_r+0x80>
    d8a6:	f104 0344 	add.w	r3, r4, #68	; 0x44
    d8aa:	4299      	cmp	r1, r3
    d8ac:	d002      	beq.n	d8b4 <_fclose_r+0x7c>
    d8ae:	4628      	mov	r0, r5
    d8b0:	f7fb fe34 	bl	951c <_free_r>
    d8b4:	2300      	movs	r3, #0
    d8b6:	6363      	str	r3, [r4, #52]	; 0x34
    d8b8:	6ca1      	ldr	r1, [r4, #72]	; 0x48
    d8ba:	b121      	cbz	r1, d8c6 <_fclose_r+0x8e>
    d8bc:	4628      	mov	r0, r5
    d8be:	f7fb fe2d 	bl	951c <_free_r>
    d8c2:	2300      	movs	r3, #0
    d8c4:	64a3      	str	r3, [r4, #72]	; 0x48
    d8c6:	2300      	movs	r3, #0
    d8c8:	81a3      	strh	r3, [r4, #12]
    d8ca:	f7fb fd4c 	bl	9366 <__sfp_lock_release>
    d8ce:	e000      	b.n	d8d2 <_fclose_r+0x9a>
    d8d0:	460e      	mov	r6, r1
    d8d2:	4630      	mov	r0, r6
    d8d4:	bd70      	pop	{r4, r5, r6, pc}
    d8d6:	bf00      	nop
    d8d8:	000111a8 	.word	0x000111a8
    d8dc:	000111c8 	.word	0x000111c8
    d8e0:	000111e8 	.word	0x000111e8

0000d8e4 <fclose>:
    d8e4:	4b02      	ldr	r3, [pc, #8]	; (d8f0 <fclose+0xc>)
    d8e6:	4601      	mov	r1, r0
    d8e8:	6818      	ldr	r0, [r3, #0]
    d8ea:	f7ff bfa5 	b.w	d838 <_fclose_r>
    d8ee:	bf00      	nop
    d8f0:	100000f4 	.word	0x100000f4

0000d8f4 <_fputwc_r>:
    d8f4:	8993      	ldrh	r3, [r2, #12]
    d8f6:	e92d 41f3 	stmdb	sp!, {r0, r1, r4, r5, r6, r7, r8, lr}
    d8fa:	f413 5f00 	tst.w	r3, #8192	; 0x2000
    d8fe:	4606      	mov	r6, r0
    d900:	460d      	mov	r5, r1
    d902:	4614      	mov	r4, r2
    d904:	d106      	bne.n	d914 <_fputwc_r+0x20>
    d906:	f443 5300 	orr.w	r3, r3, #8192	; 0x2000
    d90a:	8193      	strh	r3, [r2, #12]
    d90c:	6e53      	ldr	r3, [r2, #100]	; 0x64
    d90e:	f443 5300 	orr.w	r3, r3, #8192	; 0x2000
    d912:	6653      	str	r3, [r2, #100]	; 0x64
    d914:	f7fb ff3c 	bl	9790 <__locale_mb_cur_max>
    d918:	2801      	cmp	r0, #1
    d91a:	d106      	bne.n	d92a <_fputwc_r+0x36>
    d91c:	b12d      	cbz	r5, d92a <_fputwc_r+0x36>
    d91e:	2dff      	cmp	r5, #255	; 0xff
    d920:	d803      	bhi.n	d92a <_fputwc_r+0x36>
    d922:	f88d 5004 	strb.w	r5, [sp, #4]
    d926:	4680      	mov	r8, r0
    d928:	e00f      	b.n	d94a <_fputwc_r+0x56>
    d92a:	4630      	mov	r0, r6
    d92c:	a901      	add	r1, sp, #4
    d92e:	462a      	mov	r2, r5
    d930:	f104 035c 	add.w	r3, r4, #92	; 0x5c
    d934:	f001 fc56 	bl	f1e4 <_wcrtomb_r>
    d938:	f1b0 3fff 	cmp.w	r0, #4294967295
    d93c:	4680      	mov	r8, r0
    d93e:	d104      	bne.n	d94a <_fputwc_r+0x56>
    d940:	89a3      	ldrh	r3, [r4, #12]
    d942:	f043 0340 	orr.w	r3, r3, #64	; 0x40
    d946:	81a3      	strh	r3, [r4, #12]
    d948:	e031      	b.n	d9ae <_fputwc_r+0xba>
    d94a:	2700      	movs	r7, #0
    d94c:	e029      	b.n	d9a2 <_fputwc_r+0xae>
    d94e:	68a2      	ldr	r2, [r4, #8]
    d950:	ab01      	add	r3, sp, #4
    d952:	3a01      	subs	r2, #1
    d954:	60a2      	str	r2, [r4, #8]
    d956:	2a00      	cmp	r2, #0
    d958:	da1a      	bge.n	d990 <_fputwc_r+0x9c>
    d95a:	69a1      	ldr	r1, [r4, #24]
    d95c:	428a      	cmp	r2, r1
    d95e:	db0c      	blt.n	d97a <_fputwc_r+0x86>
    d960:	5ddb      	ldrb	r3, [r3, r7]
    d962:	6822      	ldr	r2, [r4, #0]
    d964:	7013      	strb	r3, [r2, #0]
    d966:	6823      	ldr	r3, [r4, #0]
    d968:	7819      	ldrb	r1, [r3, #0]
    d96a:	290a      	cmp	r1, #10
    d96c:	d003      	beq.n	d976 <_fputwc_r+0x82>
    d96e:	3301      	adds	r3, #1
    d970:	2000      	movs	r0, #0
    d972:	6023      	str	r3, [r4, #0]
    d974:	e013      	b.n	d99e <_fputwc_r+0xaa>
    d976:	4630      	mov	r0, r6
    d978:	e001      	b.n	d97e <_fputwc_r+0x8a>
    d97a:	5dd9      	ldrb	r1, [r3, r7]
    d97c:	4630      	mov	r0, r6
    d97e:	4622      	mov	r2, r4
    d980:	f001 fbc0 	bl	f104 <__swbuf_r>
    d984:	f1a0 33ff 	sub.w	r3, r0, #4294967295
    d988:	4258      	negs	r0, r3
    d98a:	eb40 0003 	adc.w	r0, r0, r3
    d98e:	e006      	b.n	d99e <_fputwc_r+0xaa>
    d990:	5ddb      	ldrb	r3, [r3, r7]
    d992:	6822      	ldr	r2, [r4, #0]
    d994:	7013      	strb	r3, [r2, #0]
    d996:	6823      	ldr	r3, [r4, #0]
    d998:	3301      	adds	r3, #1
    d99a:	6023      	str	r3, [r4, #0]
    d99c:	e000      	b.n	d9a0 <_fputwc_r+0xac>
    d99e:	b920      	cbnz	r0, d9aa <_fputwc_r+0xb6>
    d9a0:	3701      	adds	r7, #1
    d9a2:	4547      	cmp	r7, r8
    d9a4:	d1d3      	bne.n	d94e <_fputwc_r+0x5a>
    d9a6:	4628      	mov	r0, r5
    d9a8:	e001      	b.n	d9ae <_fputwc_r+0xba>
    d9aa:	f04f 30ff 	mov.w	r0, #4294967295
    d9ae:	e8bd 81fc 	ldmia.w	sp!, {r2, r3, r4, r5, r6, r7, r8, pc}
	...

0000d9b4 <fputwc>:
    d9b4:	b570      	push	{r4, r5, r6, lr}
    d9b6:	4605      	mov	r5, r0
    d9b8:	4e0f      	ldr	r6, [pc, #60]	; (d9f8 <fputwc+0x44>)
    d9ba:	460c      	mov	r4, r1
    d9bc:	6830      	ldr	r0, [r6, #0]
    d9be:	b118      	cbz	r0, d9c8 <fputwc+0x14>
    d9c0:	6983      	ldr	r3, [r0, #24]
    d9c2:	b90b      	cbnz	r3, d9c8 <fputwc+0x14>
    d9c4:	f7fb fc64 	bl	9290 <__sinit>
    d9c8:	4b0c      	ldr	r3, [pc, #48]	; (d9fc <fputwc+0x48>)
    d9ca:	429c      	cmp	r4, r3
    d9cc:	d102      	bne.n	d9d4 <fputwc+0x20>
    d9ce:	6833      	ldr	r3, [r6, #0]
    d9d0:	685c      	ldr	r4, [r3, #4]
    d9d2:	e00a      	b.n	d9ea <fputwc+0x36>
    d9d4:	4b0a      	ldr	r3, [pc, #40]	; (da00 <fputwc+0x4c>)
    d9d6:	429c      	cmp	r4, r3
    d9d8:	d102      	bne.n	d9e0 <fputwc+0x2c>
    d9da:	6833      	ldr	r3, [r6, #0]
    d9dc:	689c      	ldr	r4, [r3, #8]
    d9de:	e004      	b.n	d9ea <fputwc+0x36>
    d9e0:	4b08      	ldr	r3, [pc, #32]	; (da04 <fputwc+0x50>)
    d9e2:	429c      	cmp	r4, r3
    d9e4:	bf04      	itt	eq
    d9e6:	6833      	ldreq	r3, [r6, #0]
    d9e8:	68dc      	ldreq	r4, [r3, #12]
    d9ea:	6830      	ldr	r0, [r6, #0]
    d9ec:	4629      	mov	r1, r5
    d9ee:	4622      	mov	r2, r4
    d9f0:	e8bd 4070 	ldmia.w	sp!, {r4, r5, r6, lr}
    d9f4:	f7ff bf7e 	b.w	d8f4 <_fputwc_r>
    d9f8:	100000f4 	.word	0x100000f4
    d9fc:	000111a8 	.word	0x000111a8
    da00:	000111c8 	.word	0x000111c8
    da04:	000111e8 	.word	0x000111e8

0000da08 <_fstat_r>:
    da08:	b538      	push	{r3, r4, r5, lr}
    da0a:	4605      	mov	r5, r0
    da0c:	4c06      	ldr	r4, [pc, #24]	; (da28 <_fstat_r+0x20>)
    da0e:	4608      	mov	r0, r1
    da10:	4611      	mov	r1, r2
    da12:	2300      	movs	r3, #0
    da14:	6023      	str	r3, [r4, #0]
    da16:	f001 fccd 	bl	f3b4 <_fstat>
    da1a:	f1b0 3fff 	cmp.w	r0, #4294967295
    da1e:	d102      	bne.n	da26 <_fstat_r+0x1e>
    da20:	6823      	ldr	r3, [r4, #0]
    da22:	b103      	cbz	r3, da26 <_fstat_r+0x1e>
    da24:	602b      	str	r3, [r5, #0]
    da26:	bd38      	pop	{r3, r4, r5, pc}
    da28:	10000728 	.word	0x10000728

0000da2c <__sfvwrite_r>:
    da2c:	e92d 4ff7 	stmdb	sp!, {r0, r1, r2, r4, r5, r6, r7, r8, r9, sl, fp, lr}
    da30:	4606      	mov	r6, r0
    da32:	6890      	ldr	r0, [r2, #8]
    da34:	460c      	mov	r4, r1
    da36:	4692      	mov	sl, r2
    da38:	2800      	cmp	r0, #0
    da3a:	f000 8140 	beq.w	dcbe <__sfvwrite_r+0x292>
    da3e:	898b      	ldrh	r3, [r1, #12]
    da40:	f013 0f08 	tst.w	r3, #8
    da44:	d001      	beq.n	da4a <__sfvwrite_r+0x1e>
    da46:	690b      	ldr	r3, [r1, #16]
    da48:	b95b      	cbnz	r3, da62 <__sfvwrite_r+0x36>
    da4a:	4630      	mov	r0, r6
    da4c:	4621      	mov	r1, r4
    da4e:	f7fa fc05 	bl	825c <__swsetup_r>
    da52:	b130      	cbz	r0, da62 <__sfvwrite_r+0x36>
    da54:	89a3      	ldrh	r3, [r4, #12]
    da56:	f043 0340 	orr.w	r3, r3, #64	; 0x40
    da5a:	81a3      	strh	r3, [r4, #12]
    da5c:	2309      	movs	r3, #9
    da5e:	6033      	str	r3, [r6, #0]
    da60:	e12b      	b.n	dcba <__sfvwrite_r+0x28e>
    da62:	f8b4 900c 	ldrh.w	r9, [r4, #12]
    da66:	f8da 8000 	ldr.w	r8, [sl]
    da6a:	f019 0702 	ands.w	r7, r9, #2
    da6e:	d025      	beq.n	dabc <__sfvwrite_r+0x90>
    da70:	2700      	movs	r7, #0
    da72:	46b9      	mov	r9, r7
    da74:	e005      	b.n	da82 <__sfvwrite_r+0x56>
    da76:	f8d8 7000 	ldr.w	r7, [r8]
    da7a:	f8d8 9004 	ldr.w	r9, [r8, #4]
    da7e:	f108 0808 	add.w	r8, r8, #8
    da82:	f1b9 0f00 	cmp.w	r9, #0
    da86:	d0f6      	beq.n	da76 <__sfvwrite_r+0x4a>
    da88:	f5b9 7f80 	cmp.w	r9, #256	; 0x100
    da8c:	bf34      	ite	cc
    da8e:	464b      	movcc	r3, r9
    da90:	f44f 7380 	movcs.w	r3, #256	; 0x100
    da94:	6aa5      	ldr	r5, [r4, #40]	; 0x28
    da96:	4630      	mov	r0, r6
    da98:	6a21      	ldr	r1, [r4, #32]
    da9a:	463a      	mov	r2, r7
    da9c:	47a8      	blx	r5
    da9e:	1e03      	subs	r3, r0, #0
    daa0:	f340 8107 	ble.w	dcb2 <__sfvwrite_r+0x286>
    daa4:	f8da 0008 	ldr.w	r0, [sl, #8]
    daa8:	1ac0      	subs	r0, r0, r3
    daaa:	f8ca 0008 	str.w	r0, [sl, #8]
    daae:	2800      	cmp	r0, #0
    dab0:	f000 8105 	beq.w	dcbe <__sfvwrite_r+0x292>
    dab4:	18ff      	adds	r7, r7, r3
    dab6:	ebc3 0909 	rsb	r9, r3, r9
    daba:	e7e2      	b.n	da82 <__sfvwrite_r+0x56>
    dabc:	f019 0901 	ands.w	r9, r9, #1
    dac0:	d003      	beq.n	daca <__sfvwrite_r+0x9e>
    dac2:	9701      	str	r7, [sp, #4]
    dac4:	46b9      	mov	r9, r7
    dac6:	9700      	str	r7, [sp, #0]
    dac8:	e09b      	b.n	dc02 <__sfvwrite_r+0x1d6>
    daca:	464d      	mov	r5, r9
    dacc:	e005      	b.n	dada <__sfvwrite_r+0xae>
    dace:	f8d8 9000 	ldr.w	r9, [r8]
    dad2:	f8d8 5004 	ldr.w	r5, [r8, #4]
    dad6:	f108 0808 	add.w	r8, r8, #8
    dada:	2d00      	cmp	r5, #0
    dadc:	d0f7      	beq.n	dace <__sfvwrite_r+0xa2>
    dade:	89a3      	ldrh	r3, [r4, #12]
    dae0:	68a7      	ldr	r7, [r4, #8]
    dae2:	f413 7f00 	tst.w	r3, #512	; 0x200
    dae6:	d050      	beq.n	db8a <__sfvwrite_r+0x15e>
    dae8:	42bd      	cmp	r5, r7
    daea:	d340      	bcc.n	db6e <__sfvwrite_r+0x142>
    daec:	f413 6f90 	tst.w	r3, #1152	; 0x480
    daf0:	d03b      	beq.n	db6a <__sfvwrite_r+0x13e>
    daf2:	6921      	ldr	r1, [r4, #16]
    daf4:	6822      	ldr	r2, [r4, #0]
    daf6:	1a52      	subs	r2, r2, r1
    daf8:	9200      	str	r2, [sp, #0]
    dafa:	6962      	ldr	r2, [r4, #20]
    dafc:	9800      	ldr	r0, [sp, #0]
    dafe:	eb02 0b42 	add.w	fp, r2, r2, lsl #1
    db02:	1c42      	adds	r2, r0, #1
    db04:	1952      	adds	r2, r2, r5
    db06:	eb0b 7bdb 	add.w	fp, fp, fp, lsr #31
    db0a:	ea4f 0b6b 	mov.w	fp, fp, asr #1
    db0e:	4593      	cmp	fp, r2
    db10:	bf38      	it	cc
    db12:	4693      	movcc	fp, r2
    db14:	f413 6f80 	tst.w	r3, #1024	; 0x400
    db18:	d010      	beq.n	db3c <__sfvwrite_r+0x110>
    db1a:	4630      	mov	r0, r6
    db1c:	4659      	mov	r1, fp
    db1e:	f7fb fed5 	bl	98cc <_malloc_r>
    db22:	4607      	mov	r7, r0
    db24:	b1a0      	cbz	r0, db50 <__sfvwrite_r+0x124>
    db26:	6921      	ldr	r1, [r4, #16]
    db28:	9a00      	ldr	r2, [sp, #0]
    db2a:	f7fc f94b 	bl	9dc4 <memcpy>
    db2e:	89a3      	ldrh	r3, [r4, #12]
    db30:	f423 6390 	bic.w	r3, r3, #1152	; 0x480
    db34:	f043 0380 	orr.w	r3, r3, #128	; 0x80
    db38:	81a3      	strh	r3, [r4, #12]
    db3a:	e00c      	b.n	db56 <__sfvwrite_r+0x12a>
    db3c:	4630      	mov	r0, r6
    db3e:	465a      	mov	r2, fp
    db40:	f000 fc44 	bl	e3cc <_realloc_r>
    db44:	4607      	mov	r7, r0
    db46:	b930      	cbnz	r0, db56 <__sfvwrite_r+0x12a>
    db48:	4630      	mov	r0, r6
    db4a:	6921      	ldr	r1, [r4, #16]
    db4c:	f7fb fce6 	bl	951c <_free_r>
    db50:	230c      	movs	r3, #12
    db52:	6033      	str	r3, [r6, #0]
    db54:	e0ad      	b.n	dcb2 <__sfvwrite_r+0x286>
    db56:	9a00      	ldr	r2, [sp, #0]
    db58:	6127      	str	r7, [r4, #16]
    db5a:	18bf      	adds	r7, r7, r2
    db5c:	6027      	str	r7, [r4, #0]
    db5e:	462f      	mov	r7, r5
    db60:	ebc2 030b 	rsb	r3, r2, fp
    db64:	f8c4 b014 	str.w	fp, [r4, #20]
    db68:	60a3      	str	r3, [r4, #8]
    db6a:	42bd      	cmp	r5, r7
    db6c:	d200      	bcs.n	db70 <__sfvwrite_r+0x144>
    db6e:	462f      	mov	r7, r5
    db70:	463a      	mov	r2, r7
    db72:	6820      	ldr	r0, [r4, #0]
    db74:	4649      	mov	r1, r9
    db76:	f000 fbfd 	bl	e374 <memmove>
    db7a:	68a3      	ldr	r3, [r4, #8]
    db7c:	1bdb      	subs	r3, r3, r7
    db7e:	60a3      	str	r3, [r4, #8]
    db80:	6823      	ldr	r3, [r4, #0]
    db82:	19df      	adds	r7, r3, r7
    db84:	6027      	str	r7, [r4, #0]
    db86:	462f      	mov	r7, r5
    db88:	e028      	b.n	dbdc <__sfvwrite_r+0x1b0>
    db8a:	6820      	ldr	r0, [r4, #0]
    db8c:	6923      	ldr	r3, [r4, #16]
    db8e:	4298      	cmp	r0, r3
    db90:	d90e      	bls.n	dbb0 <__sfvwrite_r+0x184>
    db92:	42bd      	cmp	r5, r7
    db94:	d90c      	bls.n	dbb0 <__sfvwrite_r+0x184>
    db96:	4649      	mov	r1, r9
    db98:	463a      	mov	r2, r7
    db9a:	f000 fbeb 	bl	e374 <memmove>
    db9e:	6823      	ldr	r3, [r4, #0]
    dba0:	4630      	mov	r0, r6
    dba2:	4621      	mov	r1, r4
    dba4:	19db      	adds	r3, r3, r7
    dba6:	6023      	str	r3, [r4, #0]
    dba8:	f7fb fa5e 	bl	9068 <_fflush_r>
    dbac:	b1b0      	cbz	r0, dbdc <__sfvwrite_r+0x1b0>
    dbae:	e080      	b.n	dcb2 <__sfvwrite_r+0x286>
    dbb0:	6963      	ldr	r3, [r4, #20]
    dbb2:	429d      	cmp	r5, r3
    dbb4:	d307      	bcc.n	dbc6 <__sfvwrite_r+0x19a>
    dbb6:	6aa7      	ldr	r7, [r4, #40]	; 0x28
    dbb8:	4630      	mov	r0, r6
    dbba:	6a21      	ldr	r1, [r4, #32]
    dbbc:	464a      	mov	r2, r9
    dbbe:	47b8      	blx	r7
    dbc0:	1e07      	subs	r7, r0, #0
    dbc2:	dc0b      	bgt.n	dbdc <__sfvwrite_r+0x1b0>
    dbc4:	e075      	b.n	dcb2 <__sfvwrite_r+0x286>
    dbc6:	4649      	mov	r1, r9
    dbc8:	462a      	mov	r2, r5
    dbca:	f000 fbd3 	bl	e374 <memmove>
    dbce:	68a3      	ldr	r3, [r4, #8]
    dbd0:	462f      	mov	r7, r5
    dbd2:	1b5b      	subs	r3, r3, r5
    dbd4:	60a3      	str	r3, [r4, #8]
    dbd6:	6823      	ldr	r3, [r4, #0]
    dbd8:	195b      	adds	r3, r3, r5
    dbda:	6023      	str	r3, [r4, #0]
    dbdc:	f8da 0008 	ldr.w	r0, [sl, #8]
    dbe0:	1bc0      	subs	r0, r0, r7
    dbe2:	f8ca 0008 	str.w	r0, [sl, #8]
    dbe6:	2800      	cmp	r0, #0
    dbe8:	d069      	beq.n	dcbe <__sfvwrite_r+0x292>
    dbea:	44b9      	add	r9, r7
    dbec:	1bed      	subs	r5, r5, r7
    dbee:	e774      	b.n	dada <__sfvwrite_r+0xae>
    dbf0:	f8d8 3004 	ldr.w	r3, [r8, #4]
    dbf4:	2000      	movs	r0, #0
    dbf6:	f8d8 9000 	ldr.w	r9, [r8]
    dbfa:	f108 0808 	add.w	r8, r8, #8
    dbfe:	9001      	str	r0, [sp, #4]
    dc00:	9300      	str	r3, [sp, #0]
    dc02:	9a00      	ldr	r2, [sp, #0]
    dc04:	2a00      	cmp	r2, #0
    dc06:	d0f3      	beq.n	dbf0 <__sfvwrite_r+0x1c4>
    dc08:	9b01      	ldr	r3, [sp, #4]
    dc0a:	b973      	cbnz	r3, dc2a <__sfvwrite_r+0x1fe>
    dc0c:	4648      	mov	r0, r9
    dc0e:	210a      	movs	r1, #10
    dc10:	f7fc f8ca 	bl	9da8 <memchr>
    dc14:	b128      	cbz	r0, dc22 <__sfvwrite_r+0x1f6>
    dc16:	1c47      	adds	r7, r0, #1
    dc18:	2001      	movs	r0, #1
    dc1a:	ebc9 0707 	rsb	r7, r9, r7
    dc1e:	9001      	str	r0, [sp, #4]
    dc20:	e003      	b.n	dc2a <__sfvwrite_r+0x1fe>
    dc22:	9a00      	ldr	r2, [sp, #0]
    dc24:	2301      	movs	r3, #1
    dc26:	9301      	str	r3, [sp, #4]
    dc28:	1c57      	adds	r7, r2, #1
    dc2a:	f8dd b000 	ldr.w	fp, [sp]
    dc2e:	6820      	ldr	r0, [r4, #0]
    dc30:	6922      	ldr	r2, [r4, #16]
    dc32:	455f      	cmp	r7, fp
    dc34:	bf38      	it	cc
    dc36:	46bb      	movcc	fp, r7
    dc38:	68a5      	ldr	r5, [r4, #8]
    dc3a:	4290      	cmp	r0, r2
    dc3c:	6963      	ldr	r3, [r4, #20]
    dc3e:	d90f      	bls.n	dc60 <__sfvwrite_r+0x234>
    dc40:	195d      	adds	r5, r3, r5
    dc42:	45ab      	cmp	fp, r5
    dc44:	dd0c      	ble.n	dc60 <__sfvwrite_r+0x234>
    dc46:	4649      	mov	r1, r9
    dc48:	462a      	mov	r2, r5
    dc4a:	f000 fb93 	bl	e374 <memmove>
    dc4e:	6823      	ldr	r3, [r4, #0]
    dc50:	4630      	mov	r0, r6
    dc52:	4621      	mov	r1, r4
    dc54:	195b      	adds	r3, r3, r5
    dc56:	6023      	str	r3, [r4, #0]
    dc58:	f7fb fa06 	bl	9068 <_fflush_r>
    dc5c:	b1b0      	cbz	r0, dc8c <__sfvwrite_r+0x260>
    dc5e:	e028      	b.n	dcb2 <__sfvwrite_r+0x286>
    dc60:	459b      	cmp	fp, r3
    dc62:	db07      	blt.n	dc74 <__sfvwrite_r+0x248>
    dc64:	6aa5      	ldr	r5, [r4, #40]	; 0x28
    dc66:	4630      	mov	r0, r6
    dc68:	6a21      	ldr	r1, [r4, #32]
    dc6a:	464a      	mov	r2, r9
    dc6c:	47a8      	blx	r5
    dc6e:	1e05      	subs	r5, r0, #0
    dc70:	dc0c      	bgt.n	dc8c <__sfvwrite_r+0x260>
    dc72:	e01e      	b.n	dcb2 <__sfvwrite_r+0x286>
    dc74:	4649      	mov	r1, r9
    dc76:	465a      	mov	r2, fp
    dc78:	f000 fb7c 	bl	e374 <memmove>
    dc7c:	68a3      	ldr	r3, [r4, #8]
    dc7e:	465d      	mov	r5, fp
    dc80:	ebcb 0303 	rsb	r3, fp, r3
    dc84:	60a3      	str	r3, [r4, #8]
    dc86:	6823      	ldr	r3, [r4, #0]
    dc88:	445b      	add	r3, fp
    dc8a:	6023      	str	r3, [r4, #0]
    dc8c:	1b7f      	subs	r7, r7, r5
    dc8e:	d105      	bne.n	dc9c <__sfvwrite_r+0x270>
    dc90:	4630      	mov	r0, r6
    dc92:	4621      	mov	r1, r4
    dc94:	f7fb f9e8 	bl	9068 <_fflush_r>
    dc98:	b958      	cbnz	r0, dcb2 <__sfvwrite_r+0x286>
    dc9a:	9701      	str	r7, [sp, #4]
    dc9c:	f8da 0008 	ldr.w	r0, [sl, #8]
    dca0:	1b40      	subs	r0, r0, r5
    dca2:	f8ca 0008 	str.w	r0, [sl, #8]
    dca6:	b150      	cbz	r0, dcbe <__sfvwrite_r+0x292>
    dca8:	9800      	ldr	r0, [sp, #0]
    dcaa:	44a9      	add	r9, r5
    dcac:	1b40      	subs	r0, r0, r5
    dcae:	9000      	str	r0, [sp, #0]
    dcb0:	e7a7      	b.n	dc02 <__sfvwrite_r+0x1d6>
    dcb2:	89a3      	ldrh	r3, [r4, #12]
    dcb4:	f043 0340 	orr.w	r3, r3, #64	; 0x40
    dcb8:	81a3      	strh	r3, [r4, #12]
    dcba:	f04f 30ff 	mov.w	r0, #4294967295
    dcbe:	e8bd 8ffe 	ldmia.w	sp!, {r1, r2, r3, r4, r5, r6, r7, r8, r9, sl, fp, pc}

0000dcc2 <rshift>:
    dcc2:	b5f0      	push	{r4, r5, r6, r7, lr}
    dcc4:	114a      	asrs	r2, r1, #5
    dcc6:	6906      	ldr	r6, [r0, #16]
    dcc8:	f100 0314 	add.w	r3, r0, #20
    dccc:	42b2      	cmp	r2, r6
    dcce:	da26      	bge.n	dd1e <rshift+0x5c>
    dcd0:	3204      	adds	r2, #4
    dcd2:	eb00 0686 	add.w	r6, r0, r6, lsl #2
    dcd6:	3614      	adds	r6, #20
    dcd8:	eb00 0282 	add.w	r2, r0, r2, lsl #2
    dcdc:	1d14      	adds	r4, r2, #4
    dcde:	f011 011f 	ands.w	r1, r1, #31
    dce2:	d01a      	beq.n	dd1a <rshift+0x58>
    dce4:	6852      	ldr	r2, [r2, #4]
    dce6:	f1c1 0720 	rsb	r7, r1, #32
    dcea:	1d25      	adds	r5, r4, #4
    dcec:	40ca      	lsrs	r2, r1
    dcee:	e00a      	b.n	dd06 <rshift+0x44>
    dcf0:	f854 cf04 	ldr.w	ip, [r4, #4]!
    dcf4:	fa0c fc07 	lsl.w	ip, ip, r7
    dcf8:	ea42 020c 	orr.w	r2, r2, ip
    dcfc:	f843 2b04 	str.w	r2, [r3], #4
    dd00:	f855 2b04 	ldr.w	r2, [r5], #4
    dd04:	40ca      	lsrs	r2, r1
    dd06:	42b5      	cmp	r5, r6
    dd08:	d3f2      	bcc.n	dcf0 <rshift+0x2e>
    dd0a:	601a      	str	r2, [r3, #0]
    dd0c:	b13a      	cbz	r2, dd1e <rshift+0x5c>
    dd0e:	3304      	adds	r3, #4
    dd10:	e005      	b.n	dd1e <rshift+0x5c>
    dd12:	f854 2b04 	ldr.w	r2, [r4], #4
    dd16:	f843 2b04 	str.w	r2, [r3], #4
    dd1a:	42a6      	cmp	r6, r4
    dd1c:	d8f9      	bhi.n	dd12 <rshift+0x50>
    dd1e:	f100 0214 	add.w	r2, r0, #20
    dd22:	1a9b      	subs	r3, r3, r2
    dd24:	109b      	asrs	r3, r3, #2
    dd26:	6103      	str	r3, [r0, #16]
    dd28:	b903      	cbnz	r3, dd2c <rshift+0x6a>
    dd2a:	6143      	str	r3, [r0, #20]
    dd2c:	bdf0      	pop	{r4, r5, r6, r7, pc}
	...

0000dd30 <htinit.clone.0>:
    dd30:	b530      	push	{r4, r5, lr}
    dd32:	2300      	movs	r3, #0
    dd34:	e003      	b.n	dd3e <htinit.clone.0+0xe>
    dd36:	4c04      	ldr	r4, [pc, #16]	; (dd48 <htinit.clone.0+0x18>)
    dd38:	185d      	adds	r5, r3, r1
    dd3a:	3301      	adds	r3, #1
    dd3c:	54a5      	strb	r5, [r4, r2]
    dd3e:	5cc2      	ldrb	r2, [r0, r3]
    dd40:	2a00      	cmp	r2, #0
    dd42:	d1f8      	bne.n	dd36 <htinit.clone.0+0x6>
    dd44:	bd30      	pop	{r4, r5, pc}
    dd46:	bf00      	nop
    dd48:	10000628 	.word	0x10000628

0000dd4c <__hexdig_init>:
    dd4c:	b510      	push	{r4, lr}
    dd4e:	2110      	movs	r1, #16
    dd50:	4806      	ldr	r0, [pc, #24]	; (dd6c <__hexdig_init+0x20>)
    dd52:	f7ff ffed 	bl	dd30 <htinit.clone.0>
    dd56:	211a      	movs	r1, #26
    dd58:	4805      	ldr	r0, [pc, #20]	; (dd70 <__hexdig_init+0x24>)
    dd5a:	f7ff ffe9 	bl	dd30 <htinit.clone.0>
    dd5e:	4805      	ldr	r0, [pc, #20]	; (dd74 <__hexdig_init+0x28>)
    dd60:	211a      	movs	r1, #26
    dd62:	e8bd 4010 	ldmia.w	sp!, {r4, lr}
    dd66:	f7ff bfe3 	b.w	dd30 <htinit.clone.0>
    dd6a:	bf00      	nop
    dd6c:	000113a8 	.word	0x000113a8
    dd70:	00011057 	.word	0x00011057
    dd74:	00011046 	.word	0x00011046

0000dd78 <__gethex>:
    dd78:	e92d 4ff0 	stmdb	sp!, {r4, r5, r6, r7, r8, r9, sl, fp, lr}
    dd7c:	b089      	sub	sp, #36	; 0x24
    dd7e:	4614      	mov	r4, r2
    dd80:	9304      	str	r3, [sp, #16]
    dd82:	9101      	str	r1, [sp, #4]
    dd84:	9002      	str	r0, [sp, #8]
    dd86:	f7fb fd0f 	bl	97a8 <_localeconv_r>
    dd8a:	6800      	ldr	r0, [r0, #0]
    dd8c:	9003      	str	r0, [sp, #12]
    dd8e:	f7fc fdef 	bl	a970 <strlen>
    dd92:	9a03      	ldr	r2, [sp, #12]
    dd94:	1813      	adds	r3, r2, r0
    dd96:	4681      	mov	r9, r0
    dd98:	f813 3c01 	ldrb.w	r3, [r3, #-1]
    dd9c:	9305      	str	r3, [sp, #20]
    dd9e:	4b99      	ldr	r3, [pc, #612]	; (e004 <__gethex+0x28c>)
    dda0:	469b      	mov	fp, r3
    dda2:	f893 2030 	ldrb.w	r2, [r3, #48]	; 0x30
    dda6:	b90a      	cbnz	r2, ddac <__gethex+0x34>
    dda8:	f7ff ffd0 	bl	dd4c <__hexdig_init>
    ddac:	9a01      	ldr	r2, [sp, #4]
    ddae:	f04f 0800 	mov.w	r8, #0
    ddb2:	6813      	ldr	r3, [r2, #0]
    ddb4:	3302      	adds	r3, #2
    ddb6:	e001      	b.n	ddbc <__gethex+0x44>
    ddb8:	f108 0801 	add.w	r8, r8, #1
    ddbc:	461f      	mov	r7, r3
    ddbe:	f813 2b01 	ldrb.w	r2, [r3], #1
    ddc2:	2a30      	cmp	r2, #48	; 0x30
    ddc4:	d0f8      	beq.n	ddb8 <__gethex+0x40>
    ddc6:	f81b 6002 	ldrb.w	r6, [fp, r2]
    ddca:	b9de      	cbnz	r6, de04 <__gethex+0x8c>
    ddcc:	4638      	mov	r0, r7
    ddce:	9903      	ldr	r1, [sp, #12]
    ddd0:	464a      	mov	r2, r9
    ddd2:	f000 fcf9 	bl	e7c8 <strncmp>
    ddd6:	2800      	cmp	r0, #0
    ddd8:	d139      	bne.n	de4e <__gethex+0xd6>
    ddda:	f817 3009 	ldrb.w	r3, [r7, r9]
    ddde:	eb07 0a09 	add.w	sl, r7, r9
    dde2:	4a88      	ldr	r2, [pc, #544]	; (e004 <__gethex+0x28c>)
    dde4:	5cd6      	ldrb	r6, [r2, r3]
    dde6:	2e00      	cmp	r6, #0
    dde8:	d032      	beq.n	de50 <__gethex+0xd8>
    ddea:	4653      	mov	r3, sl
    ddec:	461f      	mov	r7, r3
    ddee:	f813 2b01 	ldrb.w	r2, [r3], #1
    ddf2:	2a30      	cmp	r2, #48	; 0x30
    ddf4:	d0fa      	beq.n	ddec <__gethex+0x74>
    ddf6:	f81b 3002 	ldrb.w	r3, [fp, r2]
    ddfa:	b933      	cbnz	r3, de0a <__gethex+0x92>
    ddfc:	2501      	movs	r5, #1
    ddfe:	4656      	mov	r6, sl
    de00:	46a8      	mov	r8, r5
    de02:	e006      	b.n	de12 <__gethex+0x9a>
    de04:	2500      	movs	r5, #0
    de06:	462e      	mov	r6, r5
    de08:	e003      	b.n	de12 <__gethex+0x9a>
    de0a:	4656      	mov	r6, sl
    de0c:	2500      	movs	r5, #0
    de0e:	f04f 0801 	mov.w	r8, #1
    de12:	463b      	mov	r3, r7
    de14:	469a      	mov	sl, r3
    de16:	f813 2b01 	ldrb.w	r2, [r3], #1
    de1a:	f81b 2002 	ldrb.w	r2, [fp, r2]
    de1e:	2a00      	cmp	r2, #0
    de20:	d1f8      	bne.n	de14 <__gethex+0x9c>
    de22:	4650      	mov	r0, sl
    de24:	9903      	ldr	r1, [sp, #12]
    de26:	464a      	mov	r2, r9
    de28:	f000 fcce 	bl	e7c8 <strncmp>
    de2c:	b950      	cbnz	r0, de44 <__gethex+0xcc>
    de2e:	b956      	cbnz	r6, de46 <__gethex+0xce>
    de30:	eb0a 0609 	add.w	r6, sl, r9
    de34:	4633      	mov	r3, r6
    de36:	781a      	ldrb	r2, [r3, #0]
    de38:	469a      	mov	sl, r3
    de3a:	3301      	adds	r3, #1
    de3c:	f81b 2002 	ldrb.w	r2, [fp, r2]
    de40:	2a00      	cmp	r2, #0
    de42:	d1f8      	bne.n	de36 <__gethex+0xbe>
    de44:	b12e      	cbz	r6, de52 <__gethex+0xda>
    de46:	ebca 0606 	rsb	r6, sl, r6
    de4a:	00b6      	lsls	r6, r6, #2
    de4c:	e001      	b.n	de52 <__gethex+0xda>
    de4e:	46ba      	mov	sl, r7
    de50:	2501      	movs	r5, #1
    de52:	f89a 3000 	ldrb.w	r3, [sl]
    de56:	2b50      	cmp	r3, #80	; 0x50
    de58:	d001      	beq.n	de5e <__gethex+0xe6>
    de5a:	2b70      	cmp	r3, #112	; 0x70
    de5c:	d128      	bne.n	deb0 <__gethex+0x138>
    de5e:	f89a 3001 	ldrb.w	r3, [sl, #1]
    de62:	f10a 0001 	add.w	r0, sl, #1
    de66:	2b2b      	cmp	r3, #43	; 0x2b
    de68:	d002      	beq.n	de70 <__gethex+0xf8>
    de6a:	2b2d      	cmp	r3, #45	; 0x2d
    de6c:	d105      	bne.n	de7a <__gethex+0x102>
    de6e:	e001      	b.n	de74 <__gethex+0xfc>
    de70:	2100      	movs	r1, #0
    de72:	e000      	b.n	de76 <__gethex+0xfe>
    de74:	2101      	movs	r1, #1
    de76:	3001      	adds	r0, #1
    de78:	e000      	b.n	de7c <__gethex+0x104>
    de7a:	2100      	movs	r1, #0
    de7c:	7803      	ldrb	r3, [r0, #0]
    de7e:	f81b 3003 	ldrb.w	r3, [fp, r3]
    de82:	b1ab      	cbz	r3, deb0 <__gethex+0x138>
    de84:	2b19      	cmp	r3, #25
    de86:	dc13      	bgt.n	deb0 <__gethex+0x138>
    de88:	3b10      	subs	r3, #16
    de8a:	e004      	b.n	de96 <__gethex+0x11e>
    de8c:	3810      	subs	r0, #16
    de8e:	220a      	movs	r2, #10
    de90:	fb02 0303 	mla	r3, r2, r3, r0
    de94:	4660      	mov	r0, ip
    de96:	f100 0c01 	add.w	ip, r0, #1
    de9a:	7840      	ldrb	r0, [r0, #1]
    de9c:	4662      	mov	r2, ip
    de9e:	f81b 0000 	ldrb.w	r0, [fp, r0]
    dea2:	b108      	cbz	r0, dea8 <__gethex+0x130>
    dea4:	2819      	cmp	r0, #25
    dea6:	ddf1      	ble.n	de8c <__gethex+0x114>
    dea8:	b101      	cbz	r1, deac <__gethex+0x134>
    deaa:	425b      	negs	r3, r3
    deac:	18f6      	adds	r6, r6, r3
    deae:	e000      	b.n	deb2 <__gethex+0x13a>
    deb0:	4652      	mov	r2, sl
    deb2:	9b01      	ldr	r3, [sp, #4]
    deb4:	601a      	str	r2, [r3, #0]
    deb6:	b13d      	cbz	r5, dec8 <__gethex+0x150>
    deb8:	f1b8 0f00 	cmp.w	r8, #0
    debc:	bf0c      	ite	eq
    debe:	f04f 0806 	moveq.w	r8, #6
    dec2:	f04f 0800 	movne.w	r8, #0
    dec6:	e182      	b.n	e1ce <__gethex+0x456>
    dec8:	f10a 33ff 	add.w	r3, sl, #4294967295
    decc:	4629      	mov	r1, r5
    dece:	1bdb      	subs	r3, r3, r7
    ded0:	e001      	b.n	ded6 <__gethex+0x15e>
    ded2:	3101      	adds	r1, #1
    ded4:	105b      	asrs	r3, r3, #1
    ded6:	2b07      	cmp	r3, #7
    ded8:	dcfb      	bgt.n	ded2 <__gethex+0x15a>
    deda:	9802      	ldr	r0, [sp, #8]
    dedc:	f04f 0800 	mov.w	r8, #0
    dee0:	f7fb ff85 	bl	9dee <_Balloc>
    dee4:	9607      	str	r6, [sp, #28]
    dee6:	4626      	mov	r6, r4
    dee8:	4644      	mov	r4, r8
    deea:	f100 0214 	add.w	r2, r0, #20
    deee:	9006      	str	r0, [sp, #24]
    def0:	9201      	str	r2, [sp, #4]
    def2:	4694      	mov	ip, r2
    def4:	e026      	b.n	df44 <__gethex+0x1cc>
    def6:	f81a 2c01 	ldrb.w	r2, [sl, #-1]
    defa:	f10a 35ff 	add.w	r5, sl, #4294967295
    defe:	9b05      	ldr	r3, [sp, #20]
    df00:	429a      	cmp	r2, r3
    df02:	d10e      	bne.n	df22 <__gethex+0x1aa>
    df04:	f1c9 0a01 	rsb	sl, r9, #1
    df08:	44aa      	add	sl, r5
    df0a:	45ba      	cmp	sl, r7
    df0c:	d309      	bcc.n	df22 <__gethex+0x1aa>
    df0e:	4650      	mov	r0, sl
    df10:	9903      	ldr	r1, [sp, #12]
    df12:	464a      	mov	r2, r9
    df14:	f8cd c000 	str.w	ip, [sp]
    df18:	f000 fc56 	bl	e7c8 <strncmp>
    df1c:	f8dd c000 	ldr.w	ip, [sp]
    df20:	b180      	cbz	r0, df44 <__gethex+0x1cc>
    df22:	2c20      	cmp	r4, #32
    df24:	d104      	bne.n	df30 <__gethex+0x1b8>
    df26:	f84c 8b04 	str.w	r8, [ip], #4
    df2a:	f04f 0800 	mov.w	r8, #0
    df2e:	4644      	mov	r4, r8
    df30:	782a      	ldrb	r2, [r5, #0]
    df32:	46aa      	mov	sl, r5
    df34:	f81b 2002 	ldrb.w	r2, [fp, r2]
    df38:	f002 020f 	and.w	r2, r2, #15
    df3c:	40a2      	lsls	r2, r4
    df3e:	3404      	adds	r4, #4
    df40:	ea48 0802 	orr.w	r8, r8, r2
    df44:	45ba      	cmp	sl, r7
    df46:	d8d6      	bhi.n	def6 <__gethex+0x17e>
    df48:	9d06      	ldr	r5, [sp, #24]
    df4a:	4663      	mov	r3, ip
    df4c:	4634      	mov	r4, r6
    df4e:	9e07      	ldr	r6, [sp, #28]
    df50:	f105 0714 	add.w	r7, r5, #20
    df54:	f843 8b04 	str.w	r8, [r3], #4
    df58:	1bdf      	subs	r7, r3, r7
    df5a:	4640      	mov	r0, r8
    df5c:	10bf      	asrs	r7, r7, #2
    df5e:	612f      	str	r7, [r5, #16]
    df60:	f7fc f809 	bl	9f76 <__hi0bits>
    df64:	017f      	lsls	r7, r7, #5
    df66:	ebc0 0807 	rsb	r8, r0, r7
    df6a:	6827      	ldr	r7, [r4, #0]
    df6c:	45b8      	cmp	r8, r7
    df6e:	dd2c      	ble.n	dfca <__gethex+0x252>
    df70:	ebc7 0808 	rsb	r8, r7, r8
    df74:	4628      	mov	r0, r5
    df76:	4641      	mov	r1, r8
    df78:	f7fc fb2f 	bl	a5da <__any_on>
    df7c:	b1d8      	cbz	r0, dfb6 <__gethex+0x23e>
    df7e:	f108 31ff 	add.w	r1, r8, #4294967295
    df82:	f04f 0901 	mov.w	r9, #1
    df86:	f001 021f 	and.w	r2, r1, #31
    df8a:	114b      	asrs	r3, r1, #5
    df8c:	fa09 f202 	lsl.w	r2, r9, r2
    df90:	eb05 0383 	add.w	r3, r5, r3, lsl #2
    df94:	695b      	ldr	r3, [r3, #20]
    df96:	421a      	tst	r2, r3
    df98:	d011      	beq.n	dfbe <__gethex+0x246>
    df9a:	4549      	cmp	r1, r9
    df9c:	dd0d      	ble.n	dfba <__gethex+0x242>
    df9e:	4628      	mov	r0, r5
    dfa0:	f1a8 0102 	sub.w	r1, r8, #2
    dfa4:	f7fc fb19 	bl	a5da <__any_on>
    dfa8:	2800      	cmp	r0, #0
    dfaa:	bf14      	ite	ne
    dfac:	f04f 0903 	movne.w	r9, #3
    dfb0:	f04f 0902 	moveq.w	r9, #2
    dfb4:	e003      	b.n	dfbe <__gethex+0x246>
    dfb6:	4681      	mov	r9, r0
    dfb8:	e001      	b.n	dfbe <__gethex+0x246>
    dfba:	f04f 0902 	mov.w	r9, #2
    dfbe:	4628      	mov	r0, r5
    dfc0:	4641      	mov	r1, r8
    dfc2:	f7ff fe7e 	bl	dcc2 <rshift>
    dfc6:	4446      	add	r6, r8
    dfc8:	e00f      	b.n	dfea <__gethex+0x272>
    dfca:	da0c      	bge.n	dfe6 <__gethex+0x26e>
    dfcc:	ebc8 0807 	rsb	r8, r8, r7
    dfd0:	4629      	mov	r1, r5
    dfd2:	4642      	mov	r2, r8
    dfd4:	9802      	ldr	r0, [sp, #8]
    dfd6:	f7fc f90d 	bl	a1f4 <__lshift>
    dfda:	ebc8 0606 	rsb	r6, r8, r6
    dfde:	4605      	mov	r5, r0
    dfe0:	f100 0214 	add.w	r2, r0, #20
    dfe4:	9201      	str	r2, [sp, #4]
    dfe6:	f04f 0900 	mov.w	r9, #0
    dfea:	68a3      	ldr	r3, [r4, #8]
    dfec:	429e      	cmp	r6, r3
    dfee:	dd0b      	ble.n	e008 <__gethex+0x290>
    dff0:	9802      	ldr	r0, [sp, #8]
    dff2:	4629      	mov	r1, r5
    dff4:	f7fb ff2c 	bl	9e50 <_Bfree>
    dff8:	9a12      	ldr	r2, [sp, #72]	; 0x48
    dffa:	2300      	movs	r3, #0
    dffc:	f04f 08a3 	mov.w	r8, #163	; 0xa3
    e000:	6013      	str	r3, [r2, #0]
    e002:	e0e4      	b.n	e1ce <__gethex+0x456>
    e004:	10000628 	.word	0x10000628
    e008:	6863      	ldr	r3, [r4, #4]
    e00a:	429e      	cmp	r6, r3
    e00c:	da56      	bge.n	e0bc <__gethex+0x344>
    e00e:	1b9e      	subs	r6, r3, r6
    e010:	42be      	cmp	r6, r7
    e012:	db2b      	blt.n	e06c <__gethex+0x2f4>
    e014:	68e3      	ldr	r3, [r4, #12]
    e016:	2b02      	cmp	r3, #2
    e018:	d00d      	beq.n	e036 <__gethex+0x2be>
    e01a:	2b03      	cmp	r3, #3
    e01c:	d00e      	beq.n	e03c <__gethex+0x2c4>
    e01e:	2b01      	cmp	r3, #1
    e020:	d11a      	bne.n	e058 <__gethex+0x2e0>
    e022:	42be      	cmp	r6, r7
    e024:	d118      	bne.n	e058 <__gethex+0x2e0>
    e026:	2f01      	cmp	r7, #1
    e028:	dd0a      	ble.n	e040 <__gethex+0x2c8>
    e02a:	4628      	mov	r0, r5
    e02c:	1e79      	subs	r1, r7, #1
    e02e:	f7fc fad4 	bl	a5da <__any_on>
    e032:	b928      	cbnz	r0, e040 <__gethex+0x2c8>
    e034:	e010      	b.n	e058 <__gethex+0x2e0>
    e036:	9b13      	ldr	r3, [sp, #76]	; 0x4c
    e038:	b113      	cbz	r3, e040 <__gethex+0x2c8>
    e03a:	e00d      	b.n	e058 <__gethex+0x2e0>
    e03c:	9a13      	ldr	r2, [sp, #76]	; 0x4c
    e03e:	b15a      	cbz	r2, e058 <__gethex+0x2e0>
    e040:	6863      	ldr	r3, [r4, #4]
    e042:	f04f 0862 	mov.w	r8, #98	; 0x62
    e046:	9a04      	ldr	r2, [sp, #16]
    e048:	6013      	str	r3, [r2, #0]
    e04a:	2301      	movs	r3, #1
    e04c:	9a01      	ldr	r2, [sp, #4]
    e04e:	612b      	str	r3, [r5, #16]
    e050:	6013      	str	r3, [r2, #0]
    e052:	9b12      	ldr	r3, [sp, #72]	; 0x48
    e054:	601d      	str	r5, [r3, #0]
    e056:	e0ba      	b.n	e1ce <__gethex+0x456>
    e058:	9802      	ldr	r0, [sp, #8]
    e05a:	4629      	mov	r1, r5
    e05c:	f7fb fef8 	bl	9e50 <_Bfree>
    e060:	9a12      	ldr	r2, [sp, #72]	; 0x48
    e062:	2300      	movs	r3, #0
    e064:	f04f 0850 	mov.w	r8, #80	; 0x50
    e068:	6013      	str	r3, [r2, #0]
    e06a:	e0b0      	b.n	e1ce <__gethex+0x456>
    e06c:	f106 38ff 	add.w	r8, r6, #4294967295
    e070:	f1b9 0f00 	cmp.w	r9, #0
    e074:	d108      	bne.n	e088 <__gethex+0x310>
    e076:	f1b8 0f00 	cmp.w	r8, #0
    e07a:	dd07      	ble.n	e08c <__gethex+0x314>
    e07c:	4628      	mov	r0, r5
    e07e:	4641      	mov	r1, r8
    e080:	f7fc faab 	bl	a5da <__any_on>
    e084:	4681      	mov	r9, r0
    e086:	e001      	b.n	e08c <__gethex+0x314>
    e088:	f04f 0901 	mov.w	r9, #1
    e08c:	2201      	movs	r2, #1
    e08e:	ea4f 1368 	mov.w	r3, r8, asr #5
    e092:	f008 081f 	and.w	r8, r8, #31
    e096:	4631      	mov	r1, r6
    e098:	fa02 f808 	lsl.w	r8, r2, r8
    e09c:	9a01      	ldr	r2, [sp, #4]
    e09e:	4628      	mov	r0, r5
    e0a0:	1bbf      	subs	r7, r7, r6
    e0a2:	f852 3023 	ldr.w	r3, [r2, r3, lsl #2]
    e0a6:	ea18 0f03 	tst.w	r8, r3
    e0aa:	f04f 0802 	mov.w	r8, #2
    e0ae:	bf18      	it	ne
    e0b0:	f049 0902 	orrne.w	r9, r9, #2
    e0b4:	f7ff fe05 	bl	dcc2 <rshift>
    e0b8:	6866      	ldr	r6, [r4, #4]
    e0ba:	e001      	b.n	e0c0 <__gethex+0x348>
    e0bc:	f04f 0801 	mov.w	r8, #1
    e0c0:	f1b9 0f00 	cmp.w	r9, #0
    e0c4:	d07f      	beq.n	e1c6 <__gethex+0x44e>
    e0c6:	68e3      	ldr	r3, [r4, #12]
    e0c8:	2b02      	cmp	r3, #2
    e0ca:	d00e      	beq.n	e0ea <__gethex+0x372>
    e0cc:	2b03      	cmp	r3, #3
    e0ce:	d010      	beq.n	e0f2 <__gethex+0x37a>
    e0d0:	2b01      	cmp	r3, #1
    e0d2:	d176      	bne.n	e1c2 <__gethex+0x44a>
    e0d4:	f019 0f02 	tst.w	r9, #2
    e0d8:	d073      	beq.n	e1c2 <__gethex+0x44a>
    e0da:	9a01      	ldr	r2, [sp, #4]
    e0dc:	6813      	ldr	r3, [r2, #0]
    e0de:	ea49 0903 	orr.w	r9, r9, r3
    e0e2:	f019 0f01 	tst.w	r9, #1
    e0e6:	d107      	bne.n	e0f8 <__gethex+0x380>
    e0e8:	e06b      	b.n	e1c2 <__gethex+0x44a>
    e0ea:	9a13      	ldr	r2, [sp, #76]	; 0x4c
    e0ec:	f1c2 0301 	rsb	r3, r2, #1
    e0f0:	e000      	b.n	e0f4 <__gethex+0x37c>
    e0f2:	9b13      	ldr	r3, [sp, #76]	; 0x4c
    e0f4:	2b00      	cmp	r3, #0
    e0f6:	d064      	beq.n	e1c2 <__gethex+0x44a>
    e0f8:	f8d5 9010 	ldr.w	r9, [r5, #16]
    e0fc:	f105 0314 	add.w	r3, r5, #20
    e100:	eb05 0089 	add.w	r0, r5, r9, lsl #2
    e104:	3014      	adds	r0, #20
    e106:	4619      	mov	r1, r3
    e108:	f853 2b04 	ldr.w	r2, [r3], #4
    e10c:	f1b2 3fff 	cmp.w	r2, #4294967295
    e110:	d002      	beq.n	e118 <__gethex+0x3a0>
    e112:	3201      	adds	r2, #1
    e114:	600a      	str	r2, [r1, #0]
    e116:	e021      	b.n	e15c <__gethex+0x3e4>
    e118:	2200      	movs	r2, #0
    e11a:	4298      	cmp	r0, r3
    e11c:	f843 2c04 	str.w	r2, [r3, #-4]
    e120:	d8f1      	bhi.n	e106 <__gethex+0x38e>
    e122:	68ab      	ldr	r3, [r5, #8]
    e124:	4599      	cmp	r9, r3
    e126:	db12      	blt.n	e14e <__gethex+0x3d6>
    e128:	6869      	ldr	r1, [r5, #4]
    e12a:	9802      	ldr	r0, [sp, #8]
    e12c:	3101      	adds	r1, #1
    e12e:	f7fb fe5e 	bl	9dee <_Balloc>
    e132:	692a      	ldr	r2, [r5, #16]
    e134:	f105 010c 	add.w	r1, r5, #12
    e138:	3202      	adds	r2, #2
    e13a:	0092      	lsls	r2, r2, #2
    e13c:	4682      	mov	sl, r0
    e13e:	300c      	adds	r0, #12
    e140:	f7fb fe40 	bl	9dc4 <memcpy>
    e144:	4629      	mov	r1, r5
    e146:	9802      	ldr	r0, [sp, #8]
    e148:	4655      	mov	r5, sl
    e14a:	f7fb fe81 	bl	9e50 <_Bfree>
    e14e:	692b      	ldr	r3, [r5, #16]
    e150:	2101      	movs	r1, #1
    e152:	eb05 0283 	add.w	r2, r5, r3, lsl #2
    e156:	185b      	adds	r3, r3, r1
    e158:	612b      	str	r3, [r5, #16]
    e15a:	6151      	str	r1, [r2, #20]
    e15c:	f1b8 0f02 	cmp.w	r8, #2
    e160:	d112      	bne.n	e188 <__gethex+0x410>
    e162:	6823      	ldr	r3, [r4, #0]
    e164:	3b01      	subs	r3, #1
    e166:	429f      	cmp	r7, r3
    e168:	d128      	bne.n	e1bc <__gethex+0x444>
    e16a:	f007 031f 	and.w	r3, r7, #31
    e16e:	117f      	asrs	r7, r7, #5
    e170:	2201      	movs	r2, #1
    e172:	eb05 0787 	add.w	r7, r5, r7, lsl #2
    e176:	409a      	lsls	r2, r3
    e178:	697b      	ldr	r3, [r7, #20]
    e17a:	421a      	tst	r2, r3
    e17c:	bf0c      	ite	eq
    e17e:	f04f 0802 	moveq.w	r8, #2
    e182:	f04f 0801 	movne.w	r8, #1
    e186:	e019      	b.n	e1bc <__gethex+0x444>
    e188:	692b      	ldr	r3, [r5, #16]
    e18a:	454b      	cmp	r3, r9
    e18c:	dc0b      	bgt.n	e1a6 <__gethex+0x42e>
    e18e:	f017 071f 	ands.w	r7, r7, #31
    e192:	d011      	beq.n	e1b8 <__gethex+0x440>
    e194:	eb05 0389 	add.w	r3, r5, r9, lsl #2
    e198:	f1c7 0720 	rsb	r7, r7, #32
    e19c:	6918      	ldr	r0, [r3, #16]
    e19e:	f7fb feea 	bl	9f76 <__hi0bits>
    e1a2:	42b8      	cmp	r0, r7
    e1a4:	da08      	bge.n	e1b8 <__gethex+0x440>
    e1a6:	2101      	movs	r1, #1
    e1a8:	4628      	mov	r0, r5
    e1aa:	f7ff fd8a 	bl	dcc2 <rshift>
    e1ae:	68a3      	ldr	r3, [r4, #8]
    e1b0:	3601      	adds	r6, #1
    e1b2:	429e      	cmp	r6, r3
    e1b4:	f73f af1c 	bgt.w	dff0 <__gethex+0x278>
    e1b8:	f04f 0801 	mov.w	r8, #1
    e1bc:	f048 0820 	orr.w	r8, r8, #32
    e1c0:	e001      	b.n	e1c6 <__gethex+0x44e>
    e1c2:	f048 0810 	orr.w	r8, r8, #16
    e1c6:	9b12      	ldr	r3, [sp, #72]	; 0x48
    e1c8:	9a04      	ldr	r2, [sp, #16]
    e1ca:	601d      	str	r5, [r3, #0]
    e1cc:	6016      	str	r6, [r2, #0]
    e1ce:	4640      	mov	r0, r8
    e1d0:	b009      	add	sp, #36	; 0x24
    e1d2:	e8bd 8ff0 	ldmia.w	sp!, {r4, r5, r6, r7, r8, r9, sl, fp, pc}
    e1d6:	bf00      	nop

0000e1d8 <L_shift>:
    e1d8:	f1c2 0208 	rsb	r2, r2, #8
    e1dc:	4603      	mov	r3, r0
    e1de:	b5f0      	push	{r4, r5, r6, r7, lr}
    e1e0:	0092      	lsls	r2, r2, #2
    e1e2:	f1c2 0620 	rsb	r6, r2, #32
    e1e6:	4605      	mov	r5, r0
    e1e8:	4604      	mov	r4, r0
    e1ea:	f855 cf04 	ldr.w	ip, [r5, #4]!
    e1ee:	6807      	ldr	r7, [r0, #0]
    e1f0:	fa0c fc06 	lsl.w	ip, ip, r6
    e1f4:	ea4c 0707 	orr.w	r7, ip, r7
    e1f8:	f840 7b04 	str.w	r7, [r0], #4
    e1fc:	f853 7f04 	ldr.w	r7, [r3, #4]!
    e200:	40d7      	lsrs	r7, r2
    e202:	4288      	cmp	r0, r1
    e204:	f844 7f04 	str.w	r7, [r4, #4]!
    e208:	d3ef      	bcc.n	e1ea <L_shift+0x12>
    e20a:	bdf0      	pop	{r4, r5, r6, r7, pc}

0000e20c <__hexnan>:
    e20c:	4b45      	ldr	r3, [pc, #276]	; (e324 <__hexnan+0x118>)
    e20e:	e92d 4ff7 	stmdb	sp!, {r0, r1, r2, r4, r5, r6, r7, r8, r9, sl, fp, lr}
    e212:	4615      	mov	r5, r2
    e214:	f893 2030 	ldrb.w	r2, [r3, #48]	; 0x30
    e218:	460c      	mov	r4, r1
    e21a:	9001      	str	r0, [sp, #4]
    e21c:	b90a      	cbnz	r2, e222 <__hexnan+0x16>
    e21e:	f7ff fd95 	bl	dd4c <__hexdig_init>
    e222:	6823      	ldr	r3, [r4, #0]
    e224:	9801      	ldr	r0, [sp, #4]
    e226:	115f      	asrs	r7, r3, #5
    e228:	f013 031f 	ands.w	r3, r3, #31
    e22c:	9300      	str	r3, [sp, #0]
    e22e:	eb05 0787 	add.w	r7, r5, r7, lsl #2
    e232:	6803      	ldr	r3, [r0, #0]
    e234:	bf18      	it	ne
    e236:	3704      	addne	r7, #4
    e238:	2200      	movs	r2, #0
    e23a:	1f3e      	subs	r6, r7, #4
    e23c:	4692      	mov	sl, r2
    e23e:	f847 2c04 	str.w	r2, [r7, #-4]
    e242:	46b0      	mov	r8, r6
    e244:	4634      	mov	r4, r6
    e246:	4691      	mov	r9, r2
    e248:	e031      	b.n	e2ae <__hexnan+0xa2>
    e24a:	4836      	ldr	r0, [pc, #216]	; (e324 <__hexnan+0x118>)
    e24c:	5cc1      	ldrb	r1, [r0, r3]
    e24e:	b9d1      	cbnz	r1, e286 <__hexnan+0x7a>
    e250:	2b20      	cmp	r3, #32
    e252:	d811      	bhi.n	e278 <__hexnan+0x6c>
    e254:	45ca      	cmp	sl, r9
    e256:	da29      	bge.n	e2ac <__hexnan+0xa0>
    e258:	4544      	cmp	r4, r8
    e25a:	d205      	bcs.n	e268 <__hexnan+0x5c>
    e25c:	2a07      	cmp	r2, #7
    e25e:	dc03      	bgt.n	e268 <__hexnan+0x5c>
    e260:	4620      	mov	r0, r4
    e262:	4641      	mov	r1, r8
    e264:	f7ff ffb8 	bl	e1d8 <L_shift>
    e268:	42ac      	cmp	r4, r5
    e26a:	d91e      	bls.n	e2aa <__hexnan+0x9e>
    e26c:	2200      	movs	r2, #0
    e26e:	46ca      	mov	sl, r9
    e270:	f844 2d04 	str.w	r2, [r4, #-4]!
    e274:	46a0      	mov	r8, r4
    e276:	e019      	b.n	e2ac <__hexnan+0xa0>
    e278:	2b29      	cmp	r3, #41	; 0x29
    e27a:	d14d      	bne.n	e318 <__hexnan+0x10c>
    e27c:	9901      	ldr	r1, [sp, #4]
    e27e:	f10b 0301 	add.w	r3, fp, #1
    e282:	600b      	str	r3, [r1, #0]
    e284:	e018      	b.n	e2b8 <__hexnan+0xac>
    e286:	3201      	adds	r2, #1
    e288:	f109 0901 	add.w	r9, r9, #1
    e28c:	2a08      	cmp	r2, #8
    e28e:	dd05      	ble.n	e29c <__hexnan+0x90>
    e290:	42ac      	cmp	r4, r5
    e292:	d90b      	bls.n	e2ac <__hexnan+0xa0>
    e294:	2201      	movs	r2, #1
    e296:	2300      	movs	r3, #0
    e298:	f844 3d04 	str.w	r3, [r4, #-4]!
    e29c:	6823      	ldr	r3, [r4, #0]
    e29e:	f001 010f 	and.w	r1, r1, #15
    e2a2:	ea41 1103 	orr.w	r1, r1, r3, lsl #4
    e2a6:	6021      	str	r1, [r4, #0]
    e2a8:	e000      	b.n	e2ac <__hexnan+0xa0>
    e2aa:	2208      	movs	r2, #8
    e2ac:	465b      	mov	r3, fp
    e2ae:	f103 0b01 	add.w	fp, r3, #1
    e2b2:	785b      	ldrb	r3, [r3, #1]
    e2b4:	2b00      	cmp	r3, #0
    e2b6:	d1c8      	bne.n	e24a <__hexnan+0x3e>
    e2b8:	f1b9 0f00 	cmp.w	r9, #0
    e2bc:	d02c      	beq.n	e318 <__hexnan+0x10c>
    e2be:	4544      	cmp	r4, r8
    e2c0:	d205      	bcs.n	e2ce <__hexnan+0xc2>
    e2c2:	2a07      	cmp	r2, #7
    e2c4:	dc03      	bgt.n	e2ce <__hexnan+0xc2>
    e2c6:	4620      	mov	r0, r4
    e2c8:	4641      	mov	r1, r8
    e2ca:	f7ff ff85 	bl	e1d8 <L_shift>
    e2ce:	42ac      	cmp	r4, r5
    e2d0:	d90d      	bls.n	e2ee <__hexnan+0xe2>
    e2d2:	462b      	mov	r3, r5
    e2d4:	f854 2b04 	ldr.w	r2, [r4], #4
    e2d8:	42a6      	cmp	r6, r4
    e2da:	f843 2b04 	str.w	r2, [r3], #4
    e2de:	461a      	mov	r2, r3
    e2e0:	d2f8      	bcs.n	e2d4 <__hexnan+0xc8>
    e2e2:	2300      	movs	r3, #0
    e2e4:	f842 3b04 	str.w	r3, [r2], #4
    e2e8:	42b2      	cmp	r2, r6
    e2ea:	d9fa      	bls.n	e2e2 <__hexnan+0xd6>
    e2ec:	e00b      	b.n	e306 <__hexnan+0xfa>
    e2ee:	9a00      	ldr	r2, [sp, #0]
    e2f0:	b14a      	cbz	r2, e306 <__hexnan+0xfa>
    e2f2:	f1c2 0320 	rsb	r3, r2, #32
    e2f6:	f04f 32ff 	mov.w	r2, #4294967295
    e2fa:	fa32 f303 	lsrs.w	r3, r2, r3
    e2fe:	6832      	ldr	r2, [r6, #0]
    e300:	ea02 0303 	and.w	r3, r2, r3
    e304:	6033      	str	r3, [r6, #0]
    e306:	f857 3c04 	ldr.w	r3, [r7, #-4]
    e30a:	3f04      	subs	r7, #4
    e30c:	b933      	cbnz	r3, e31c <__hexnan+0x110>
    e30e:	42bd      	cmp	r5, r7
    e310:	d1f9      	bne.n	e306 <__hexnan+0xfa>
    e312:	3301      	adds	r3, #1
    e314:	602b      	str	r3, [r5, #0]
    e316:	e001      	b.n	e31c <__hexnan+0x110>
    e318:	2004      	movs	r0, #4
    e31a:	e000      	b.n	e31e <__hexnan+0x112>
    e31c:	2005      	movs	r0, #5
    e31e:	e8bd 8ffe 	ldmia.w	sp!, {r1, r2, r3, r4, r5, r6, r7, r8, r9, sl, fp, pc}
    e322:	bf00      	nop
    e324:	10000628 	.word	0x10000628

0000e328 <_isatty_r>:
    e328:	b538      	push	{r3, r4, r5, lr}
    e32a:	4605      	mov	r5, r0
    e32c:	4c06      	ldr	r4, [pc, #24]	; (e348 <_isatty_r+0x20>)
    e32e:	4608      	mov	r0, r1
    e330:	2300      	movs	r3, #0
    e332:	6023      	str	r3, [r4, #0]
    e334:	f001 f840 	bl	f3b8 <_isatty>
    e338:	f1b0 3fff 	cmp.w	r0, #4294967295
    e33c:	d102      	bne.n	e344 <_isatty_r+0x1c>
    e33e:	6823      	ldr	r3, [r4, #0]
    e340:	b103      	cbz	r3, e344 <_isatty_r+0x1c>
    e342:	602b      	str	r3, [r5, #0]
    e344:	bd38      	pop	{r3, r4, r5, pc}
    e346:	bf00      	nop
    e348:	10000728 	.word	0x10000728

0000e34c <_lseek_r>:
    e34c:	b538      	push	{r3, r4, r5, lr}
    e34e:	4605      	mov	r5, r0
    e350:	4c07      	ldr	r4, [pc, #28]	; (e370 <_lseek_r+0x24>)
    e352:	2000      	movs	r0, #0
    e354:	6020      	str	r0, [r4, #0]
    e356:	4608      	mov	r0, r1
    e358:	4611      	mov	r1, r2
    e35a:	461a      	mov	r2, r3
    e35c:	f001 f828 	bl	f3b0 <_lseek>
    e360:	f1b0 3fff 	cmp.w	r0, #4294967295
    e364:	d102      	bne.n	e36c <_lseek_r+0x20>
    e366:	6823      	ldr	r3, [r4, #0]
    e368:	b103      	cbz	r3, e36c <_lseek_r+0x20>
    e36a:	602b      	str	r3, [r5, #0]
    e36c:	bd38      	pop	{r3, r4, r5, pc}
    e36e:	bf00      	nop
    e370:	10000728 	.word	0x10000728

0000e374 <memmove>:
    e374:	4281      	cmp	r1, r0
    e376:	b510      	push	{r4, lr}
    e378:	4604      	mov	r4, r0
    e37a:	d210      	bcs.n	e39e <memmove+0x2a>
    e37c:	188b      	adds	r3, r1, r2
    e37e:	4298      	cmp	r0, r3
    e380:	d20d      	bcs.n	e39e <memmove+0x2a>
    e382:	4619      	mov	r1, r3
    e384:	1883      	adds	r3, r0, r2
    e386:	e003      	b.n	e390 <memmove+0x1c>
    e388:	f811 4d01 	ldrb.w	r4, [r1, #-1]!
    e38c:	f803 4d01 	strb.w	r4, [r3, #-1]!
    e390:	3a01      	subs	r2, #1
    e392:	d2f9      	bcs.n	e388 <memmove+0x14>
    e394:	bd10      	pop	{r4, pc}
    e396:	f811 3b01 	ldrb.w	r3, [r1], #1
    e39a:	f804 3b01 	strb.w	r3, [r4], #1
    e39e:	3a01      	subs	r2, #1
    e3a0:	d2f9      	bcs.n	e396 <memmove+0x22>
    e3a2:	bd10      	pop	{r4, pc}

0000e3a4 <_read_r>:
    e3a4:	b538      	push	{r3, r4, r5, lr}
    e3a6:	4605      	mov	r5, r0
    e3a8:	4c07      	ldr	r4, [pc, #28]	; (e3c8 <_read_r+0x24>)
    e3aa:	2000      	movs	r0, #0
    e3ac:	6020      	str	r0, [r4, #0]
    e3ae:	4608      	mov	r0, r1
    e3b0:	4611      	mov	r1, r2
    e3b2:	461a      	mov	r2, r3
    e3b4:	f000 ff82 	bl	f2bc <_read>
    e3b8:	f1b0 3fff 	cmp.w	r0, #4294967295
    e3bc:	d102      	bne.n	e3c4 <_read_r+0x20>
    e3be:	6823      	ldr	r3, [r4, #0]
    e3c0:	b103      	cbz	r3, e3c4 <_read_r+0x20>
    e3c2:	602b      	str	r3, [r5, #0]
    e3c4:	bd38      	pop	{r3, r4, r5, pc}
    e3c6:	bf00      	nop
    e3c8:	10000728 	.word	0x10000728

0000e3cc <_realloc_r>:
    e3cc:	e92d 4ff7 	stmdb	sp!, {r0, r1, r2, r4, r5, r6, r7, r8, r9, sl, fp, lr}
    e3d0:	4681      	mov	r9, r0
    e3d2:	4617      	mov	r7, r2
    e3d4:	460e      	mov	r6, r1
    e3d6:	b929      	cbnz	r1, e3e4 <_realloc_r+0x18>
    e3d8:	4611      	mov	r1, r2
    e3da:	b003      	add	sp, #12
    e3dc:	e8bd 4ff0 	ldmia.w	sp!, {r4, r5, r6, r7, r8, r9, sl, fp, lr}
    e3e0:	f7fb ba74 	b.w	98cc <_malloc_r>
    e3e4:	f107 050b 	add.w	r5, r7, #11
    e3e8:	f7fb fcff 	bl	9dea <__malloc_lock>
    e3ec:	f1a6 0a08 	sub.w	sl, r6, #8
    e3f0:	2d16      	cmp	r5, #22
    e3f2:	f8da 2004 	ldr.w	r2, [sl, #4]
    e3f6:	d903      	bls.n	e400 <_realloc_r+0x34>
    e3f8:	f035 0507 	bics.w	r5, r5, #7
    e3fc:	d501      	bpl.n	e402 <_realloc_r+0x36>
    e3fe:	e002      	b.n	e406 <_realloc_r+0x3a>
    e400:	2510      	movs	r5, #16
    e402:	42bd      	cmp	r5, r7
    e404:	d204      	bcs.n	e410 <_realloc_r+0x44>
    e406:	230c      	movs	r3, #12
    e408:	2700      	movs	r7, #0
    e40a:	f8c9 3000 	str.w	r3, [r9]
    e40e:	e155      	b.n	e6bc <_realloc_r+0x2f0>
    e410:	f022 0b03 	bic.w	fp, r2, #3
    e414:	45ab      	cmp	fp, r5
    e416:	f280 8126 	bge.w	e666 <_realloc_r+0x29a>
    e41a:	4b9f      	ldr	r3, [pc, #636]	; (e698 <_realloc_r+0x2cc>)
    e41c:	eb0a 010b 	add.w	r1, sl, fp
    e420:	f8d3 e008 	ldr.w	lr, [r3, #8]
    e424:	4571      	cmp	r1, lr
    e426:	d007      	beq.n	e438 <_realloc_r+0x6c>
    e428:	6848      	ldr	r0, [r1, #4]
    e42a:	f020 0001 	bic.w	r0, r0, #1
    e42e:	1808      	adds	r0, r1, r0
    e430:	6840      	ldr	r0, [r0, #4]
    e432:	f010 0f01 	tst.w	r0, #1
    e436:	d125      	bne.n	e484 <_realloc_r+0xb8>
    e438:	6848      	ldr	r0, [r1, #4]
    e43a:	4571      	cmp	r1, lr
    e43c:	f020 0003 	bic.w	r0, r0, #3
    e440:	eb00 080b 	add.w	r8, r0, fp
    e444:	d117      	bne.n	e476 <_realloc_r+0xaa>
    e446:	f105 0410 	add.w	r4, r5, #16
    e44a:	45a0      	cmp	r8, r4
    e44c:	db1c      	blt.n	e488 <_realloc_r+0xbc>
    e44e:	eb0a 0205 	add.w	r2, sl, r5
    e452:	ebc5 0808 	rsb	r8, r5, r8
    e456:	609a      	str	r2, [r3, #8]
    e458:	f048 0301 	orr.w	r3, r8, #1
    e45c:	6053      	str	r3, [r2, #4]
    e45e:	4648      	mov	r0, r9
    e460:	f8da 3004 	ldr.w	r3, [sl, #4]
    e464:	4637      	mov	r7, r6
    e466:	f003 0301 	and.w	r3, r3, #1
    e46a:	431d      	orrs	r5, r3
    e46c:	f8ca 5004 	str.w	r5, [sl, #4]
    e470:	f7fb fcbc 	bl	9dec <__malloc_unlock>
    e474:	e122      	b.n	e6bc <_realloc_r+0x2f0>
    e476:	45a8      	cmp	r8, r5
    e478:	db06      	blt.n	e488 <_realloc_r+0xbc>
    e47a:	68cb      	ldr	r3, [r1, #12]
    e47c:	688a      	ldr	r2, [r1, #8]
    e47e:	60d3      	str	r3, [r2, #12]
    e480:	609a      	str	r2, [r3, #8]
    e482:	e0f1      	b.n	e668 <_realloc_r+0x29c>
    e484:	2000      	movs	r0, #0
    e486:	4601      	mov	r1, r0
    e488:	f012 0f01 	tst.w	r2, #1
    e48c:	f040 809c 	bne.w	e5c8 <_realloc_r+0x1fc>
    e490:	f856 4c08 	ldr.w	r4, [r6, #-8]
    e494:	ebc4 040a 	rsb	r4, r4, sl
    e498:	6862      	ldr	r2, [r4, #4]
    e49a:	f022 0203 	bic.w	r2, r2, #3
    e49e:	2900      	cmp	r1, #0
    e4a0:	d057      	beq.n	e552 <_realloc_r+0x186>
    e4a2:	4571      	cmp	r1, lr
    e4a4:	eb02 080b 	add.w	r8, r2, fp
    e4a8:	d14b      	bne.n	e542 <_realloc_r+0x176>
    e4aa:	4480      	add	r8, r0
    e4ac:	f105 0110 	add.w	r1, r5, #16
    e4b0:	4588      	cmp	r8, r1
    e4b2:	db4e      	blt.n	e552 <_realloc_r+0x186>
    e4b4:	4627      	mov	r7, r4
    e4b6:	68e2      	ldr	r2, [r4, #12]
    e4b8:	f857 1f08 	ldr.w	r1, [r7, #8]!
    e4bc:	60ca      	str	r2, [r1, #12]
    e4be:	6091      	str	r1, [r2, #8]
    e4c0:	f1ab 0204 	sub.w	r2, fp, #4
    e4c4:	2a24      	cmp	r2, #36	; 0x24
    e4c6:	d829      	bhi.n	e51c <_realloc_r+0x150>
    e4c8:	2a13      	cmp	r2, #19
    e4ca:	4639      	mov	r1, r7
    e4cc:	d91b      	bls.n	e506 <_realloc_r+0x13a>
    e4ce:	4630      	mov	r0, r6
    e4d0:	f850 1b04 	ldr.w	r1, [r0], #4
    e4d4:	60a1      	str	r1, [r4, #8]
    e4d6:	6871      	ldr	r1, [r6, #4]
    e4d8:	1d06      	adds	r6, r0, #4
    e4da:	2a1b      	cmp	r2, #27
    e4dc:	60e1      	str	r1, [r4, #12]
    e4de:	f104 0110 	add.w	r1, r4, #16
    e4e2:	d910      	bls.n	e506 <_realloc_r+0x13a>
    e4e4:	6841      	ldr	r1, [r0, #4]
    e4e6:	1d30      	adds	r0, r6, #4
    e4e8:	6121      	str	r1, [r4, #16]
    e4ea:	6871      	ldr	r1, [r6, #4]
    e4ec:	3608      	adds	r6, #8
    e4ee:	2a24      	cmp	r2, #36	; 0x24
    e4f0:	6161      	str	r1, [r4, #20]
    e4f2:	f104 0118 	add.w	r1, r4, #24
    e4f6:	d106      	bne.n	e506 <_realloc_r+0x13a>
    e4f8:	6842      	ldr	r2, [r0, #4]
    e4fa:	f104 0120 	add.w	r1, r4, #32
    e4fe:	61a2      	str	r2, [r4, #24]
    e500:	6872      	ldr	r2, [r6, #4]
    e502:	3608      	adds	r6, #8
    e504:	61e2      	str	r2, [r4, #28]
    e506:	4630      	mov	r0, r6
    e508:	460a      	mov	r2, r1
    e50a:	f850 eb04 	ldr.w	lr, [r0], #4
    e50e:	f842 eb04 	str.w	lr, [r2], #4
    e512:	6876      	ldr	r6, [r6, #4]
    e514:	604e      	str	r6, [r1, #4]
    e516:	6841      	ldr	r1, [r0, #4]
    e518:	6051      	str	r1, [r2, #4]
    e51a:	e005      	b.n	e528 <_realloc_r+0x15c>
    e51c:	4638      	mov	r0, r7
    e51e:	4631      	mov	r1, r6
    e520:	9301      	str	r3, [sp, #4]
    e522:	f7ff ff27 	bl	e374 <memmove>
    e526:	9b01      	ldr	r3, [sp, #4]
    e528:	1962      	adds	r2, r4, r5
    e52a:	ebc5 0808 	rsb	r8, r5, r8
    e52e:	609a      	str	r2, [r3, #8]
    e530:	f048 0301 	orr.w	r3, r8, #1
    e534:	6053      	str	r3, [r2, #4]
    e536:	6863      	ldr	r3, [r4, #4]
    e538:	f003 0301 	and.w	r3, r3, #1
    e53c:	431d      	orrs	r5, r3
    e53e:	6065      	str	r5, [r4, #4]
    e540:	e08d      	b.n	e65e <_realloc_r+0x292>
    e542:	4480      	add	r8, r0
    e544:	45a8      	cmp	r8, r5
    e546:	db04      	blt.n	e552 <_realloc_r+0x186>
    e548:	68cb      	ldr	r3, [r1, #12]
    e54a:	688a      	ldr	r2, [r1, #8]
    e54c:	60d3      	str	r3, [r2, #12]
    e54e:	609a      	str	r2, [r3, #8]
    e550:	e003      	b.n	e55a <_realloc_r+0x18e>
    e552:	eb02 080b 	add.w	r8, r2, fp
    e556:	45a8      	cmp	r8, r5
    e558:	db36      	blt.n	e5c8 <_realloc_r+0x1fc>
    e55a:	4620      	mov	r0, r4
    e55c:	68e3      	ldr	r3, [r4, #12]
    e55e:	f850 2f08 	ldr.w	r2, [r0, #8]!
    e562:	60d3      	str	r3, [r2, #12]
    e564:	609a      	str	r2, [r3, #8]
    e566:	f1ab 0204 	sub.w	r2, fp, #4
    e56a:	2a24      	cmp	r2, #36	; 0x24
    e56c:	d828      	bhi.n	e5c0 <_realloc_r+0x1f4>
    e56e:	2a13      	cmp	r2, #19
    e570:	d91b      	bls.n	e5aa <_realloc_r+0x1de>
    e572:	4633      	mov	r3, r6
    e574:	f104 0010 	add.w	r0, r4, #16
    e578:	f853 1b04 	ldr.w	r1, [r3], #4
    e57c:	60a1      	str	r1, [r4, #8]
    e57e:	6871      	ldr	r1, [r6, #4]
    e580:	1d1e      	adds	r6, r3, #4
    e582:	2a1b      	cmp	r2, #27
    e584:	60e1      	str	r1, [r4, #12]
    e586:	d910      	bls.n	e5aa <_realloc_r+0x1de>
    e588:	685b      	ldr	r3, [r3, #4]
    e58a:	f104 0018 	add.w	r0, r4, #24
    e58e:	6123      	str	r3, [r4, #16]
    e590:	1d33      	adds	r3, r6, #4
    e592:	6871      	ldr	r1, [r6, #4]
    e594:	3608      	adds	r6, #8
    e596:	2a24      	cmp	r2, #36	; 0x24
    e598:	6161      	str	r1, [r4, #20]
    e59a:	d106      	bne.n	e5aa <_realloc_r+0x1de>
    e59c:	685b      	ldr	r3, [r3, #4]
    e59e:	f104 0020 	add.w	r0, r4, #32
    e5a2:	61a3      	str	r3, [r4, #24]
    e5a4:	6873      	ldr	r3, [r6, #4]
    e5a6:	3608      	adds	r6, #8
    e5a8:	61e3      	str	r3, [r4, #28]
    e5aa:	4632      	mov	r2, r6
    e5ac:	4603      	mov	r3, r0
    e5ae:	f852 1b04 	ldr.w	r1, [r2], #4
    e5b2:	f843 1b04 	str.w	r1, [r3], #4
    e5b6:	6871      	ldr	r1, [r6, #4]
    e5b8:	6041      	str	r1, [r0, #4]
    e5ba:	6852      	ldr	r2, [r2, #4]
    e5bc:	605a      	str	r2, [r3, #4]
    e5be:	e054      	b.n	e66a <_realloc_r+0x29e>
    e5c0:	4631      	mov	r1, r6
    e5c2:	f7ff fed7 	bl	e374 <memmove>
    e5c6:	e050      	b.n	e66a <_realloc_r+0x29e>
    e5c8:	4639      	mov	r1, r7
    e5ca:	4648      	mov	r0, r9
    e5cc:	f7fb f97e 	bl	98cc <_malloc_r>
    e5d0:	4607      	mov	r7, r0
    e5d2:	2800      	cmp	r0, #0
    e5d4:	d043      	beq.n	e65e <_realloc_r+0x292>
    e5d6:	f8da 2004 	ldr.w	r2, [sl, #4]
    e5da:	f1a0 0308 	sub.w	r3, r0, #8
    e5de:	f022 0201 	bic.w	r2, r2, #1
    e5e2:	4452      	add	r2, sl
    e5e4:	4293      	cmp	r3, r2
    e5e6:	d105      	bne.n	e5f4 <_realloc_r+0x228>
    e5e8:	f850 3c04 	ldr.w	r3, [r0, #-4]
    e5ec:	f023 0803 	bic.w	r8, r3, #3
    e5f0:	44d8      	add	r8, fp
    e5f2:	e039      	b.n	e668 <_realloc_r+0x29c>
    e5f4:	f1ab 0204 	sub.w	r2, fp, #4
    e5f8:	2a24      	cmp	r2, #36	; 0x24
    e5fa:	d829      	bhi.n	e650 <_realloc_r+0x284>
    e5fc:	2a13      	cmp	r2, #19
    e5fe:	4631      	mov	r1, r6
    e600:	4603      	mov	r3, r0
    e602:	d91a      	bls.n	e63a <_realloc_r+0x26e>
    e604:	4634      	mov	r4, r6
    e606:	f854 3b04 	ldr.w	r3, [r4], #4
    e60a:	1d21      	adds	r1, r4, #4
    e60c:	f840 3b04 	str.w	r3, [r0], #4
    e610:	6873      	ldr	r3, [r6, #4]
    e612:	607b      	str	r3, [r7, #4]
    e614:	1d03      	adds	r3, r0, #4
    e616:	2a1b      	cmp	r2, #27
    e618:	d90f      	bls.n	e63a <_realloc_r+0x26e>
    e61a:	6864      	ldr	r4, [r4, #4]
    e61c:	6044      	str	r4, [r0, #4]
    e61e:	1d0c      	adds	r4, r1, #4
    e620:	6849      	ldr	r1, [r1, #4]
    e622:	1d18      	adds	r0, r3, #4
    e624:	6059      	str	r1, [r3, #4]
    e626:	3308      	adds	r3, #8
    e628:	1d21      	adds	r1, r4, #4
    e62a:	2a24      	cmp	r2, #36	; 0x24
    e62c:	d105      	bne.n	e63a <_realloc_r+0x26e>
    e62e:	6862      	ldr	r2, [r4, #4]
    e630:	6042      	str	r2, [r0, #4]
    e632:	684a      	ldr	r2, [r1, #4]
    e634:	3108      	adds	r1, #8
    e636:	605a      	str	r2, [r3, #4]
    e638:	3308      	adds	r3, #8
    e63a:	4608      	mov	r0, r1
    e63c:	461a      	mov	r2, r3
    e63e:	f850 4b04 	ldr.w	r4, [r0], #4
    e642:	f842 4b04 	str.w	r4, [r2], #4
    e646:	6849      	ldr	r1, [r1, #4]
    e648:	6059      	str	r1, [r3, #4]
    e64a:	6843      	ldr	r3, [r0, #4]
    e64c:	6053      	str	r3, [r2, #4]
    e64e:	e002      	b.n	e656 <_realloc_r+0x28a>
    e650:	4631      	mov	r1, r6
    e652:	f7ff fe8f 	bl	e374 <memmove>
    e656:	4648      	mov	r0, r9
    e658:	4631      	mov	r1, r6
    e65a:	f7fa ff5f 	bl	951c <_free_r>
    e65e:	4648      	mov	r0, r9
    e660:	f7fb fbc4 	bl	9dec <__malloc_unlock>
    e664:	e02a      	b.n	e6bc <_realloc_r+0x2f0>
    e666:	46d8      	mov	r8, fp
    e668:	4654      	mov	r4, sl
    e66a:	ebc5 0308 	rsb	r3, r5, r8
    e66e:	6862      	ldr	r2, [r4, #4]
    e670:	2b0f      	cmp	r3, #15
    e672:	d913      	bls.n	e69c <_realloc_r+0x2d0>
    e674:	1961      	adds	r1, r4, r5
    e676:	f002 0201 	and.w	r2, r2, #1
    e67a:	4315      	orrs	r5, r2
    e67c:	f043 0201 	orr.w	r2, r3, #1
    e680:	18cb      	adds	r3, r1, r3
    e682:	6065      	str	r5, [r4, #4]
    e684:	604a      	str	r2, [r1, #4]
    e686:	4648      	mov	r0, r9
    e688:	685a      	ldr	r2, [r3, #4]
    e68a:	3108      	adds	r1, #8
    e68c:	f042 0201 	orr.w	r2, r2, #1
    e690:	605a      	str	r2, [r3, #4]
    e692:	f7fa ff43 	bl	951c <_free_r>
    e696:	e00c      	b.n	e6b2 <_realloc_r+0x2e6>
    e698:	10000174 	.word	0x10000174
    e69c:	eb04 0308 	add.w	r3, r4, r8
    e6a0:	f002 0201 	and.w	r2, r2, #1
    e6a4:	ea48 0202 	orr.w	r2, r8, r2
    e6a8:	6062      	str	r2, [r4, #4]
    e6aa:	685a      	ldr	r2, [r3, #4]
    e6ac:	f042 0201 	orr.w	r2, r2, #1
    e6b0:	605a      	str	r2, [r3, #4]
    e6b2:	4648      	mov	r0, r9
    e6b4:	f104 0708 	add.w	r7, r4, #8
    e6b8:	f7fb fb98 	bl	9dec <__malloc_unlock>
    e6bc:	4638      	mov	r0, r7
    e6be:	b003      	add	sp, #12
    e6c0:	e8bd 8ff0 	ldmia.w	sp!, {r4, r5, r6, r7, r8, r9, sl, fp, pc}

0000e6c4 <cleanup_glue>:
    e6c4:	b570      	push	{r4, r5, r6, lr}
    e6c6:	460c      	mov	r4, r1
    e6c8:	6809      	ldr	r1, [r1, #0]
    e6ca:	4605      	mov	r5, r0
    e6cc:	b109      	cbz	r1, e6d2 <cleanup_glue+0xe>
    e6ce:	f7ff fff9 	bl	e6c4 <cleanup_glue>
    e6d2:	4628      	mov	r0, r5
    e6d4:	4621      	mov	r1, r4
    e6d6:	e8bd 4070 	ldmia.w	sp!, {r4, r5, r6, lr}
    e6da:	f7fa bf1f 	b.w	951c <_free_r>
	...

0000e6e0 <_reclaim_reent>:
    e6e0:	4b2b      	ldr	r3, [pc, #172]	; (e790 <_reclaim_reent+0xb0>)
    e6e2:	b570      	push	{r4, r5, r6, lr}
    e6e4:	4604      	mov	r4, r0
    e6e6:	681b      	ldr	r3, [r3, #0]
    e6e8:	4298      	cmp	r0, r3
    e6ea:	d050      	beq.n	e78e <_reclaim_reent+0xae>
    e6ec:	6a43      	ldr	r3, [r0, #36]	; 0x24
    e6ee:	b1db      	cbz	r3, e728 <_reclaim_reent+0x48>
    e6f0:	68db      	ldr	r3, [r3, #12]
    e6f2:	b19b      	cbz	r3, e71c <_reclaim_reent+0x3c>
    e6f4:	2500      	movs	r5, #0
    e6f6:	6a63      	ldr	r3, [r4, #36]	; 0x24
    e6f8:	68db      	ldr	r3, [r3, #12]
    e6fa:	5959      	ldr	r1, [r3, r5]
    e6fc:	e004      	b.n	e708 <_reclaim_reent+0x28>
    e6fe:	680e      	ldr	r6, [r1, #0]
    e700:	4620      	mov	r0, r4
    e702:	f7fa ff0b 	bl	951c <_free_r>
    e706:	4631      	mov	r1, r6
    e708:	2900      	cmp	r1, #0
    e70a:	d1f8      	bne.n	e6fe <_reclaim_reent+0x1e>
    e70c:	3504      	adds	r5, #4
    e70e:	2d80      	cmp	r5, #128	; 0x80
    e710:	d1f1      	bne.n	e6f6 <_reclaim_reent+0x16>
    e712:	6a63      	ldr	r3, [r4, #36]	; 0x24
    e714:	4620      	mov	r0, r4
    e716:	68d9      	ldr	r1, [r3, #12]
    e718:	f7fa ff00 	bl	951c <_free_r>
    e71c:	6a63      	ldr	r3, [r4, #36]	; 0x24
    e71e:	6819      	ldr	r1, [r3, #0]
    e720:	b111      	cbz	r1, e728 <_reclaim_reent+0x48>
    e722:	4620      	mov	r0, r4
    e724:	f7fa fefa 	bl	951c <_free_r>
    e728:	6961      	ldr	r1, [r4, #20]
    e72a:	b111      	cbz	r1, e732 <_reclaim_reent+0x52>
    e72c:	4620      	mov	r0, r4
    e72e:	f7fa fef5 	bl	951c <_free_r>
    e732:	6a61      	ldr	r1, [r4, #36]	; 0x24
    e734:	b111      	cbz	r1, e73c <_reclaim_reent+0x5c>
    e736:	4620      	mov	r0, r4
    e738:	f7fa fef0 	bl	951c <_free_r>
    e73c:	6ba1      	ldr	r1, [r4, #56]	; 0x38
    e73e:	b111      	cbz	r1, e746 <_reclaim_reent+0x66>
    e740:	4620      	mov	r0, r4
    e742:	f7fa feeb 	bl	951c <_free_r>
    e746:	6be1      	ldr	r1, [r4, #60]	; 0x3c
    e748:	b111      	cbz	r1, e750 <_reclaim_reent+0x70>
    e74a:	4620      	mov	r0, r4
    e74c:	f7fa fee6 	bl	951c <_free_r>
    e750:	6c21      	ldr	r1, [r4, #64]	; 0x40
    e752:	b111      	cbz	r1, e75a <_reclaim_reent+0x7a>
    e754:	4620      	mov	r0, r4
    e756:	f7fa fee1 	bl	951c <_free_r>
    e75a:	6ca3      	ldr	r3, [r4, #72]	; 0x48
    e75c:	b12b      	cbz	r3, e76a <_reclaim_reent+0x8a>
    e75e:	f8d3 1088 	ldr.w	r1, [r3, #136]	; 0x88
    e762:	b111      	cbz	r1, e76a <_reclaim_reent+0x8a>
    e764:	4620      	mov	r0, r4
    e766:	f7fa fed9 	bl	951c <_free_r>
    e76a:	6b61      	ldr	r1, [r4, #52]	; 0x34
    e76c:	b111      	cbz	r1, e774 <_reclaim_reent+0x94>
    e76e:	4620      	mov	r0, r4
    e770:	f7fa fed4 	bl	951c <_free_r>
    e774:	69a3      	ldr	r3, [r4, #24]
    e776:	b153      	cbz	r3, e78e <_reclaim_reent+0xae>
    e778:	6aa3      	ldr	r3, [r4, #40]	; 0x28
    e77a:	4620      	mov	r0, r4
    e77c:	4798      	blx	r3
    e77e:	f8d4 10d8 	ldr.w	r1, [r4, #216]	; 0xd8
    e782:	b121      	cbz	r1, e78e <_reclaim_reent+0xae>
    e784:	4620      	mov	r0, r4
    e786:	e8bd 4070 	ldmia.w	sp!, {r4, r5, r6, lr}
    e78a:	f7ff bf9b 	b.w	e6c4 <cleanup_glue>
    e78e:	bd70      	pop	{r4, r5, r6, pc}
    e790:	100000f4 	.word	0x100000f4

0000e794 <_wrapup_reent>:
    e794:	b570      	push	{r4, r5, r6, lr}
    e796:	4604      	mov	r4, r0
    e798:	b908      	cbnz	r0, e79e <_wrapup_reent+0xa>
    e79a:	4b0a      	ldr	r3, [pc, #40]	; (e7c4 <_wrapup_reent+0x30>)
    e79c:	681c      	ldr	r4, [r3, #0]
    e79e:	6ca3      	ldr	r3, [r4, #72]	; 0x48
    e7a0:	b10b      	cbz	r3, e7a6 <_wrapup_reent+0x12>
    e7a2:	685d      	ldr	r5, [r3, #4]
    e7a4:	e000      	b.n	e7a8 <_wrapup_reent+0x14>
    e7a6:	461d      	mov	r5, r3
    e7a8:	1cae      	adds	r6, r5, #2
    e7aa:	eb03 0686 	add.w	r6, r3, r6, lsl #2
    e7ae:	e002      	b.n	e7b6 <_wrapup_reent+0x22>
    e7b0:	f856 3d04 	ldr.w	r3, [r6, #-4]!
    e7b4:	4798      	blx	r3
    e7b6:	3d01      	subs	r5, #1
    e7b8:	d5fa      	bpl.n	e7b0 <_wrapup_reent+0x1c>
    e7ba:	6aa3      	ldr	r3, [r4, #40]	; 0x28
    e7bc:	b10b      	cbz	r3, e7c2 <_wrapup_reent+0x2e>
    e7be:	4620      	mov	r0, r4
    e7c0:	4798      	blx	r3
    e7c2:	bd70      	pop	{r4, r5, r6, pc}
    e7c4:	100000f4 	.word	0x100000f4

0000e7c8 <strncmp>:
    e7c8:	b570      	push	{r4, r5, r6, lr}
    e7ca:	b91a      	cbnz	r2, e7d4 <strncmp+0xc>
    e7cc:	e00f      	b.n	e7ee <strncmp+0x26>
    e7ce:	3a01      	subs	r2, #1
    e7d0:	d009      	beq.n	e7e6 <strncmp+0x1e>
    e7d2:	b143      	cbz	r3, e7e6 <strncmp+0x1e>
    e7d4:	460c      	mov	r4, r1
    e7d6:	4605      	mov	r5, r0
    e7d8:	b12a      	cbz	r2, e7e6 <strncmp+0x1e>
    e7da:	f810 3b01 	ldrb.w	r3, [r0], #1
    e7de:	f811 6b01 	ldrb.w	r6, [r1], #1
    e7e2:	42b3      	cmp	r3, r6
    e7e4:	d0f3      	beq.n	e7ce <strncmp+0x6>
    e7e6:	7828      	ldrb	r0, [r5, #0]
    e7e8:	7823      	ldrb	r3, [r4, #0]
    e7ea:	1ac0      	subs	r0, r0, r3
    e7ec:	bd70      	pop	{r4, r5, r6, pc}
    e7ee:	4610      	mov	r0, r2
    e7f0:	bd70      	pop	{r4, r5, r6, pc}

0000e7f2 <__ssprint_r>:
    e7f2:	e92d 4ff7 	stmdb	sp!, {r0, r1, r2, r4, r5, r6, r7, r8, r9, sl, fp, lr}
    e7f6:	4681      	mov	r9, r0
    e7f8:	6890      	ldr	r0, [r2, #8]
    e7fa:	460c      	mov	r4, r1
    e7fc:	4615      	mov	r5, r2
    e7fe:	f8d2 b000 	ldr.w	fp, [r2]
    e802:	b118      	cbz	r0, e80c <__ssprint_r+0x1a>
    e804:	2300      	movs	r3, #0
    e806:	9301      	str	r3, [sp, #4]
    e808:	461e      	mov	r6, r3
    e80a:	e008      	b.n	e81e <__ssprint_r+0x2c>
    e80c:	6050      	str	r0, [r2, #4]
    e80e:	e069      	b.n	e8e4 <__ssprint_r+0xf2>
    e810:	f8db 3000 	ldr.w	r3, [fp]
    e814:	f8db 6004 	ldr.w	r6, [fp, #4]
    e818:	f10b 0b08 	add.w	fp, fp, #8
    e81c:	9301      	str	r3, [sp, #4]
    e81e:	2e00      	cmp	r6, #0
    e820:	d0f6      	beq.n	e810 <__ssprint_r+0x1e>
    e822:	68a7      	ldr	r7, [r4, #8]
    e824:	42be      	cmp	r6, r7
    e826:	d34a      	bcc.n	e8be <__ssprint_r+0xcc>
    e828:	89a3      	ldrh	r3, [r4, #12]
    e82a:	f413 6f90 	tst.w	r3, #1152	; 0x480
    e82e:	d044      	beq.n	e8ba <__ssprint_r+0xc8>
    e830:	6822      	ldr	r2, [r4, #0]
    e832:	6921      	ldr	r1, [r4, #16]
    e834:	ebc1 0a02 	rsb	sl, r1, r2
    e838:	6962      	ldr	r2, [r4, #20]
    e83a:	eb02 0842 	add.w	r8, r2, r2, lsl #1
    e83e:	f10a 0201 	add.w	r2, sl, #1
    e842:	1992      	adds	r2, r2, r6
    e844:	eb08 78d8 	add.w	r8, r8, r8, lsr #31
    e848:	ea4f 0868 	mov.w	r8, r8, asr #1
    e84c:	4590      	cmp	r8, r2
    e84e:	bf38      	it	cc
    e850:	4690      	movcc	r8, r2
    e852:	f413 6f80 	tst.w	r3, #1024	; 0x400
    e856:	d010      	beq.n	e87a <__ssprint_r+0x88>
    e858:	4648      	mov	r0, r9
    e85a:	4641      	mov	r1, r8
    e85c:	f7fb f836 	bl	98cc <_malloc_r>
    e860:	4607      	mov	r7, r0
    e862:	b1a0      	cbz	r0, e88e <__ssprint_r+0x9c>
    e864:	6921      	ldr	r1, [r4, #16]
    e866:	4652      	mov	r2, sl
    e868:	f7fb faac 	bl	9dc4 <memcpy>
    e86c:	89a3      	ldrh	r3, [r4, #12]
    e86e:	f423 6390 	bic.w	r3, r3, #1152	; 0x480
    e872:	f043 0380 	orr.w	r3, r3, #128	; 0x80
    e876:	81a3      	strh	r3, [r4, #12]
    e878:	e016      	b.n	e8a8 <__ssprint_r+0xb6>
    e87a:	4648      	mov	r0, r9
    e87c:	4642      	mov	r2, r8
    e87e:	f7ff fda5 	bl	e3cc <_realloc_r>
    e882:	4607      	mov	r7, r0
    e884:	b980      	cbnz	r0, e8a8 <__ssprint_r+0xb6>
    e886:	4648      	mov	r0, r9
    e888:	6921      	ldr	r1, [r4, #16]
    e88a:	f7fa fe47 	bl	951c <_free_r>
    e88e:	230c      	movs	r3, #12
    e890:	f8c9 3000 	str.w	r3, [r9]
    e894:	89a3      	ldrh	r3, [r4, #12]
    e896:	f04f 30ff 	mov.w	r0, #4294967295
    e89a:	f043 0340 	orr.w	r3, r3, #64	; 0x40
    e89e:	81a3      	strh	r3, [r4, #12]
    e8a0:	2300      	movs	r3, #0
    e8a2:	60ab      	str	r3, [r5, #8]
    e8a4:	606b      	str	r3, [r5, #4]
    e8a6:	e01d      	b.n	e8e4 <__ssprint_r+0xf2>
    e8a8:	6127      	str	r7, [r4, #16]
    e8aa:	4457      	add	r7, sl
    e8ac:	6027      	str	r7, [r4, #0]
    e8ae:	4637      	mov	r7, r6
    e8b0:	ebca 0308 	rsb	r3, sl, r8
    e8b4:	f8c4 8014 	str.w	r8, [r4, #20]
    e8b8:	60a3      	str	r3, [r4, #8]
    e8ba:	42be      	cmp	r6, r7
    e8bc:	d200      	bcs.n	e8c0 <__ssprint_r+0xce>
    e8be:	4637      	mov	r7, r6
    e8c0:	463a      	mov	r2, r7
    e8c2:	6820      	ldr	r0, [r4, #0]
    e8c4:	9901      	ldr	r1, [sp, #4]
    e8c6:	f7ff fd55 	bl	e374 <memmove>
    e8ca:	68a3      	ldr	r3, [r4, #8]
    e8cc:	1bdb      	subs	r3, r3, r7
    e8ce:	60a3      	str	r3, [r4, #8]
    e8d0:	6823      	ldr	r3, [r4, #0]
    e8d2:	19df      	adds	r7, r3, r7
    e8d4:	68ab      	ldr	r3, [r5, #8]
    e8d6:	6027      	str	r7, [r4, #0]
    e8d8:	1b9e      	subs	r6, r3, r6
    e8da:	60ae      	str	r6, [r5, #8]
    e8dc:	2e00      	cmp	r6, #0
    e8de:	d197      	bne.n	e810 <__ssprint_r+0x1e>
    e8e0:	4630      	mov	r0, r6
    e8e2:	606e      	str	r6, [r5, #4]
    e8e4:	e8bd 8ffe 	ldmia.w	sp!, {r1, r2, r3, r4, r5, r6, r7, r8, r9, sl, fp, pc}

0000e8e8 <_svfiprintf_r>:
    e8e8:	e92d 4ff0 	stmdb	sp!, {r4, r5, r6, r7, r8, r9, sl, fp, lr}
    e8ec:	461c      	mov	r4, r3
    e8ee:	898b      	ldrh	r3, [r1, #12]
    e8f0:	b0a7      	sub	sp, #156	; 0x9c
    e8f2:	4688      	mov	r8, r1
    e8f4:	4693      	mov	fp, r2
    e8f6:	f013 0f80 	tst.w	r3, #128	; 0x80
    e8fa:	9002      	str	r0, [sp, #8]
    e8fc:	d013      	beq.n	e926 <_svfiprintf_r+0x3e>
    e8fe:	690b      	ldr	r3, [r1, #16]
    e900:	b98b      	cbnz	r3, e926 <_svfiprintf_r+0x3e>
    e902:	2140      	movs	r1, #64	; 0x40
    e904:	f7fa ffe2 	bl	98cc <_malloc_r>
    e908:	f8c8 0000 	str.w	r0, [r8]
    e90c:	f8c8 0010 	str.w	r0, [r8, #16]
    e910:	b930      	cbnz	r0, e920 <_svfiprintf_r+0x38>
    e912:	9902      	ldr	r1, [sp, #8]
    e914:	230c      	movs	r3, #12
    e916:	f04f 32ff 	mov.w	r2, #4294967295
    e91a:	9204      	str	r2, [sp, #16]
    e91c:	600b      	str	r3, [r1, #0]
    e91e:	e3ea      	b.n	f0f6 <_svfiprintf_r+0x80e>
    e920:	2340      	movs	r3, #64	; 0x40
    e922:	f8c8 3014 	str.w	r3, [r8, #20]
    e926:	af08      	add	r7, sp, #32
    e928:	46c2      	mov	sl, r8
    e92a:	ab08      	add	r3, sp, #32
    e92c:	9322      	str	r3, [sp, #136]	; 0x88
    e92e:	2300      	movs	r3, #0
    e930:	9324      	str	r3, [sp, #144]	; 0x90
    e932:	9323      	str	r3, [sp, #140]	; 0x8c
    e934:	9305      	str	r3, [sp, #20]
    e936:	9304      	str	r3, [sp, #16]
    e938:	465b      	mov	r3, fp
    e93a:	461d      	mov	r5, r3
    e93c:	f813 2b01 	ldrb.w	r2, [r3], #1
    e940:	b10a      	cbz	r2, e946 <_svfiprintf_r+0x5e>
    e942:	2a25      	cmp	r2, #37	; 0x25
    e944:	d1f9      	bne.n	e93a <_svfiprintf_r+0x52>
    e946:	ebb5 060b 	subs.w	r6, r5, fp
    e94a:	d018      	beq.n	e97e <_svfiprintf_r+0x96>
    e94c:	9b24      	ldr	r3, [sp, #144]	; 0x90
    e94e:	f8c7 b000 	str.w	fp, [r7]
    e952:	607e      	str	r6, [r7, #4]
    e954:	199b      	adds	r3, r3, r6
    e956:	9324      	str	r3, [sp, #144]	; 0x90
    e958:	9b23      	ldr	r3, [sp, #140]	; 0x8c
    e95a:	3301      	adds	r3, #1
    e95c:	9323      	str	r3, [sp, #140]	; 0x8c
    e95e:	2b07      	cmp	r3, #7
    e960:	dc01      	bgt.n	e966 <_svfiprintf_r+0x7e>
    e962:	3708      	adds	r7, #8
    e964:	e008      	b.n	e978 <_svfiprintf_r+0x90>
    e966:	9802      	ldr	r0, [sp, #8]
    e968:	4651      	mov	r1, sl
    e96a:	aa22      	add	r2, sp, #136	; 0x88
    e96c:	f7ff ff41 	bl	e7f2 <__ssprint_r>
    e970:	2800      	cmp	r0, #0
    e972:	f040 83b5 	bne.w	f0e0 <_svfiprintf_r+0x7f8>
    e976:	af08      	add	r7, sp, #32
    e978:	9904      	ldr	r1, [sp, #16]
    e97a:	1989      	adds	r1, r1, r6
    e97c:	9104      	str	r1, [sp, #16]
    e97e:	782b      	ldrb	r3, [r5, #0]
    e980:	2b00      	cmp	r3, #0
    e982:	f000 83a4 	beq.w	f0ce <_svfiprintf_r+0x7e6>
    e986:	2300      	movs	r3, #0
    e988:	f105 0b01 	add.w	fp, r5, #1
    e98c:	f88d 3097 	strb.w	r3, [sp, #151]	; 0x97
    e990:	f04f 3cff 	mov.w	ip, #4294967295
    e994:	9301      	str	r3, [sp, #4]
    e996:	461e      	mov	r6, r3
    e998:	465a      	mov	r2, fp
    e99a:	4619      	mov	r1, r3
    e99c:	e005      	b.n	e9aa <_svfiprintf_r+0xc2>
    e99e:	461c      	mov	r4, r3
    e9a0:	e003      	b.n	e9aa <_svfiprintf_r+0xc2>
    e9a2:	461c      	mov	r4, r3
    e9a4:	4602      	mov	r2, r0
    e9a6:	f04f 3cff 	mov.w	ip, #4294967295
    e9aa:	f812 3b01 	ldrb.w	r3, [r2], #1
    e9ae:	2b63      	cmp	r3, #99	; 0x63
    e9b0:	f000 80a9 	beq.w	eb06 <_svfiprintf_r+0x21e>
    e9b4:	dc28      	bgt.n	ea08 <_svfiprintf_r+0x120>
    e9b6:	2b39      	cmp	r3, #57	; 0x39
    e9b8:	dc15      	bgt.n	e9e6 <_svfiprintf_r+0xfe>
    e9ba:	2b31      	cmp	r3, #49	; 0x31
    e9bc:	f280 8087 	bge.w	eace <_svfiprintf_r+0x1e6>
    e9c0:	2b2b      	cmp	r3, #43	; 0x2b
    e9c2:	d05e      	beq.n	ea82 <_svfiprintf_r+0x19a>
    e9c4:	dc07      	bgt.n	e9d6 <_svfiprintf_r+0xee>
    e9c6:	2b23      	cmp	r3, #35	; 0x23
    e9c8:	d04f      	beq.n	ea6a <_svfiprintf_r+0x182>
    e9ca:	2b2a      	cmp	r3, #42	; 0x2a
    e9cc:	d050      	beq.n	ea70 <_svfiprintf_r+0x188>
    e9ce:	2b20      	cmp	r3, #32
    e9d0:	f040 8205 	bne.w	edde <_svfiprintf_r+0x4f6>
    e9d4:	e043      	b.n	ea5e <_svfiprintf_r+0x176>
    e9d6:	2b2e      	cmp	r3, #46	; 0x2e
    e9d8:	d056      	beq.n	ea88 <_svfiprintf_r+0x1a0>
    e9da:	2b30      	cmp	r3, #48	; 0x30
    e9dc:	d074      	beq.n	eac8 <_svfiprintf_r+0x1e0>
    e9de:	2b2d      	cmp	r3, #45	; 0x2d
    e9e0:	f040 81fd 	bne.w	edde <_svfiprintf_r+0x4f6>
    e9e4:	e04a      	b.n	ea7c <_svfiprintf_r+0x194>
    e9e6:	2b4f      	cmp	r3, #79	; 0x4f
    e9e8:	4693      	mov	fp, r2
    e9ea:	9101      	str	r1, [sp, #4]
    e9ec:	f000 80df 	beq.w	ebae <_svfiprintf_r+0x2c6>
    e9f0:	dc03      	bgt.n	e9fa <_svfiprintf_r+0x112>
    e9f2:	2b44      	cmp	r3, #68	; 0x44
    e9f4:	f040 81f5 	bne.w	ede2 <_svfiprintf_r+0x4fa>
    e9f8:	e090      	b.n	eb1c <_svfiprintf_r+0x234>
    e9fa:	2b55      	cmp	r3, #85	; 0x55
    e9fc:	f000 812c 	beq.w	ec58 <_svfiprintf_r+0x370>
    ea00:	2b58      	cmp	r3, #88	; 0x58
    ea02:	f040 81ee 	bne.w	ede2 <_svfiprintf_r+0x4fa>
    ea06:	e145      	b.n	ec94 <_svfiprintf_r+0x3ac>
    ea08:	2b6f      	cmp	r3, #111	; 0x6f
    ea0a:	f000 80d3 	beq.w	ebb4 <_svfiprintf_r+0x2cc>
    ea0e:	dc12      	bgt.n	ea36 <_svfiprintf_r+0x14e>
    ea10:	2b69      	cmp	r3, #105	; 0x69
    ea12:	f000 8086 	beq.w	eb22 <_svfiprintf_r+0x23a>
    ea16:	dc06      	bgt.n	ea26 <_svfiprintf_r+0x13e>
    ea18:	2b64      	cmp	r3, #100	; 0x64
    ea1a:	f000 8082 	beq.w	eb22 <_svfiprintf_r+0x23a>
    ea1e:	2b68      	cmp	r3, #104	; 0x68
    ea20:	f040 81dd 	bne.w	edde <_svfiprintf_r+0x4f6>
    ea24:	e061      	b.n	eaea <_svfiprintf_r+0x202>
    ea26:	2b6c      	cmp	r3, #108	; 0x6c
    ea28:	d062      	beq.n	eaf0 <_svfiprintf_r+0x208>
    ea2a:	2b6e      	cmp	r3, #110	; 0x6e
    ea2c:	4693      	mov	fp, r2
    ea2e:	9101      	str	r1, [sp, #4]
    ea30:	f040 81d7 	bne.w	ede2 <_svfiprintf_r+0x4fa>
    ea34:	e09b      	b.n	eb6e <_svfiprintf_r+0x286>
    ea36:	2b73      	cmp	r3, #115	; 0x73
    ea38:	f000 80ec 	beq.w	ec14 <_svfiprintf_r+0x32c>
    ea3c:	dc06      	bgt.n	ea4c <_svfiprintf_r+0x164>
    ea3e:	2b70      	cmp	r3, #112	; 0x70
    ea40:	f000 80d6 	beq.w	ebf0 <_svfiprintf_r+0x308>
    ea44:	2b71      	cmp	r3, #113	; 0x71
    ea46:	f040 81ca 	bne.w	edde <_svfiprintf_r+0x4f6>
    ea4a:	e059      	b.n	eb00 <_svfiprintf_r+0x218>
    ea4c:	2b75      	cmp	r3, #117	; 0x75
    ea4e:	4693      	mov	fp, r2
    ea50:	9101      	str	r1, [sp, #4]
    ea52:	f000 8103 	beq.w	ec5c <_svfiprintf_r+0x374>
    ea56:	2b78      	cmp	r3, #120	; 0x78
    ea58:	f040 81c3 	bne.w	ede2 <_svfiprintf_r+0x4fa>
    ea5c:	e117      	b.n	ec8e <_svfiprintf_r+0x3a6>
    ea5e:	f89d 3097 	ldrb.w	r3, [sp, #151]	; 0x97
    ea62:	2b00      	cmp	r3, #0
    ea64:	d1a1      	bne.n	e9aa <_svfiprintf_r+0xc2>
    ea66:	3320      	adds	r3, #32
    ea68:	e00b      	b.n	ea82 <_svfiprintf_r+0x19a>
    ea6a:	f046 0601 	orr.w	r6, r6, #1
    ea6e:	e79c      	b.n	e9aa <_svfiprintf_r+0xc2>
    ea70:	6821      	ldr	r1, [r4, #0]
    ea72:	1d23      	adds	r3, r4, #4
    ea74:	2900      	cmp	r1, #0
    ea76:	da92      	bge.n	e99e <_svfiprintf_r+0xb6>
    ea78:	4249      	negs	r1, r1
    ea7a:	461c      	mov	r4, r3
    ea7c:	f046 0604 	orr.w	r6, r6, #4
    ea80:	e793      	b.n	e9aa <_svfiprintf_r+0xc2>
    ea82:	f88d 3097 	strb.w	r3, [sp, #151]	; 0x97
    ea86:	e790      	b.n	e9aa <_svfiprintf_r+0xc2>
    ea88:	4610      	mov	r0, r2
    ea8a:	f810 3b01 	ldrb.w	r3, [r0], #1
    ea8e:	2b2a      	cmp	r3, #42	; 0x2a
    ea90:	d003      	beq.n	ea9a <_svfiprintf_r+0x1b2>
    ea92:	4610      	mov	r0, r2
    ea94:	f04f 0c00 	mov.w	ip, #0
    ea98:	e00e      	b.n	eab8 <_svfiprintf_r+0x1d0>
    ea9a:	f8d4 c000 	ldr.w	ip, [r4]
    ea9e:	1d23      	adds	r3, r4, #4
    eaa0:	f1bc 0f00 	cmp.w	ip, #0
    eaa4:	f6ff af7d 	blt.w	e9a2 <_svfiprintf_r+0xba>
    eaa8:	461c      	mov	r4, r3
    eaaa:	4602      	mov	r2, r0
    eaac:	e77d      	b.n	e9aa <_svfiprintf_r+0xc2>
    eaae:	230a      	movs	r3, #10
    eab0:	fb03 5c0c 	mla	ip, r3, ip, r5
    eab4:	7843      	ldrb	r3, [r0, #1]
    eab6:	4610      	mov	r0, r2
    eab8:	f1a3 0530 	sub.w	r5, r3, #48	; 0x30
    eabc:	3201      	adds	r2, #1
    eabe:	2d09      	cmp	r5, #9
    eac0:	d9f5      	bls.n	eaae <_svfiprintf_r+0x1c6>
    eac2:	ea4c 7cec 	orr.w	ip, ip, ip, asr #31
    eac6:	e772      	b.n	e9ae <_svfiprintf_r+0xc6>
    eac8:	f046 0680 	orr.w	r6, r6, #128	; 0x80
    eacc:	e76d      	b.n	e9aa <_svfiprintf_r+0xc2>
    eace:	4610      	mov	r0, r2
    ead0:	2100      	movs	r1, #0
    ead2:	3b30      	subs	r3, #48	; 0x30
    ead4:	220a      	movs	r2, #10
    ead6:	fb02 3101 	mla	r1, r2, r1, r3
    eada:	f810 3b01 	ldrb.w	r3, [r0], #1
    eade:	f1a3 0530 	sub.w	r5, r3, #48	; 0x30
    eae2:	4602      	mov	r2, r0
    eae4:	2d09      	cmp	r5, #9
    eae6:	d9f4      	bls.n	ead2 <_svfiprintf_r+0x1ea>
    eae8:	e761      	b.n	e9ae <_svfiprintf_r+0xc6>
    eaea:	f046 0640 	orr.w	r6, r6, #64	; 0x40
    eaee:	e75c      	b.n	e9aa <_svfiprintf_r+0xc2>
    eaf0:	7813      	ldrb	r3, [r2, #0]
    eaf2:	2b6c      	cmp	r3, #108	; 0x6c
    eaf4:	d101      	bne.n	eafa <_svfiprintf_r+0x212>
    eaf6:	3201      	adds	r2, #1
    eaf8:	e002      	b.n	eb00 <_svfiprintf_r+0x218>
    eafa:	f046 0610 	orr.w	r6, r6, #16
    eafe:	e754      	b.n	e9aa <_svfiprintf_r+0xc2>
    eb00:	f046 0620 	orr.w	r6, r6, #32
    eb04:	e751      	b.n	e9aa <_svfiprintf_r+0xc2>
    eb06:	6823      	ldr	r3, [r4, #0]
    eb08:	2500      	movs	r5, #0
    eb0a:	4693      	mov	fp, r2
    eb0c:	9101      	str	r1, [sp, #4]
    eb0e:	f104 0904 	add.w	r9, r4, #4
    eb12:	f88d 5097 	strb.w	r5, [sp, #151]	; 0x97
    eb16:	f88d 3060 	strb.w	r3, [sp, #96]	; 0x60
    eb1a:	e16b      	b.n	edf4 <_svfiprintf_r+0x50c>
    eb1c:	f046 0610 	orr.w	r6, r6, #16
    eb20:	e001      	b.n	eb26 <_svfiprintf_r+0x23e>
    eb22:	4693      	mov	fp, r2
    eb24:	9101      	str	r1, [sp, #4]
    eb26:	f016 0f20 	tst.w	r6, #32
    eb2a:	d006      	beq.n	eb3a <_svfiprintf_r+0x252>
    eb2c:	3407      	adds	r4, #7
    eb2e:	f024 0407 	bic.w	r4, r4, #7
    eb32:	f104 0908 	add.w	r9, r4, #8
    eb36:	cc30      	ldmia	r4, {r4, r5}
    eb38:	e00c      	b.n	eb54 <_svfiprintf_r+0x26c>
    eb3a:	f016 0f10 	tst.w	r6, #16
    eb3e:	f104 0904 	add.w	r9, r4, #4
    eb42:	d001      	beq.n	eb48 <_svfiprintf_r+0x260>
    eb44:	6824      	ldr	r4, [r4, #0]
    eb46:	e004      	b.n	eb52 <_svfiprintf_r+0x26a>
    eb48:	6824      	ldr	r4, [r4, #0]
    eb4a:	f016 0f40 	tst.w	r6, #64	; 0x40
    eb4e:	bf18      	it	ne
    eb50:	b224      	sxthne	r4, r4
    eb52:	17e5      	asrs	r5, r4, #31
    eb54:	2c00      	cmp	r4, #0
    eb56:	f175 0200 	sbcs.w	r2, r5, #0
    eb5a:	f280 80c6 	bge.w	ecea <_svfiprintf_r+0x402>
    eb5e:	232d      	movs	r3, #45	; 0x2d
    eb60:	4264      	negs	r4, r4
    eb62:	eb65 0545 	sbc.w	r5, r5, r5, lsl #1
    eb66:	f88d 3097 	strb.w	r3, [sp, #151]	; 0x97
    eb6a:	3b2c      	subs	r3, #44	; 0x2c
    eb6c:	e0be      	b.n	ecec <_svfiprintf_r+0x404>
    eb6e:	f016 0f20 	tst.w	r6, #32
    eb72:	f104 0104 	add.w	r1, r4, #4
    eb76:	d006      	beq.n	eb86 <_svfiprintf_r+0x29e>
    eb78:	6820      	ldr	r0, [r4, #0]
    eb7a:	9c04      	ldr	r4, [sp, #16]
    eb7c:	4622      	mov	r2, r4
    eb7e:	17e3      	asrs	r3, r4, #31
    eb80:	e9c0 2300 	strd	r2, r3, [r0]
    eb84:	e005      	b.n	eb92 <_svfiprintf_r+0x2aa>
    eb86:	f016 0f10 	tst.w	r6, #16
    eb8a:	d004      	beq.n	eb96 <_svfiprintf_r+0x2ae>
    eb8c:	6823      	ldr	r3, [r4, #0]
    eb8e:	9a04      	ldr	r2, [sp, #16]
    eb90:	601a      	str	r2, [r3, #0]
    eb92:	460c      	mov	r4, r1
    eb94:	e6d0      	b.n	e938 <_svfiprintf_r+0x50>
    eb96:	f016 0f40 	tst.w	r6, #64	; 0x40
    eb9a:	6822      	ldr	r2, [r4, #0]
    eb9c:	f104 0304 	add.w	r3, r4, #4
    eba0:	bf0b      	itete	eq
    eba2:	9904      	ldreq	r1, [sp, #16]
    eba4:	9c04      	ldrne	r4, [sp, #16]
    eba6:	6011      	streq	r1, [r2, #0]
    eba8:	8014      	strhne	r4, [r2, #0]
    ebaa:	461c      	mov	r4, r3
    ebac:	e6c4      	b.n	e938 <_svfiprintf_r+0x50>
    ebae:	f046 0610 	orr.w	r6, r6, #16
    ebb2:	e001      	b.n	ebb8 <_svfiprintf_r+0x2d0>
    ebb4:	4693      	mov	fp, r2
    ebb6:	9101      	str	r1, [sp, #4]
    ebb8:	f016 0320 	ands.w	r3, r6, #32
    ebbc:	d007      	beq.n	ebce <_svfiprintf_r+0x2e6>
    ebbe:	3407      	adds	r4, #7
    ebc0:	2300      	movs	r3, #0
    ebc2:	f024 0407 	bic.w	r4, r4, #7
    ebc6:	f104 0908 	add.w	r9, r4, #8
    ebca:	cc30      	ldmia	r4, {r4, r5}
    ebcc:	e089      	b.n	ece2 <_svfiprintf_r+0x3fa>
    ebce:	f016 0210 	ands.w	r2, r6, #16
    ebd2:	f104 0904 	add.w	r9, r4, #4
    ebd6:	d001      	beq.n	ebdc <_svfiprintf_r+0x2f4>
    ebd8:	6824      	ldr	r4, [r4, #0]
    ebda:	e007      	b.n	ebec <_svfiprintf_r+0x304>
    ebdc:	f016 0340 	ands.w	r3, r6, #64	; 0x40
    ebe0:	6824      	ldr	r4, [r4, #0]
    ebe2:	d003      	beq.n	ebec <_svfiprintf_r+0x304>
    ebe4:	b2a4      	uxth	r4, r4
    ebe6:	2500      	movs	r5, #0
    ebe8:	4613      	mov	r3, r2
    ebea:	e07a      	b.n	ece2 <_svfiprintf_r+0x3fa>
    ebec:	2500      	movs	r5, #0
    ebee:	e078      	b.n	ece2 <_svfiprintf_r+0x3fa>
    ebf0:	4693      	mov	fp, r2
    ebf2:	4a9e      	ldr	r2, [pc, #632]	; (ee6c <_svfiprintf_r+0x584>)
    ebf4:	2330      	movs	r3, #48	; 0x30
    ebf6:	f104 0904 	add.w	r9, r4, #4
    ebfa:	6824      	ldr	r4, [r4, #0]
    ebfc:	2500      	movs	r5, #0
    ebfe:	f88d 3094 	strb.w	r3, [sp, #148]	; 0x94
    ec02:	3348      	adds	r3, #72	; 0x48
    ec04:	9101      	str	r1, [sp, #4]
    ec06:	f046 0602 	orr.w	r6, r6, #2
    ec0a:	f88d 3095 	strb.w	r3, [sp, #149]	; 0x95
    ec0e:	3b76      	subs	r3, #118	; 0x76
    ec10:	9205      	str	r2, [sp, #20]
    ec12:	e066      	b.n	ece2 <_svfiprintf_r+0x3fa>
    ec14:	2500      	movs	r5, #0
    ec16:	4693      	mov	fp, r2
    ec18:	45ac      	cmp	ip, r5
    ec1a:	f88d 5097 	strb.w	r5, [sp, #151]	; 0x97
    ec1e:	9101      	str	r1, [sp, #4]
    ec20:	f104 0904 	add.w	r9, r4, #4
    ec24:	f8d4 8000 	ldr.w	r8, [r4]
    ec28:	db11      	blt.n	ec4e <_svfiprintf_r+0x366>
    ec2a:	4662      	mov	r2, ip
    ec2c:	4640      	mov	r0, r8
    ec2e:	4629      	mov	r1, r5
    ec30:	f8cd c000 	str.w	ip, [sp]
    ec34:	f7fb f8b8 	bl	9da8 <memchr>
    ec38:	f8dd c000 	ldr.w	ip, [sp]
    ec3c:	2800      	cmp	r0, #0
    ec3e:	f000 80dd 	beq.w	edfc <_svfiprintf_r+0x514>
    ec42:	ebc8 0400 	rsb	r4, r8, r0
    ec46:	4564      	cmp	r4, ip
    ec48:	f300 80db 	bgt.w	ee02 <_svfiprintf_r+0x51a>
    ec4c:	e0da      	b.n	ee04 <_svfiprintf_r+0x51c>
    ec4e:	4640      	mov	r0, r8
    ec50:	f7fb fe8e 	bl	a970 <strlen>
    ec54:	4604      	mov	r4, r0
    ec56:	e0d5      	b.n	ee04 <_svfiprintf_r+0x51c>
    ec58:	f046 0610 	orr.w	r6, r6, #16
    ec5c:	f016 0f20 	tst.w	r6, #32
    ec60:	d006      	beq.n	ec70 <_svfiprintf_r+0x388>
    ec62:	3407      	adds	r4, #7
    ec64:	f024 0407 	bic.w	r4, r4, #7
    ec68:	f104 0908 	add.w	r9, r4, #8
    ec6c:	cc30      	ldmia	r4, {r4, r5}
    ec6e:	e00c      	b.n	ec8a <_svfiprintf_r+0x3a2>
    ec70:	f016 0f10 	tst.w	r6, #16
    ec74:	f104 0904 	add.w	r9, r4, #4
    ec78:	d001      	beq.n	ec7e <_svfiprintf_r+0x396>
    ec7a:	6824      	ldr	r4, [r4, #0]
    ec7c:	e004      	b.n	ec88 <_svfiprintf_r+0x3a0>
    ec7e:	6824      	ldr	r4, [r4, #0]
    ec80:	f016 0f40 	tst.w	r6, #64	; 0x40
    ec84:	bf18      	it	ne
    ec86:	b2a4      	uxthne	r4, r4
    ec88:	2500      	movs	r5, #0
    ec8a:	2301      	movs	r3, #1
    ec8c:	e029      	b.n	ece2 <_svfiprintf_r+0x3fa>
    ec8e:	4977      	ldr	r1, [pc, #476]	; (ee6c <_svfiprintf_r+0x584>)
    ec90:	9105      	str	r1, [sp, #20]
    ec92:	e001      	b.n	ec98 <_svfiprintf_r+0x3b0>
    ec94:	4a76      	ldr	r2, [pc, #472]	; (ee70 <_svfiprintf_r+0x588>)
    ec96:	9205      	str	r2, [sp, #20]
    ec98:	f016 0f20 	tst.w	r6, #32
    ec9c:	d006      	beq.n	ecac <_svfiprintf_r+0x3c4>
    ec9e:	3407      	adds	r4, #7
    eca0:	f024 0407 	bic.w	r4, r4, #7
    eca4:	f104 0908 	add.w	r9, r4, #8
    eca8:	cc30      	ldmia	r4, {r4, r5}
    ecaa:	e00c      	b.n	ecc6 <_svfiprintf_r+0x3de>
    ecac:	f016 0f10 	tst.w	r6, #16
    ecb0:	f104 0904 	add.w	r9, r4, #4
    ecb4:	d001      	beq.n	ecba <_svfiprintf_r+0x3d2>
    ecb6:	6824      	ldr	r4, [r4, #0]
    ecb8:	e004      	b.n	ecc4 <_svfiprintf_r+0x3dc>
    ecba:	6824      	ldr	r4, [r4, #0]
    ecbc:	f016 0f40 	tst.w	r6, #64	; 0x40
    ecc0:	bf18      	it	ne
    ecc2:	b2a4      	uxthne	r4, r4
    ecc4:	2500      	movs	r5, #0
    ecc6:	f016 0f01 	tst.w	r6, #1
    ecca:	d009      	beq.n	ece0 <_svfiprintf_r+0x3f8>
    eccc:	ea54 0105 	orrs.w	r1, r4, r5
    ecd0:	d006      	beq.n	ece0 <_svfiprintf_r+0x3f8>
    ecd2:	f046 0602 	orr.w	r6, r6, #2
    ecd6:	2230      	movs	r2, #48	; 0x30
    ecd8:	f88d 3095 	strb.w	r3, [sp, #149]	; 0x95
    ecdc:	f88d 2094 	strb.w	r2, [sp, #148]	; 0x94
    ece0:	2302      	movs	r3, #2
    ece2:	2200      	movs	r2, #0
    ece4:	f88d 2097 	strb.w	r2, [sp, #151]	; 0x97
    ece8:	e000      	b.n	ecec <_svfiprintf_r+0x404>
    ecea:	2301      	movs	r3, #1
    ecec:	f1bc 0f00 	cmp.w	ip, #0
    ecf0:	bfa8      	it	ge
    ecf2:	f026 0680 	bicge.w	r6, r6, #128	; 0x80
    ecf6:	ea54 0205 	orrs.w	r2, r4, r5
    ecfa:	d102      	bne.n	ed02 <_svfiprintf_r+0x41a>
    ecfc:	f1bc 0f00 	cmp.w	ip, #0
    ed00:	d05c      	beq.n	edbc <_svfiprintf_r+0x4d4>
    ed02:	2b01      	cmp	r3, #1
    ed04:	d01d      	beq.n	ed42 <_svfiprintf_r+0x45a>
    ed06:	2b02      	cmp	r3, #2
    ed08:	d045      	beq.n	ed96 <_svfiprintf_r+0x4ae>
    ed0a:	f10d 0387 	add.w	r3, sp, #135	; 0x87
    ed0e:	08e1      	lsrs	r1, r4, #3
    ed10:	f004 0207 	and.w	r2, r4, #7
    ed14:	ea41 7045 	orr.w	r0, r1, r5, lsl #29
    ed18:	08e9      	lsrs	r1, r5, #3
    ed1a:	4604      	mov	r4, r0
    ed1c:	460d      	mov	r5, r1
    ed1e:	3230      	adds	r2, #48	; 0x30
    ed20:	4698      	mov	r8, r3
    ed22:	701a      	strb	r2, [r3, #0]
    ed24:	3b01      	subs	r3, #1
    ed26:	9103      	str	r1, [sp, #12]
    ed28:	ea54 0105 	orrs.w	r1, r4, r5
    ed2c:	d1ef      	bne.n	ed0e <_svfiprintf_r+0x426>
    ed2e:	f016 0f01 	tst.w	r6, #1
    ed32:	d04f      	beq.n	edd4 <_svfiprintf_r+0x4ec>
    ed34:	2a30      	cmp	r2, #48	; 0x30
    ed36:	d04d      	beq.n	edd4 <_svfiprintf_r+0x4ec>
    ed38:	4698      	mov	r8, r3
    ed3a:	2330      	movs	r3, #48	; 0x30
    ed3c:	f888 3000 	strb.w	r3, [r8]
    ed40:	e048      	b.n	edd4 <_svfiprintf_r+0x4ec>
    ed42:	2c0a      	cmp	r4, #10
    ed44:	f175 0200 	sbcs.w	r2, r5, #0
    ed48:	d205      	bcs.n	ed56 <_svfiprintf_r+0x46e>
    ed4a:	3430      	adds	r4, #48	; 0x30
    ed4c:	f10d 0887 	add.w	r8, sp, #135	; 0x87
    ed50:	f88d 4087 	strb.w	r4, [sp, #135]	; 0x87
    ed54:	e03e      	b.n	edd4 <_svfiprintf_r+0x4ec>
    ed56:	f10d 0387 	add.w	r3, sp, #135	; 0x87
    ed5a:	9303      	str	r3, [sp, #12]
    ed5c:	4620      	mov	r0, r4
    ed5e:	4629      	mov	r1, r5
    ed60:	220a      	movs	r2, #10
    ed62:	2300      	movs	r3, #0
    ed64:	f8cd c000 	str.w	ip, [sp]
    ed68:	f001 fdce 	bl	10908 <__aeabi_uldivmod>
    ed6c:	9903      	ldr	r1, [sp, #12]
    ed6e:	4620      	mov	r0, r4
    ed70:	f8dd 800c 	ldr.w	r8, [sp, #12]
    ed74:	2300      	movs	r3, #0
    ed76:	3230      	adds	r2, #48	; 0x30
    ed78:	f801 2901 	strb.w	r2, [r1], #-1
    ed7c:	220a      	movs	r2, #10
    ed7e:	9103      	str	r1, [sp, #12]
    ed80:	4629      	mov	r1, r5
    ed82:	f001 fdc1 	bl	10908 <__aeabi_uldivmod>
    ed86:	f8dd c000 	ldr.w	ip, [sp]
    ed8a:	4604      	mov	r4, r0
    ed8c:	460d      	mov	r5, r1
    ed8e:	ea54 0205 	orrs.w	r2, r4, r5
    ed92:	d1e3      	bne.n	ed5c <_svfiprintf_r+0x474>
    ed94:	e01e      	b.n	edd4 <_svfiprintf_r+0x4ec>
    ed96:	f10d 0387 	add.w	r3, sp, #135	; 0x87
    ed9a:	9905      	ldr	r1, [sp, #20]
    ed9c:	f004 020f 	and.w	r2, r4, #15
    eda0:	0928      	lsrs	r0, r5, #4
    eda2:	4698      	mov	r8, r3
    eda4:	5c8a      	ldrb	r2, [r1, r2]
    eda6:	0921      	lsrs	r1, r4, #4
    eda8:	f803 2901 	strb.w	r2, [r3], #-1
    edac:	ea41 7205 	orr.w	r2, r1, r5, lsl #28
    edb0:	4614      	mov	r4, r2
    edb2:	4605      	mov	r5, r0
    edb4:	ea54 0205 	orrs.w	r2, r4, r5
    edb8:	d1ef      	bne.n	ed9a <_svfiprintf_r+0x4b2>
    edba:	e00b      	b.n	edd4 <_svfiprintf_r+0x4ec>
    edbc:	b943      	cbnz	r3, edd0 <_svfiprintf_r+0x4e8>
    edbe:	f016 0f01 	tst.w	r6, #1
    edc2:	d005      	beq.n	edd0 <_svfiprintf_r+0x4e8>
    edc4:	f10d 0898 	add.w	r8, sp, #152	; 0x98
    edc8:	3330      	adds	r3, #48	; 0x30
    edca:	f808 3d11 	strb.w	r3, [r8, #-17]!
    edce:	e001      	b.n	edd4 <_svfiprintf_r+0x4ec>
    edd0:	f10d 0888 	add.w	r8, sp, #136	; 0x88
    edd4:	ac22      	add	r4, sp, #136	; 0x88
    edd6:	4665      	mov	r5, ip
    edd8:	ebc8 0404 	rsb	r4, r8, r4
    eddc:	e012      	b.n	ee04 <_svfiprintf_r+0x51c>
    edde:	4693      	mov	fp, r2
    ede0:	9101      	str	r1, [sp, #4]
    ede2:	2b00      	cmp	r3, #0
    ede4:	f000 8173 	beq.w	f0ce <_svfiprintf_r+0x7e6>
    ede8:	46a1      	mov	r9, r4
    edea:	2500      	movs	r5, #0
    edec:	f88d 3060 	strb.w	r3, [sp, #96]	; 0x60
    edf0:	f88d 5097 	strb.w	r5, [sp, #151]	; 0x97
    edf4:	2401      	movs	r4, #1
    edf6:	f10d 0860 	add.w	r8, sp, #96	; 0x60
    edfa:	e003      	b.n	ee04 <_svfiprintf_r+0x51c>
    edfc:	4664      	mov	r4, ip
    edfe:	4605      	mov	r5, r0
    ee00:	e000      	b.n	ee04 <_svfiprintf_r+0x51c>
    ee02:	4664      	mov	r4, ip
    ee04:	42ac      	cmp	r4, r5
    ee06:	bfac      	ite	ge
    ee08:	4623      	movge	r3, r4
    ee0a:	462b      	movlt	r3, r5
    ee0c:	9303      	str	r3, [sp, #12]
    ee0e:	f89d 3097 	ldrb.w	r3, [sp, #151]	; 0x97
    ee12:	b113      	cbz	r3, ee1a <_svfiprintf_r+0x532>
    ee14:	9903      	ldr	r1, [sp, #12]
    ee16:	3101      	adds	r1, #1
    ee18:	9103      	str	r1, [sp, #12]
    ee1a:	f016 0202 	ands.w	r2, r6, #2
    ee1e:	9206      	str	r2, [sp, #24]
    ee20:	d002      	beq.n	ee28 <_svfiprintf_r+0x540>
    ee22:	9b03      	ldr	r3, [sp, #12]
    ee24:	3302      	adds	r3, #2
    ee26:	9303      	str	r3, [sp, #12]
    ee28:	f016 0184 	ands.w	r1, r6, #132	; 0x84
    ee2c:	9107      	str	r1, [sp, #28]
    ee2e:	d145      	bne.n	eebc <_svfiprintf_r+0x5d4>
    ee30:	9a01      	ldr	r2, [sp, #4]
    ee32:	9903      	ldr	r1, [sp, #12]
    ee34:	1a53      	subs	r3, r2, r1
    ee36:	2b00      	cmp	r3, #0
    ee38:	dc1c      	bgt.n	ee74 <_svfiprintf_r+0x58c>
    ee3a:	e03f      	b.n	eebc <_svfiprintf_r+0x5d4>
    ee3c:	601a      	str	r2, [r3, #0]
    ee3e:	2210      	movs	r2, #16
    ee40:	1889      	adds	r1, r1, r2
    ee42:	605a      	str	r2, [r3, #4]
    ee44:	9a23      	ldr	r2, [sp, #140]	; 0x8c
    ee46:	9124      	str	r1, [sp, #144]	; 0x90
    ee48:	3201      	adds	r2, #1
    ee4a:	9223      	str	r2, [sp, #140]	; 0x8c
    ee4c:	2a07      	cmp	r2, #7
    ee4e:	dc01      	bgt.n	ee54 <_svfiprintf_r+0x56c>
    ee50:	3308      	adds	r3, #8
    ee52:	e008      	b.n	ee66 <_svfiprintf_r+0x57e>
    ee54:	9802      	ldr	r0, [sp, #8]
    ee56:	4651      	mov	r1, sl
    ee58:	aa22      	add	r2, sp, #136	; 0x88
    ee5a:	f7ff fcca 	bl	e7f2 <__ssprint_r>
    ee5e:	2800      	cmp	r0, #0
    ee60:	f040 813e 	bne.w	f0e0 <_svfiprintf_r+0x7f8>
    ee64:	ab08      	add	r3, sp, #32
    ee66:	3e10      	subs	r6, #16
    ee68:	e00a      	b.n	ee80 <_svfiprintf_r+0x598>
    ee6a:	bf00      	nop
    ee6c:	0001104d 	.word	0x0001104d
    ee70:	0001103c 	.word	0x0001103c
    ee74:	4632      	mov	r2, r6
    ee76:	461e      	mov	r6, r3
    ee78:	463b      	mov	r3, r7
    ee7a:	465f      	mov	r7, fp
    ee7c:	46c3      	mov	fp, r8
    ee7e:	4690      	mov	r8, r2
    ee80:	2e10      	cmp	r6, #16
    ee82:	9924      	ldr	r1, [sp, #144]	; 0x90
    ee84:	4a77      	ldr	r2, [pc, #476]	; (f064 <_svfiprintf_r+0x77c>)
    ee86:	dcd9      	bgt.n	ee3c <_svfiprintf_r+0x554>
    ee88:	4640      	mov	r0, r8
    ee8a:	46d8      	mov	r8, fp
    ee8c:	46bb      	mov	fp, r7
    ee8e:	461f      	mov	r7, r3
    ee90:	4633      	mov	r3, r6
    ee92:	4606      	mov	r6, r0
    ee94:	607b      	str	r3, [r7, #4]
    ee96:	18cb      	adds	r3, r1, r3
    ee98:	603a      	str	r2, [r7, #0]
    ee9a:	9324      	str	r3, [sp, #144]	; 0x90
    ee9c:	9b23      	ldr	r3, [sp, #140]	; 0x8c
    ee9e:	3301      	adds	r3, #1
    eea0:	9323      	str	r3, [sp, #140]	; 0x8c
    eea2:	2b07      	cmp	r3, #7
    eea4:	dc01      	bgt.n	eeaa <_svfiprintf_r+0x5c2>
    eea6:	3708      	adds	r7, #8
    eea8:	e008      	b.n	eebc <_svfiprintf_r+0x5d4>
    eeaa:	9802      	ldr	r0, [sp, #8]
    eeac:	4651      	mov	r1, sl
    eeae:	aa22      	add	r2, sp, #136	; 0x88
    eeb0:	f7ff fc9f 	bl	e7f2 <__ssprint_r>
    eeb4:	2800      	cmp	r0, #0
    eeb6:	f040 8113 	bne.w	f0e0 <_svfiprintf_r+0x7f8>
    eeba:	af08      	add	r7, sp, #32
    eebc:	f89d 3097 	ldrb.w	r3, [sp, #151]	; 0x97
    eec0:	b1bb      	cbz	r3, eef2 <_svfiprintf_r+0x60a>
    eec2:	f10d 0397 	add.w	r3, sp, #151	; 0x97
    eec6:	603b      	str	r3, [r7, #0]
    eec8:	2301      	movs	r3, #1
    eeca:	607b      	str	r3, [r7, #4]
    eecc:	9b24      	ldr	r3, [sp, #144]	; 0x90
    eece:	3301      	adds	r3, #1
    eed0:	9324      	str	r3, [sp, #144]	; 0x90
    eed2:	9b23      	ldr	r3, [sp, #140]	; 0x8c
    eed4:	3301      	adds	r3, #1
    eed6:	9323      	str	r3, [sp, #140]	; 0x8c
    eed8:	2b07      	cmp	r3, #7
    eeda:	dc01      	bgt.n	eee0 <_svfiprintf_r+0x5f8>
    eedc:	3708      	adds	r7, #8
    eede:	e008      	b.n	eef2 <_svfiprintf_r+0x60a>
    eee0:	9802      	ldr	r0, [sp, #8]
    eee2:	4651      	mov	r1, sl
    eee4:	aa22      	add	r2, sp, #136	; 0x88
    eee6:	f7ff fc84 	bl	e7f2 <__ssprint_r>
    eeea:	2800      	cmp	r0, #0
    eeec:	f040 80f8 	bne.w	f0e0 <_svfiprintf_r+0x7f8>
    eef0:	af08      	add	r7, sp, #32
    eef2:	9a06      	ldr	r2, [sp, #24]
    eef4:	b1b2      	cbz	r2, ef24 <_svfiprintf_r+0x63c>
    eef6:	ab25      	add	r3, sp, #148	; 0x94
    eef8:	603b      	str	r3, [r7, #0]
    eefa:	2302      	movs	r3, #2
    eefc:	607b      	str	r3, [r7, #4]
    eefe:	9b24      	ldr	r3, [sp, #144]	; 0x90
    ef00:	3302      	adds	r3, #2
    ef02:	9324      	str	r3, [sp, #144]	; 0x90
    ef04:	9b23      	ldr	r3, [sp, #140]	; 0x8c
    ef06:	3301      	adds	r3, #1
    ef08:	9323      	str	r3, [sp, #140]	; 0x8c
    ef0a:	2b07      	cmp	r3, #7
    ef0c:	dc01      	bgt.n	ef12 <_svfiprintf_r+0x62a>
    ef0e:	3708      	adds	r7, #8
    ef10:	e008      	b.n	ef24 <_svfiprintf_r+0x63c>
    ef12:	9802      	ldr	r0, [sp, #8]
    ef14:	4651      	mov	r1, sl
    ef16:	aa22      	add	r2, sp, #136	; 0x88
    ef18:	f7ff fc6b 	bl	e7f2 <__ssprint_r>
    ef1c:	2800      	cmp	r0, #0
    ef1e:	f040 80df 	bne.w	f0e0 <_svfiprintf_r+0x7f8>
    ef22:	af08      	add	r7, sp, #32
    ef24:	9b07      	ldr	r3, [sp, #28]
    ef26:	2b80      	cmp	r3, #128	; 0x80
    ef28:	d140      	bne.n	efac <_svfiprintf_r+0x6c4>
    ef2a:	9901      	ldr	r1, [sp, #4]
    ef2c:	9a03      	ldr	r2, [sp, #12]
    ef2e:	1a8b      	subs	r3, r1, r2
    ef30:	2b00      	cmp	r3, #0
    ef32:	dc17      	bgt.n	ef64 <_svfiprintf_r+0x67c>
    ef34:	e03a      	b.n	efac <_svfiprintf_r+0x6c4>
    ef36:	601a      	str	r2, [r3, #0]
    ef38:	2210      	movs	r2, #16
    ef3a:	1889      	adds	r1, r1, r2
    ef3c:	605a      	str	r2, [r3, #4]
    ef3e:	9a23      	ldr	r2, [sp, #140]	; 0x8c
    ef40:	9124      	str	r1, [sp, #144]	; 0x90
    ef42:	3201      	adds	r2, #1
    ef44:	9223      	str	r2, [sp, #140]	; 0x8c
    ef46:	2a07      	cmp	r2, #7
    ef48:	dc01      	bgt.n	ef4e <_svfiprintf_r+0x666>
    ef4a:	3308      	adds	r3, #8
    ef4c:	e008      	b.n	ef60 <_svfiprintf_r+0x678>
    ef4e:	9802      	ldr	r0, [sp, #8]
    ef50:	4651      	mov	r1, sl
    ef52:	aa22      	add	r2, sp, #136	; 0x88
    ef54:	f7ff fc4d 	bl	e7f2 <__ssprint_r>
    ef58:	2800      	cmp	r0, #0
    ef5a:	f040 80c1 	bne.w	f0e0 <_svfiprintf_r+0x7f8>
    ef5e:	ab08      	add	r3, sp, #32
    ef60:	3e10      	subs	r6, #16
    ef62:	e005      	b.n	ef70 <_svfiprintf_r+0x688>
    ef64:	4632      	mov	r2, r6
    ef66:	461e      	mov	r6, r3
    ef68:	463b      	mov	r3, r7
    ef6a:	465f      	mov	r7, fp
    ef6c:	46c3      	mov	fp, r8
    ef6e:	4690      	mov	r8, r2
    ef70:	2e10      	cmp	r6, #16
    ef72:	9924      	ldr	r1, [sp, #144]	; 0x90
    ef74:	4a3c      	ldr	r2, [pc, #240]	; (f068 <_svfiprintf_r+0x780>)
    ef76:	dcde      	bgt.n	ef36 <_svfiprintf_r+0x64e>
    ef78:	4640      	mov	r0, r8
    ef7a:	46d8      	mov	r8, fp
    ef7c:	46bb      	mov	fp, r7
    ef7e:	461f      	mov	r7, r3
    ef80:	4633      	mov	r3, r6
    ef82:	4606      	mov	r6, r0
    ef84:	607b      	str	r3, [r7, #4]
    ef86:	18cb      	adds	r3, r1, r3
    ef88:	603a      	str	r2, [r7, #0]
    ef8a:	9324      	str	r3, [sp, #144]	; 0x90
    ef8c:	9b23      	ldr	r3, [sp, #140]	; 0x8c
    ef8e:	3301      	adds	r3, #1
    ef90:	9323      	str	r3, [sp, #140]	; 0x8c
    ef92:	2b07      	cmp	r3, #7
    ef94:	dc01      	bgt.n	ef9a <_svfiprintf_r+0x6b2>
    ef96:	3708      	adds	r7, #8
    ef98:	e008      	b.n	efac <_svfiprintf_r+0x6c4>
    ef9a:	9802      	ldr	r0, [sp, #8]
    ef9c:	4651      	mov	r1, sl
    ef9e:	aa22      	add	r2, sp, #136	; 0x88
    efa0:	f7ff fc27 	bl	e7f2 <__ssprint_r>
    efa4:	2800      	cmp	r0, #0
    efa6:	f040 809b 	bne.w	f0e0 <_svfiprintf_r+0x7f8>
    efaa:	af08      	add	r7, sp, #32
    efac:	1b2d      	subs	r5, r5, r4
    efae:	2d00      	cmp	r5, #0
    efb0:	dc16      	bgt.n	efe0 <_svfiprintf_r+0x6f8>
    efb2:	e02c      	b.n	f00e <_svfiprintf_r+0x726>
    efb4:	603a      	str	r2, [r7, #0]
    efb6:	2210      	movs	r2, #16
    efb8:	189b      	adds	r3, r3, r2
    efba:	607a      	str	r2, [r7, #4]
    efbc:	9324      	str	r3, [sp, #144]	; 0x90
    efbe:	9b23      	ldr	r3, [sp, #140]	; 0x8c
    efc0:	3301      	adds	r3, #1
    efc2:	9323      	str	r3, [sp, #140]	; 0x8c
    efc4:	2b07      	cmp	r3, #7
    efc6:	dc01      	bgt.n	efcc <_svfiprintf_r+0x6e4>
    efc8:	3708      	adds	r7, #8
    efca:	e008      	b.n	efde <_svfiprintf_r+0x6f6>
    efcc:	9802      	ldr	r0, [sp, #8]
    efce:	4651      	mov	r1, sl
    efd0:	aa22      	add	r2, sp, #136	; 0x88
    efd2:	f7ff fc0e 	bl	e7f2 <__ssprint_r>
    efd6:	2800      	cmp	r0, #0
    efd8:	f040 8082 	bne.w	f0e0 <_svfiprintf_r+0x7f8>
    efdc:	af08      	add	r7, sp, #32
    efde:	3d10      	subs	r5, #16
    efe0:	2d10      	cmp	r5, #16
    efe2:	9b24      	ldr	r3, [sp, #144]	; 0x90
    efe4:	4a20      	ldr	r2, [pc, #128]	; (f068 <_svfiprintf_r+0x780>)
    efe6:	dce5      	bgt.n	efb4 <_svfiprintf_r+0x6cc>
    efe8:	607d      	str	r5, [r7, #4]
    efea:	195d      	adds	r5, r3, r5
    efec:	9b23      	ldr	r3, [sp, #140]	; 0x8c
    efee:	603a      	str	r2, [r7, #0]
    eff0:	3301      	adds	r3, #1
    eff2:	9524      	str	r5, [sp, #144]	; 0x90
    eff4:	2b07      	cmp	r3, #7
    eff6:	9323      	str	r3, [sp, #140]	; 0x8c
    eff8:	dc01      	bgt.n	effe <_svfiprintf_r+0x716>
    effa:	3708      	adds	r7, #8
    effc:	e007      	b.n	f00e <_svfiprintf_r+0x726>
    effe:	9802      	ldr	r0, [sp, #8]
    f000:	4651      	mov	r1, sl
    f002:	aa22      	add	r2, sp, #136	; 0x88
    f004:	f7ff fbf5 	bl	e7f2 <__ssprint_r>
    f008:	2800      	cmp	r0, #0
    f00a:	d169      	bne.n	f0e0 <_svfiprintf_r+0x7f8>
    f00c:	af08      	add	r7, sp, #32
    f00e:	9b24      	ldr	r3, [sp, #144]	; 0x90
    f010:	607c      	str	r4, [r7, #4]
    f012:	191c      	adds	r4, r3, r4
    f014:	9b23      	ldr	r3, [sp, #140]	; 0x8c
    f016:	f8c7 8000 	str.w	r8, [r7]
    f01a:	3301      	adds	r3, #1
    f01c:	9424      	str	r4, [sp, #144]	; 0x90
    f01e:	2b07      	cmp	r3, #7
    f020:	9323      	str	r3, [sp, #140]	; 0x8c
    f022:	dc01      	bgt.n	f028 <_svfiprintf_r+0x740>
    f024:	3708      	adds	r7, #8
    f026:	e007      	b.n	f038 <_svfiprintf_r+0x750>
    f028:	9802      	ldr	r0, [sp, #8]
    f02a:	4651      	mov	r1, sl
    f02c:	aa22      	add	r2, sp, #136	; 0x88
    f02e:	f7ff fbe0 	bl	e7f2 <__ssprint_r>
    f032:	2800      	cmp	r0, #0
    f034:	d154      	bne.n	f0e0 <_svfiprintf_r+0x7f8>
    f036:	af08      	add	r7, sp, #32
    f038:	f016 0f04 	tst.w	r6, #4
    f03c:	d032      	beq.n	f0a4 <_svfiprintf_r+0x7bc>
    f03e:	9b01      	ldr	r3, [sp, #4]
    f040:	9903      	ldr	r1, [sp, #12]
    f042:	1a5c      	subs	r4, r3, r1
    f044:	2c00      	cmp	r4, #0
    f046:	dc1a      	bgt.n	f07e <_svfiprintf_r+0x796>
    f048:	e02c      	b.n	f0a4 <_svfiprintf_r+0x7bc>
    f04a:	603a      	str	r2, [r7, #0]
    f04c:	2210      	movs	r2, #16
    f04e:	189b      	adds	r3, r3, r2
    f050:	607a      	str	r2, [r7, #4]
    f052:	9324      	str	r3, [sp, #144]	; 0x90
    f054:	9b23      	ldr	r3, [sp, #140]	; 0x8c
    f056:	3301      	adds	r3, #1
    f058:	9323      	str	r3, [sp, #140]	; 0x8c
    f05a:	2b07      	cmp	r3, #7
    f05c:	dc06      	bgt.n	f06c <_svfiprintf_r+0x784>
    f05e:	3708      	adds	r7, #8
    f060:	e00c      	b.n	f07c <_svfiprintf_r+0x794>
    f062:	bf00      	nop
    f064:	000113c3 	.word	0x000113c3
    f068:	000113b3 	.word	0x000113b3
    f06c:	9802      	ldr	r0, [sp, #8]
    f06e:	4651      	mov	r1, sl
    f070:	aa22      	add	r2, sp, #136	; 0x88
    f072:	f7ff fbbe 	bl	e7f2 <__ssprint_r>
    f076:	2800      	cmp	r0, #0
    f078:	d132      	bne.n	f0e0 <_svfiprintf_r+0x7f8>
    f07a:	af08      	add	r7, sp, #32
    f07c:	3c10      	subs	r4, #16
    f07e:	2c10      	cmp	r4, #16
    f080:	9b24      	ldr	r3, [sp, #144]	; 0x90
    f082:	4a1f      	ldr	r2, [pc, #124]	; (f100 <_svfiprintf_r+0x818>)
    f084:	dce1      	bgt.n	f04a <_svfiprintf_r+0x762>
    f086:	607c      	str	r4, [r7, #4]
    f088:	191c      	adds	r4, r3, r4
    f08a:	9b23      	ldr	r3, [sp, #140]	; 0x8c
    f08c:	603a      	str	r2, [r7, #0]
    f08e:	3301      	adds	r3, #1
    f090:	9424      	str	r4, [sp, #144]	; 0x90
    f092:	2b07      	cmp	r3, #7
    f094:	9323      	str	r3, [sp, #140]	; 0x8c
    f096:	dd05      	ble.n	f0a4 <_svfiprintf_r+0x7bc>
    f098:	9802      	ldr	r0, [sp, #8]
    f09a:	4651      	mov	r1, sl
    f09c:	aa22      	add	r2, sp, #136	; 0x88
    f09e:	f7ff fba8 	bl	e7f2 <__ssprint_r>
    f0a2:	b9e8      	cbnz	r0, f0e0 <_svfiprintf_r+0x7f8>
    f0a4:	9a04      	ldr	r2, [sp, #16]
    f0a6:	9b01      	ldr	r3, [sp, #4]
    f0a8:	9c03      	ldr	r4, [sp, #12]
    f0aa:	429c      	cmp	r4, r3
    f0ac:	bfac      	ite	ge
    f0ae:	1912      	addge	r2, r2, r4
    f0b0:	18d2      	addlt	r2, r2, r3
    f0b2:	9b24      	ldr	r3, [sp, #144]	; 0x90
    f0b4:	9204      	str	r2, [sp, #16]
    f0b6:	b12b      	cbz	r3, f0c4 <_svfiprintf_r+0x7dc>
    f0b8:	9802      	ldr	r0, [sp, #8]
    f0ba:	4651      	mov	r1, sl
    f0bc:	aa22      	add	r2, sp, #136	; 0x88
    f0be:	f7ff fb98 	bl	e7f2 <__ssprint_r>
    f0c2:	b968      	cbnz	r0, f0e0 <_svfiprintf_r+0x7f8>
    f0c4:	2300      	movs	r3, #0
    f0c6:	464c      	mov	r4, r9
    f0c8:	9323      	str	r3, [sp, #140]	; 0x8c
    f0ca:	af08      	add	r7, sp, #32
    f0cc:	e434      	b.n	e938 <_svfiprintf_r+0x50>
    f0ce:	9b24      	ldr	r3, [sp, #144]	; 0x90
    f0d0:	46d0      	mov	r8, sl
    f0d2:	b133      	cbz	r3, f0e2 <_svfiprintf_r+0x7fa>
    f0d4:	9802      	ldr	r0, [sp, #8]
    f0d6:	4651      	mov	r1, sl
    f0d8:	aa22      	add	r2, sp, #136	; 0x88
    f0da:	f7ff fb8a 	bl	e7f2 <__ssprint_r>
    f0de:	e000      	b.n	f0e2 <_svfiprintf_r+0x7fa>
    f0e0:	46d0      	mov	r8, sl
    f0e2:	f8b8 300c 	ldrh.w	r3, [r8, #12]
    f0e6:	9904      	ldr	r1, [sp, #16]
    f0e8:	f003 0340 	and.w	r3, r3, #64	; 0x40
    f0ec:	2b00      	cmp	r3, #0
    f0ee:	bf18      	it	ne
    f0f0:	f04f 31ff 	movne.w	r1, #4294967295
    f0f4:	9104      	str	r1, [sp, #16]
    f0f6:	9804      	ldr	r0, [sp, #16]
    f0f8:	b027      	add	sp, #156	; 0x9c
    f0fa:	e8bd 8ff0 	ldmia.w	sp!, {r4, r5, r6, r7, r8, r9, sl, fp, pc}
    f0fe:	bf00      	nop
    f100:	000113c3 	.word	0x000113c3

0000f104 <__swbuf_r>:
    f104:	b570      	push	{r4, r5, r6, lr}
    f106:	460c      	mov	r4, r1
    f108:	4615      	mov	r5, r2
    f10a:	4606      	mov	r6, r0
    f10c:	b118      	cbz	r0, f116 <__swbuf_r+0x12>
    f10e:	6983      	ldr	r3, [r0, #24]
    f110:	b90b      	cbnz	r3, f116 <__swbuf_r+0x12>
    f112:	f7fa f8bd 	bl	9290 <__sinit>
    f116:	4b2b      	ldr	r3, [pc, #172]	; (f1c4 <__swbuf_r+0xc0>)
    f118:	429d      	cmp	r5, r3
    f11a:	d101      	bne.n	f120 <__swbuf_r+0x1c>
    f11c:	6875      	ldr	r5, [r6, #4]
    f11e:	e008      	b.n	f132 <__swbuf_r+0x2e>
    f120:	4b29      	ldr	r3, [pc, #164]	; (f1c8 <__swbuf_r+0xc4>)
    f122:	429d      	cmp	r5, r3
    f124:	d101      	bne.n	f12a <__swbuf_r+0x26>
    f126:	68b5      	ldr	r5, [r6, #8]
    f128:	e003      	b.n	f132 <__swbuf_r+0x2e>
    f12a:	4b28      	ldr	r3, [pc, #160]	; (f1cc <__swbuf_r+0xc8>)
    f12c:	429d      	cmp	r5, r3
    f12e:	bf08      	it	eq
    f130:	68f5      	ldreq	r5, [r6, #12]
    f132:	69ab      	ldr	r3, [r5, #24]
    f134:	60ab      	str	r3, [r5, #8]
    f136:	89ab      	ldrh	r3, [r5, #12]
    f138:	f013 0f08 	tst.w	r3, #8
    f13c:	d001      	beq.n	f142 <__swbuf_r+0x3e>
    f13e:	692b      	ldr	r3, [r5, #16]
    f140:	b95b      	cbnz	r3, f15a <__swbuf_r+0x56>
    f142:	4630      	mov	r0, r6
    f144:	4629      	mov	r1, r5
    f146:	f7f9 f889 	bl	825c <__swsetup_r>
    f14a:	b130      	cbz	r0, f15a <__swbuf_r+0x56>
    f14c:	89ab      	ldrh	r3, [r5, #12]
    f14e:	f043 0340 	orr.w	r3, r3, #64	; 0x40
    f152:	81ab      	strh	r3, [r5, #12]
    f154:	2309      	movs	r3, #9
    f156:	6033      	str	r3, [r6, #0]
    f158:	e030      	b.n	f1bc <__swbuf_r+0xb8>
    f15a:	89ab      	ldrh	r3, [r5, #12]
    f15c:	f413 5f00 	tst.w	r3, #8192	; 0x2000
    f160:	d106      	bne.n	f170 <__swbuf_r+0x6c>
    f162:	f443 5300 	orr.w	r3, r3, #8192	; 0x2000
    f166:	81ab      	strh	r3, [r5, #12]
    f168:	6e6b      	ldr	r3, [r5, #100]	; 0x64
    f16a:	f423 5300 	bic.w	r3, r3, #8192	; 0x2000
    f16e:	666b      	str	r3, [r5, #100]	; 0x64
    f170:	692b      	ldr	r3, [r5, #16]
    f172:	6828      	ldr	r0, [r5, #0]
    f174:	1ac0      	subs	r0, r0, r3
    f176:	696b      	ldr	r3, [r5, #20]
    f178:	4298      	cmp	r0, r3
    f17a:	db04      	blt.n	f186 <__swbuf_r+0x82>
    f17c:	4630      	mov	r0, r6
    f17e:	4629      	mov	r1, r5
    f180:	f7f9 ff72 	bl	9068 <_fflush_r>
    f184:	b9d0      	cbnz	r0, f1bc <__swbuf_r+0xb8>
    f186:	68ab      	ldr	r3, [r5, #8]
    f188:	b2e4      	uxtb	r4, r4
    f18a:	3001      	adds	r0, #1
    f18c:	3b01      	subs	r3, #1
    f18e:	60ab      	str	r3, [r5, #8]
    f190:	682b      	ldr	r3, [r5, #0]
    f192:	f803 4b01 	strb.w	r4, [r3], #1
    f196:	602b      	str	r3, [r5, #0]
    f198:	696b      	ldr	r3, [r5, #20]
    f19a:	4298      	cmp	r0, r3
    f19c:	d005      	beq.n	f1aa <__swbuf_r+0xa6>
    f19e:	89ab      	ldrh	r3, [r5, #12]
    f1a0:	f013 0f01 	tst.w	r3, #1
    f1a4:	d00c      	beq.n	f1c0 <__swbuf_r+0xbc>
    f1a6:	2c0a      	cmp	r4, #10
    f1a8:	d10a      	bne.n	f1c0 <__swbuf_r+0xbc>
    f1aa:	4630      	mov	r0, r6
    f1ac:	4629      	mov	r1, r5
    f1ae:	f7f9 ff5b 	bl	9068 <_fflush_r>
    f1b2:	2800      	cmp	r0, #0
    f1b4:	bf18      	it	ne
    f1b6:	f04f 34ff 	movne.w	r4, #4294967295
    f1ba:	e001      	b.n	f1c0 <__swbuf_r+0xbc>
    f1bc:	f04f 34ff 	mov.w	r4, #4294967295
    f1c0:	4620      	mov	r0, r4
    f1c2:	bd70      	pop	{r4, r5, r6, pc}
    f1c4:	000111a8 	.word	0x000111a8
    f1c8:	000111c8 	.word	0x000111c8
    f1cc:	000111e8 	.word	0x000111e8

0000f1d0 <__swbuf>:
    f1d0:	460a      	mov	r2, r1
    f1d2:	4903      	ldr	r1, [pc, #12]	; (f1e0 <__swbuf+0x10>)
    f1d4:	4603      	mov	r3, r0
    f1d6:	6808      	ldr	r0, [r1, #0]
    f1d8:	4619      	mov	r1, r3
    f1da:	f7ff bf93 	b.w	f104 <__swbuf_r>
    f1de:	bf00      	nop
    f1e0:	100000f4 	.word	0x100000f4

0000f1e4 <_wcrtomb_r>:
    f1e4:	e92d 41f0 	stmdb	sp!, {r4, r5, r6, r7, r8, lr}
    f1e8:	461d      	mov	r5, r3
    f1ea:	b086      	sub	sp, #24
    f1ec:	4604      	mov	r4, r0
    f1ee:	4617      	mov	r7, r2
    f1f0:	4688      	mov	r8, r1
    f1f2:	4b0f      	ldr	r3, [pc, #60]	; (f230 <_wcrtomb_r+0x4c>)
    f1f4:	b941      	cbnz	r1, f208 <_wcrtomb_r+0x24>
    f1f6:	681e      	ldr	r6, [r3, #0]
    f1f8:	f7fa fac6 	bl	9788 <__locale_charset>
    f1fc:	9500      	str	r5, [sp, #0]
    f1fe:	a903      	add	r1, sp, #12
    f200:	4642      	mov	r2, r8
    f202:	4603      	mov	r3, r0
    f204:	4620      	mov	r0, r4
    f206:	e007      	b.n	f218 <_wcrtomb_r+0x34>
    f208:	681e      	ldr	r6, [r3, #0]
    f20a:	f7fa fabd 	bl	9788 <__locale_charset>
    f20e:	4641      	mov	r1, r8
    f210:	463a      	mov	r2, r7
    f212:	9500      	str	r5, [sp, #0]
    f214:	4603      	mov	r3, r0
    f216:	4620      	mov	r0, r4
    f218:	47b0      	blx	r6
    f21a:	f1b0 3fff 	cmp.w	r0, #4294967295
    f21e:	d103      	bne.n	f228 <_wcrtomb_r+0x44>
    f220:	2300      	movs	r3, #0
    f222:	602b      	str	r3, [r5, #0]
    f224:	338a      	adds	r3, #138	; 0x8a
    f226:	6023      	str	r3, [r4, #0]
    f228:	b006      	add	sp, #24
    f22a:	e8bd 81f0 	ldmia.w	sp!, {r4, r5, r6, r7, r8, pc}
    f22e:	bf00      	nop
    f230:	100005b0 	.word	0x100005b0

0000f234 <wcrtomb>:
    f234:	4613      	mov	r3, r2
    f236:	4a05      	ldr	r2, [pc, #20]	; (f24c <wcrtomb+0x18>)
    f238:	b530      	push	{r4, r5, lr}
    f23a:	4605      	mov	r5, r0
    f23c:	460c      	mov	r4, r1
    f23e:	6810      	ldr	r0, [r2, #0]
    f240:	4629      	mov	r1, r5
    f242:	4622      	mov	r2, r4
    f244:	e8bd 4030 	ldmia.w	sp!, {r4, r5, lr}
    f248:	f7ff bfcc 	b.w	f1e4 <_wcrtomb_r>
    f24c:	100000f4 	.word	0x100000f4

0000f250 <__ascii_wctomb>:
    f250:	b149      	cbz	r1, f266 <__ascii_wctomb+0x16>
    f252:	2aff      	cmp	r2, #255	; 0xff
    f254:	d904      	bls.n	f260 <__ascii_wctomb+0x10>
    f256:	238a      	movs	r3, #138	; 0x8a
    f258:	6003      	str	r3, [r0, #0]
    f25a:	f04f 30ff 	mov.w	r0, #4294967295
    f25e:	4770      	bx	lr
    f260:	700a      	strb	r2, [r1, #0]
    f262:	2001      	movs	r0, #1
    f264:	4770      	bx	lr
    f266:	4608      	mov	r0, r1
    f268:	4770      	bx	lr
	...

0000f26c <_wctomb_r>:
    f26c:	e92d 41f3 	stmdb	sp!, {r0, r1, r4, r5, r6, r7, r8, lr}
    f270:	4698      	mov	r8, r3
    f272:	4b08      	ldr	r3, [pc, #32]	; (f294 <_wctomb_r+0x28>)
    f274:	4605      	mov	r5, r0
    f276:	460f      	mov	r7, r1
    f278:	4616      	mov	r6, r2
    f27a:	681c      	ldr	r4, [r3, #0]
    f27c:	f7fa fa84 	bl	9788 <__locale_charset>
    f280:	f8cd 8000 	str.w	r8, [sp]
    f284:	4639      	mov	r1, r7
    f286:	4632      	mov	r2, r6
    f288:	4603      	mov	r3, r0
    f28a:	4628      	mov	r0, r5
    f28c:	47a0      	blx	r4
    f28e:	e8bd 81fc 	ldmia.w	sp!, {r2, r3, r4, r5, r6, r7, r8, pc}
    f292:	bf00      	nop
    f294:	100005b0 	.word	0x100005b0

0000f298 <_sbrk>:
    f298:	f240 53b4 	movw	r3, #1460	; 0x5b4
    f29c:	f2c1 0300 	movt	r3, #4096	; 0x1000
    f2a0:	6819      	ldr	r1, [r3, #0]
    f2a2:	f647 72fc 	movw	r2, #32764	; 0x7ffc
    f2a6:	1808      	adds	r0, r1, r0
    f2a8:	f2c1 0200 	movt	r2, #4096	; 0x1000
    f2ac:	4290      	cmp	r0, r2
    f2ae:	d802      	bhi.n	f2b6 <_sbrk+0x1e>
    f2b0:	6018      	str	r0, [r3, #0]
    f2b2:	4608      	mov	r0, r1
    f2b4:	4770      	bx	lr
    f2b6:	2000      	movs	r0, #0
    f2b8:	4770      	bx	lr
    f2ba:	bf00      	nop

0000f2bc <_read>:
    f2bc:	e92d 45f8 	stmdb	sp!, {r3, r4, r5, r6, r7, r8, sl, lr}
    f2c0:	f1b2 0a00 	subs.w	sl, r2, #0
    f2c4:	4607      	mov	r7, r0
    f2c6:	4688      	mov	r8, r1
    f2c8:	dd1c      	ble.n	f304 <_read+0x48>
    f2ca:	2400      	movs	r4, #0
    f2cc:	eb08 0604 	add.w	r6, r8, r4
    f2d0:	ebc4 020a 	rsb	r2, r4, sl
    f2d4:	4631      	mov	r1, r6
    f2d6:	4638      	mov	r0, r7
    f2d8:	f000 f866 	bl	f3a8 <__read>
    f2dc:	4605      	mov	r5, r0
    f2de:	4631      	mov	r1, r6
    f2e0:	4638      	mov	r0, r7
    f2e2:	462a      	mov	r2, r5
    f2e4:	f000 f85e 	bl	f3a4 <__write>
    f2e8:	1964      	adds	r4, r4, r5
    f2ea:	2d00      	cmp	r5, #0
    f2ec:	eb04 0308 	add.w	r3, r4, r8
    f2f0:	dd03      	ble.n	f2fa <_read+0x3e>
    f2f2:	f813 3c01 	ldrb.w	r3, [r3, #-1]
    f2f6:	2b0a      	cmp	r3, #10
    f2f8:	d001      	beq.n	f2fe <_read+0x42>
    f2fa:	45a2      	cmp	sl, r4
    f2fc:	dce6      	bgt.n	f2cc <_read+0x10>
    f2fe:	4620      	mov	r0, r4
    f300:	e8bd 85f8 	ldmia.w	sp!, {r3, r4, r5, r6, r7, r8, sl, pc}
    f304:	2400      	movs	r4, #0
    f306:	e7fa      	b.n	f2fe <_read+0x42>

0000f308 <_write>:
    f308:	e92d 4ff0 	stmdb	sp!, {r4, r5, r6, r7, r8, r9, sl, fp, lr}
    f30c:	1e15      	subs	r5, r2, #0
    f30e:	b083      	sub	sp, #12
    f310:	4607      	mov	r7, r0
    f312:	4688      	mov	r8, r1
    f314:	dd3f      	ble.n	f396 <_write+0x8e>
    f316:	2600      	movs	r6, #0
    f318:	f240 6a00 	movw	sl, #1536	; 0x600
    f31c:	f2c1 0a00 	movt	sl, #4096	; 0x1000
    f320:	4634      	mov	r4, r6
    f322:	e003      	b.n	f32c <_write+0x24>
    f324:	2600      	movs	r6, #0
    f326:	18e4      	adds	r4, r4, r3
    f328:	42a5      	cmp	r5, r4
    f32a:	dd1d      	ble.n	f368 <_write+0x60>
    f32c:	eb08 0104 	add.w	r1, r8, r4
    f330:	1b2a      	subs	r2, r5, r4
    f332:	4638      	mov	r0, r7
    f334:	f000 f836 	bl	f3a4 <__write>
    f338:	f240 6b00 	movw	fp, #1536	; 0x600
    f33c:	4603      	mov	r3, r0
    f33e:	2800      	cmp	r0, #0
    f340:	d1f0      	bne.n	f324 <_write+0x1c>
    f342:	f8da 2000 	ldr.w	r2, [sl]
    f346:	f2c1 0b00 	movt	fp, #4096	; 0x1000
    f34a:	b9aa      	cbnz	r2, f378 <_write+0x70>
    f34c:	b1c6      	cbz	r6, f380 <_write+0x78>
    f34e:	9001      	str	r0, [sp, #4]
    f350:	f000 f8c6 	bl	f4e0 <millis>
    f354:	ebc9 0000 	rsb	r0, r9, r0
    f358:	f5b0 7f7a 	cmp.w	r0, #1000	; 0x3e8
    f35c:	9b01      	ldr	r3, [sp, #4]
    f35e:	d816      	bhi.n	f38e <_write+0x86>
    f360:	18e4      	adds	r4, r4, r3
    f362:	2601      	movs	r6, #1
    f364:	42a5      	cmp	r5, r4
    f366:	dce1      	bgt.n	f32c <_write+0x24>
    f368:	42ac      	cmp	r4, r5
    f36a:	d105      	bne.n	f378 <_write+0x70>
    f36c:	f240 6200 	movw	r2, #1536	; 0x600
    f370:	f2c1 0200 	movt	r2, #4096	; 0x1000
    f374:	2100      	movs	r1, #0
    f376:	6011      	str	r1, [r2, #0]
    f378:	4620      	mov	r0, r4
    f37a:	b003      	add	sp, #12
    f37c:	e8bd 8ff0 	ldmia.w	sp!, {r4, r5, r6, r7, r8, r9, sl, fp, pc}
    f380:	9001      	str	r0, [sp, #4]
    f382:	f000 f8ad 	bl	f4e0 <millis>
    f386:	2601      	movs	r6, #1
    f388:	4681      	mov	r9, r0
    f38a:	9b01      	ldr	r3, [sp, #4]
    f38c:	e7cb      	b.n	f326 <_write+0x1e>
    f38e:	2301      	movs	r3, #1
    f390:	f8cb 3000 	str.w	r3, [fp]
    f394:	e7f0      	b.n	f378 <_write+0x70>
    f396:	2400      	movs	r4, #0
    f398:	e7e6      	b.n	f368 <_write+0x60>
    f39a:	bf00      	nop

0000f39c <SysTick_Handler>:
    f39c:	e7fe      	b.n	f39c <SysTick_Handler>

0000f39e <Default_Handler>:
    f39e:	e7fe      	b.n	f39e <Default_Handler>

0000f3a0 <_open>:
    f3a0:	df01      	svc	1
    f3a2:	4770      	bx	lr

0000f3a4 <__write>:
    f3a4:	df02      	svc	2
    f3a6:	4770      	bx	lr

0000f3a8 <__read>:
    f3a8:	df03      	svc	3
    f3aa:	4770      	bx	lr

0000f3ac <_close>:
    f3ac:	df04      	svc	4
    f3ae:	4770      	bx	lr

0000f3b0 <_lseek>:
    f3b0:	df05      	svc	5
    f3b2:	4770      	bx	lr

0000f3b4 <_fstat>:
    f3b4:	df06      	svc	6
    f3b6:	4770      	bx	lr

0000f3b8 <_isatty>:
    f3b8:	df07      	svc	7
    f3ba:	4770      	bx	lr

0000f3bc <ioctl>:
    f3bc:	df08      	svc	8
    f3be:	4770      	bx	lr

0000f3c0 <SystemCoreClockUpdate>:
    f3c0:	4770      	bx	lr
    f3c2:	bf00      	nop

0000f3c4 <SystemInit>:
    f3c4:	f000 b85a 	b.w	f47c <openlpc_init>

0000f3c8 <_set_interval>:
    f3c8:	e92d 07f0 	stmdb	sp!, {r4, r5, r6, r7, r8, r9, sl}
    f3cc:	4603      	mov	r3, r0
    f3ce:	b921      	cbnz	r1, f3da <_set_interval+0x12>
    f3d0:	f04f 30ff 	mov.w	r0, #4294967295
    f3d4:	e8bd 07f0 	ldmia.w	sp!, {r4, r5, r6, r7, r8, r9, sl}
    f3d8:	4770      	bx	lr
    f3da:	4c24      	ldr	r4, [pc, #144]	; (f46c <_set_interval+0xa4>)
    f3dc:	6820      	ldr	r0, [r4, #0]
    f3de:	b148      	cbz	r0, f3f4 <_set_interval+0x2c>
    f3e0:	6860      	ldr	r0, [r4, #4]
    f3e2:	2800      	cmp	r0, #0
    f3e4:	d03e      	beq.n	f464 <_set_interval+0x9c>
    f3e6:	68a0      	ldr	r0, [r4, #8]
    f3e8:	2800      	cmp	r0, #0
    f3ea:	d03d      	beq.n	f468 <_set_interval+0xa0>
    f3ec:	68e0      	ldr	r0, [r4, #12]
    f3ee:	2800      	cmp	r0, #0
    f3f0:	d1ee      	bne.n	f3d0 <_set_interval+0x8>
    f3f2:	2003      	movs	r0, #3
    f3f4:	2501      	movs	r5, #1
    f3f6:	fa05 fc00 	lsl.w	ip, r5, r0
    f3fa:	eb00 0a40 	add.w	sl, r0, r0, lsl #1
    f3fe:	fa05 fa0a 	lsl.w	sl, r5, sl
    f402:	f8df 8070 	ldr.w	r8, [pc, #112]	; f474 <_set_interval+0xac>
    f406:	4d1a      	ldr	r5, [pc, #104]	; (f470 <_set_interval+0xa8>)
    f408:	2600      	movs	r6, #0
    f40a:	f845 6020 	str.w	r6, [r5, r0, lsl #2]
    f40e:	f8c8 c000 	str.w	ip, [r8]
    f412:	f8d8 9014 	ldr.w	r9, [r8, #20]
    f416:	eb01 0781 	add.w	r7, r1, r1, lsl #2
    f41a:	0086      	lsls	r6, r0, #2
    f41c:	ea4a 0109 	orr.w	r1, sl, r9
    f420:	007f      	lsls	r7, r7, #1
    f422:	eb04 0906 	add.w	r9, r4, r6
    f426:	f8c8 1014 	str.w	r1, [r8, #20]
    f42a:	4910      	ldr	r1, [pc, #64]	; (f46c <_set_interval+0xa4>)
    f42c:	f8c9 7010 	str.w	r7, [r9, #16]
    f430:	b19a      	cbz	r2, f45a <_set_interval+0x92>
    f432:	6a0a      	ldr	r2, [r1, #32]
    f434:	ea4c 0202 	orr.w	r2, ip, r2
    f438:	620a      	str	r2, [r1, #32]
    f43a:	f844 3020 	str.w	r3, [r4, r0, lsl #2]
    f43e:	2101      	movs	r1, #1
    f440:	f381 8810 	msr	PRIMASK, r1
    f444:	4a0b      	ldr	r2, [pc, #44]	; (f474 <_set_interval+0xac>)
    f446:	6893      	ldr	r3, [r2, #8]
    f448:	2200      	movs	r2, #0
    f44a:	18f9      	adds	r1, r7, r3
    f44c:	5171      	str	r1, [r6, r5]
    f44e:	f382 8810 	msr	PRIMASK, r2
    f452:	4b09      	ldr	r3, [pc, #36]	; (f478 <_set_interval+0xb0>)
    f454:	2110      	movs	r1, #16
    f456:	6019      	str	r1, [r3, #0]
    f458:	e7bc      	b.n	f3d4 <_set_interval+0xc>
    f45a:	6a0a      	ldr	r2, [r1, #32]
    f45c:	ea22 020c 	bic.w	r2, r2, ip
    f460:	620a      	str	r2, [r1, #32]
    f462:	e7ea      	b.n	f43a <_set_interval+0x72>
    f464:	2001      	movs	r0, #1
    f466:	e7c5      	b.n	f3f4 <_set_interval+0x2c>
    f468:	2002      	movs	r0, #2
    f46a:	e7c3      	b.n	f3f4 <_set_interval+0x2c>
    f46c:	10000604 	.word	0x10000604
    f470:	40094018 	.word	0x40094018
    f474:	40094000 	.word	0x40094000
    f478:	e000e100 	.word	0xe000e100

0000f47c <openlpc_init>:
    f47c:	4b14      	ldr	r3, [pc, #80]	; (f4d0 <openlpc_init+0x54>)
    f47e:	b570      	push	{r4, r5, r6, lr}
    f480:	f8d3 60c4 	ldr.w	r6, [r3, #196]	; 0xc4
    f484:	4c13      	ldr	r4, [pc, #76]	; (f4d4 <openlpc_init+0x58>)
    f486:	4d14      	ldr	r5, [pc, #80]	; (f4d8 <openlpc_init+0x5c>)
    f488:	f446 0680 	orr.w	r6, r6, #4194304	; 0x400000
    f48c:	f8c3 60c4 	str.w	r6, [r3, #196]	; 0xc4
    f490:	2302      	movs	r3, #2
    f492:	6063      	str	r3, [r4, #4]
    f494:	2100      	movs	r1, #0
    f496:	2210      	movs	r2, #16
    f498:	4628      	mov	r0, r5
    f49a:	f7fa fc9e 	bl	9dda <memset>
    f49e:	2100      	movs	r1, #0
    f4a0:	2210      	movs	r2, #16
    f4a2:	f105 0010 	add.w	r0, r5, #16
    f4a6:	f7fa fc98 	bl	9dda <memset>
    f4aa:	2300      	movs	r3, #0
    f4ac:	4a0b      	ldr	r2, [pc, #44]	; (f4dc <openlpc_init+0x60>)
    f4ae:	f640 105f 	movw	r0, #2399	; 0x95f
    f4b2:	6723      	str	r3, [r4, #112]	; 0x70
    f4b4:	f04f 5100 	mov.w	r1, #536870912	; 0x20000000
    f4b8:	622b      	str	r3, [r5, #32]
    f4ba:	60e0      	str	r0, [r4, #12]
    f4bc:	6163      	str	r3, [r4, #20]
    f4be:	203f      	movs	r0, #63	; 0x3f
    f4c0:	62a3      	str	r3, [r4, #40]	; 0x28
    f4c2:	2301      	movs	r3, #1
    f4c4:	6020      	str	r0, [r4, #0]
    f4c6:	6063      	str	r3, [r4, #4]
    f4c8:	6011      	str	r1, [r2, #0]
    f4ca:	61d1      	str	r1, [r2, #28]
    f4cc:	bd70      	pop	{r4, r5, r6, pc}
    f4ce:	bf00      	nop
    f4d0:	400fc000 	.word	0x400fc000
    f4d4:	40094000 	.word	0x40094000
    f4d8:	10000604 	.word	0x10000604
    f4dc:	2009c020 	.word	0x2009c020

0000f4e0 <millis>:
    f4e0:	4a03      	ldr	r2, [pc, #12]	; (f4f0 <millis+0x10>)
    f4e2:	4b04      	ldr	r3, [pc, #16]	; (f4f4 <millis+0x14>)
    f4e4:	6891      	ldr	r1, [r2, #8]
    f4e6:	fba3 2001 	umull	r2, r0, r3, r1
    f4ea:	08c0      	lsrs	r0, r0, #3
    f4ec:	4770      	bx	lr
    f4ee:	bf00      	nop
    f4f0:	40094000 	.word	0x40094000
    f4f4:	cccccccd 	.word	0xcccccccd

0000f4f8 <submillis>:
    f4f8:	4b01      	ldr	r3, [pc, #4]	; (f500 <submillis+0x8>)
    f4fa:	6898      	ldr	r0, [r3, #8]
    f4fc:	4770      	bx	lr
    f4fe:	bf00      	nop
    f500:	40094000 	.word	0x40094000

0000f504 <delay_subms>:
    f504:	4a09      	ldr	r2, [pc, #36]	; (f52c <delay_subms+0x28>)
    f506:	6893      	ldr	r3, [r2, #8]
    f508:	18c0      	adds	r0, r0, r3
    f50a:	d30a      	bcc.n	f522 <delay_subms+0x1e>
    f50c:	6891      	ldr	r1, [r2, #8]
    f50e:	428b      	cmp	r3, r1
    f510:	d9fc      	bls.n	f50c <delay_subms+0x8>
    f512:	4a06      	ldr	r2, [pc, #24]	; (f52c <delay_subms+0x28>)
    f514:	6893      	ldr	r3, [r2, #8]
    f516:	4298      	cmp	r0, r3
    f518:	d8fc      	bhi.n	f514 <delay_subms+0x10>
    f51a:	4770      	bx	lr
    f51c:	6891      	ldr	r1, [r2, #8]
    f51e:	428b      	cmp	r3, r1
    f520:	d802      	bhi.n	f528 <delay_subms+0x24>
    f522:	6891      	ldr	r1, [r2, #8]
    f524:	4288      	cmp	r0, r1
    f526:	d8f9      	bhi.n	f51c <delay_subms+0x18>
    f528:	4770      	bx	lr
    f52a:	bf00      	nop
    f52c:	40094000 	.word	0x40094000

0000f530 <delay_ms>:
    f530:	eb00 0080 	add.w	r0, r0, r0, lsl #2
    f534:	0040      	lsls	r0, r0, #1
    f536:	e7e5      	b.n	f504 <delay_subms>

0000f538 <set_interval>:
    f538:	2200      	movs	r2, #0
    f53a:	e745      	b.n	f3c8 <_set_interval>

0000f53c <clear_interval>:
    f53c:	2803      	cmp	r0, #3
    f53e:	b4f0      	push	{r4, r5, r6, r7}
    f540:	4603      	mov	r3, r0
    f542:	d903      	bls.n	f54c <clear_interval+0x10>
    f544:	f04f 30ff 	mov.w	r0, #4294967295
    f548:	bcf0      	pop	{r4, r5, r6, r7}
    f54a:	4770      	bx	lr
    f54c:	4a10      	ldr	r2, [pc, #64]	; (f590 <clear_interval+0x54>)
    f54e:	f852 1020 	ldr.w	r1, [r2, r0, lsl #2]
    f552:	2900      	cmp	r1, #0
    f554:	d0f6      	beq.n	f544 <clear_interval+0x8>
    f556:	2101      	movs	r1, #1
    f558:	eb00 0440 	add.w	r4, r0, r0, lsl #1
    f55c:	fa11 f704 	lsls.w	r7, r1, r4
    f560:	fa11 f500 	lsls.w	r5, r1, r0
    f564:	4c0b      	ldr	r4, [pc, #44]	; (f594 <clear_interval+0x58>)
    f566:	6a16      	ldr	r6, [r2, #32]
    f568:	6960      	ldr	r0, [r4, #20]
    f56a:	2100      	movs	r1, #0
    f56c:	ea20 0007 	bic.w	r0, r0, r7
    f570:	6160      	str	r0, [r4, #20]
    f572:	eb02 0783 	add.w	r7, r2, r3, lsl #2
    f576:	6025      	str	r5, [r4, #0]
    f578:	ea26 0605 	bic.w	r6, r6, r5
    f57c:	3418      	adds	r4, #24
    f57e:	f844 1023 	str.w	r1, [r4, r3, lsl #2]
    f582:	4608      	mov	r0, r1
    f584:	f842 1023 	str.w	r1, [r2, r3, lsl #2]
    f588:	6139      	str	r1, [r7, #16]
    f58a:	6216      	str	r6, [r2, #32]
    f58c:	e7dc      	b.n	f548 <clear_interval+0xc>
    f58e:	bf00      	nop
    f590:	10000604 	.word	0x10000604
    f594:	40094000 	.word	0x40094000

0000f598 <_handleIRQ>:
    f598:	b570      	push	{r4, r5, r6, lr}
    f59a:	2501      	movs	r5, #1
    f59c:	fa15 f200 	lsls.w	r2, r5, r0
    f5a0:	4b16      	ldr	r3, [pc, #88]	; (f5fc <_handleIRQ+0x64>)
    f5a2:	4604      	mov	r4, r0
    f5a4:	6819      	ldr	r1, [r3, #0]
    f5a6:	420a      	tst	r2, r1
    f5a8:	d01d      	beq.n	f5e6 <_handleIRQ+0x4e>
    f5aa:	4e15      	ldr	r6, [pc, #84]	; (f600 <_handleIRQ+0x68>)
    f5ac:	601a      	str	r2, [r3, #0]
    f5ae:	f856 3020 	ldr.w	r3, [r6, r0, lsl #2]
    f5b2:	b1c3      	cbz	r3, f5e6 <_handleIRQ+0x4e>
    f5b4:	4798      	blx	r3
    f5b6:	6a30      	ldr	r0, [r6, #32]
    f5b8:	fa50 f304 	asrs.w	r3, r0, r4
    f5bc:	f013 0f01 	tst.w	r3, #1
    f5c0:	d117      	bne.n	f5f2 <_handleIRQ+0x5a>
    f5c2:	f385 8810 	msr	PRIMASK, r5
    f5c6:	4b0f      	ldr	r3, [pc, #60]	; (f604 <_handleIRQ+0x6c>)
    f5c8:	eb06 0684 	add.w	r6, r6, r4, lsl #2
    f5cc:	490b      	ldr	r1, [pc, #44]	; (f5fc <_handleIRQ+0x64>)
    f5ce:	f853 5024 	ldr.w	r5, [r3, r4, lsl #2]
    f5d2:	6932      	ldr	r2, [r6, #16]
    f5d4:	6888      	ldr	r0, [r1, #8]
    f5d6:	18aa      	adds	r2, r5, r2
    f5d8:	4282      	cmp	r2, r0
    f5da:	d905      	bls.n	f5e8 <_handleIRQ+0x50>
    f5dc:	f843 2024 	str.w	r2, [r3, r4, lsl #2]
    f5e0:	2300      	movs	r3, #0
    f5e2:	f383 8810 	msr	PRIMASK, r3
    f5e6:	bd70      	pop	{r4, r5, r6, pc}
    f5e8:	6889      	ldr	r1, [r1, #8]
    f5ea:	310a      	adds	r1, #10
    f5ec:	f843 1024 	str.w	r1, [r3, r4, lsl #2]
    f5f0:	e7f6      	b.n	f5e0 <_handleIRQ+0x48>
    f5f2:	4620      	mov	r0, r4
    f5f4:	e8bd 4070 	ldmia.w	sp!, {r4, r5, r6, lr}
    f5f8:	e7a0      	b.n	f53c <clear_interval>
    f5fa:	bf00      	nop
    f5fc:	40094000 	.word	0x40094000
    f600:	10000604 	.word	0x10000604
    f604:	40094018 	.word	0x40094018

0000f608 <TIMER3_IRQHandler>:
    f608:	b510      	push	{r4, lr}
    f60a:	2000      	movs	r0, #0
    f60c:	f7ff ffc4 	bl	f598 <_handleIRQ>
    f610:	2001      	movs	r0, #1
    f612:	f7ff ffc1 	bl	f598 <_handleIRQ>
    f616:	2002      	movs	r0, #2
    f618:	f7ff ffbe 	bl	f598 <_handleIRQ>
    f61c:	2003      	movs	r0, #3
    f61e:	e8bd 4010 	ldmia.w	sp!, {r4, lr}
    f622:	e7b9      	b.n	f598 <_handleIRQ>

0000f624 <set_timeout>:
    f624:	2201      	movs	r2, #1
    f626:	e6cf      	b.n	f3c8 <_set_interval>

0000f628 <clear_timeout>:
    f628:	e788      	b.n	f53c <clear_interval>
    f62a:	bf00      	nop
    f62c:	0000      	movs	r0, r0
	...

0000f630 <__aeabi_uidiv>:
    f630:	1e4a      	subs	r2, r1, #1
    f632:	bf08      	it	eq
    f634:	4770      	bxeq	lr
    f636:	f0c0 8124 	bcc.w	f882 <__aeabi_uidiv+0x252>
    f63a:	4288      	cmp	r0, r1
    f63c:	f240 8116 	bls.w	f86c <__aeabi_uidiv+0x23c>
    f640:	4211      	tst	r1, r2
    f642:	f000 8117 	beq.w	f874 <__aeabi_uidiv+0x244>
    f646:	fab0 f380 	clz	r3, r0
    f64a:	fab1 f281 	clz	r2, r1
    f64e:	eba2 0303 	sub.w	r3, r2, r3
    f652:	f1c3 031f 	rsb	r3, r3, #31
    f656:	a204      	add	r2, pc, #16	; (adr r2, f668 <__aeabi_uidiv+0x38>)
    f658:	eb02 1303 	add.w	r3, r2, r3, lsl #4
    f65c:	f04f 0200 	mov.w	r2, #0
    f660:	469f      	mov	pc, r3
    f662:	bf00      	nop
    f664:	f3af 8000 	nop.w
    f668:	ebb0 7fc1 	cmp.w	r0, r1, lsl #31
    f66c:	bf00      	nop
    f66e:	eb42 0202 	adc.w	r2, r2, r2
    f672:	bf28      	it	cs
    f674:	eba0 70c1 	subcs.w	r0, r0, r1, lsl #31
    f678:	ebb0 7f81 	cmp.w	r0, r1, lsl #30
    f67c:	bf00      	nop
    f67e:	eb42 0202 	adc.w	r2, r2, r2
    f682:	bf28      	it	cs
    f684:	eba0 7081 	subcs.w	r0, r0, r1, lsl #30
    f688:	ebb0 7f41 	cmp.w	r0, r1, lsl #29
    f68c:	bf00      	nop
    f68e:	eb42 0202 	adc.w	r2, r2, r2
    f692:	bf28      	it	cs
    f694:	eba0 7041 	subcs.w	r0, r0, r1, lsl #29
    f698:	ebb0 7f01 	cmp.w	r0, r1, lsl #28
    f69c:	bf00      	nop
    f69e:	eb42 0202 	adc.w	r2, r2, r2
    f6a2:	bf28      	it	cs
    f6a4:	eba0 7001 	subcs.w	r0, r0, r1, lsl #28
    f6a8:	ebb0 6fc1 	cmp.w	r0, r1, lsl #27
    f6ac:	bf00      	nop
    f6ae:	eb42 0202 	adc.w	r2, r2, r2
    f6b2:	bf28      	it	cs
    f6b4:	eba0 60c1 	subcs.w	r0, r0, r1, lsl #27
    f6b8:	ebb0 6f81 	cmp.w	r0, r1, lsl #26
    f6bc:	bf00      	nop
    f6be:	eb42 0202 	adc.w	r2, r2, r2
    f6c2:	bf28      	it	cs
    f6c4:	eba0 6081 	subcs.w	r0, r0, r1, lsl #26
    f6c8:	ebb0 6f41 	cmp.w	r0, r1, lsl #25
    f6cc:	bf00      	nop
    f6ce:	eb42 0202 	adc.w	r2, r2, r2
    f6d2:	bf28      	it	cs
    f6d4:	eba0 6041 	subcs.w	r0, r0, r1, lsl #25
    f6d8:	ebb0 6f01 	cmp.w	r0, r1, lsl #24
    f6dc:	bf00      	nop
    f6de:	eb42 0202 	adc.w	r2, r2, r2
    f6e2:	bf28      	it	cs
    f6e4:	eba0 6001 	subcs.w	r0, r0, r1, lsl #24
    f6e8:	ebb0 5fc1 	cmp.w	r0, r1, lsl #23
    f6ec:	bf00      	nop
    f6ee:	eb42 0202 	adc.w	r2, r2, r2
    f6f2:	bf28      	it	cs
    f6f4:	eba0 50c1 	subcs.w	r0, r0, r1, lsl #23
    f6f8:	ebb0 5f81 	cmp.w	r0, r1, lsl #22
    f6fc:	bf00      	nop
    f6fe:	eb42 0202 	adc.w	r2, r2, r2
    f702:	bf28      	it	cs
    f704:	eba0 5081 	subcs.w	r0, r0, r1, lsl #22
    f708:	ebb0 5f41 	cmp.w	r0, r1, lsl #21
    f70c:	bf00      	nop
    f70e:	eb42 0202 	adc.w	r2, r2, r2
    f712:	bf28      	it	cs
    f714:	eba0 5041 	subcs.w	r0, r0, r1, lsl #21
    f718:	ebb0 5f01 	cmp.w	r0, r1, lsl #20
    f71c:	bf00      	nop
    f71e:	eb42 0202 	adc.w	r2, r2, r2
    f722:	bf28      	it	cs
    f724:	eba0 5001 	subcs.w	r0, r0, r1, lsl #20
    f728:	ebb0 4fc1 	cmp.w	r0, r1, lsl #19
    f72c:	bf00      	nop
    f72e:	eb42 0202 	adc.w	r2, r2, r2
    f732:	bf28      	it	cs
    f734:	eba0 40c1 	subcs.w	r0, r0, r1, lsl #19
    f738:	ebb0 4f81 	cmp.w	r0, r1, lsl #18
    f73c:	bf00      	nop
    f73e:	eb42 0202 	adc.w	r2, r2, r2
    f742:	bf28      	it	cs
    f744:	eba0 4081 	subcs.w	r0, r0, r1, lsl #18
    f748:	ebb0 4f41 	cmp.w	r0, r1, lsl #17
    f74c:	bf00      	nop
    f74e:	eb42 0202 	adc.w	r2, r2, r2
    f752:	bf28      	it	cs
    f754:	eba0 4041 	subcs.w	r0, r0, r1, lsl #17
    f758:	ebb0 4f01 	cmp.w	r0, r1, lsl #16
    f75c:	bf00      	nop
    f75e:	eb42 0202 	adc.w	r2, r2, r2
    f762:	bf28      	it	cs
    f764:	eba0 4001 	subcs.w	r0, r0, r1, lsl #16
    f768:	ebb0 3fc1 	cmp.w	r0, r1, lsl #15
    f76c:	bf00      	nop
    f76e:	eb42 0202 	adc.w	r2, r2, r2
    f772:	bf28      	it	cs
    f774:	eba0 30c1 	subcs.w	r0, r0, r1, lsl #15
    f778:	ebb0 3f81 	cmp.w	r0, r1, lsl #14
    f77c:	bf00      	nop
    f77e:	eb42 0202 	adc.w	r2, r2, r2
    f782:	bf28      	it	cs
    f784:	eba0 3081 	subcs.w	r0, r0, r1, lsl #14
    f788:	ebb0 3f41 	cmp.w	r0, r1, lsl #13
    f78c:	bf00      	nop
    f78e:	eb42 0202 	adc.w	r2, r2, r2
    f792:	bf28      	it	cs
    f794:	eba0 3041 	subcs.w	r0, r0, r1, lsl #13
    f798:	ebb0 3f01 	cmp.w	r0, r1, lsl #12
    f79c:	bf00      	nop
    f79e:	eb42 0202 	adc.w	r2, r2, r2
    f7a2:	bf28      	it	cs
    f7a4:	eba0 3001 	subcs.w	r0, r0, r1, lsl #12
    f7a8:	ebb0 2fc1 	cmp.w	r0, r1, lsl #11
    f7ac:	bf00      	nop
    f7ae:	eb42 0202 	adc.w	r2, r2, r2
    f7b2:	bf28      	it	cs
    f7b4:	eba0 20c1 	subcs.w	r0, r0, r1, lsl #11
    f7b8:	ebb0 2f81 	cmp.w	r0, r1, lsl #10
    f7bc:	bf00      	nop
    f7be:	eb42 0202 	adc.w	r2, r2, r2
    f7c2:	bf28      	it	cs
    f7c4:	eba0 2081 	subcs.w	r0, r0, r1, lsl #10
    f7c8:	ebb0 2f41 	cmp.w	r0, r1, lsl #9
    f7cc:	bf00      	nop
    f7ce:	eb42 0202 	adc.w	r2, r2, r2
    f7d2:	bf28      	it	cs
    f7d4:	eba0 2041 	subcs.w	r0, r0, r1, lsl #9
    f7d8:	ebb0 2f01 	cmp.w	r0, r1, lsl #8
    f7dc:	bf00      	nop
    f7de:	eb42 0202 	adc.w	r2, r2, r2
    f7e2:	bf28      	it	cs
    f7e4:	eba0 2001 	subcs.w	r0, r0, r1, lsl #8
    f7e8:	ebb0 1fc1 	cmp.w	r0, r1, lsl #7
    f7ec:	bf00      	nop
    f7ee:	eb42 0202 	adc.w	r2, r2, r2
    f7f2:	bf28      	it	cs
    f7f4:	eba0 10c1 	subcs.w	r0, r0, r1, lsl #7
    f7f8:	ebb0 1f81 	cmp.w	r0, r1, lsl #6
    f7fc:	bf00      	nop
    f7fe:	eb42 0202 	adc.w	r2, r2, r2
    f802:	bf28      	it	cs
    f804:	eba0 1081 	subcs.w	r0, r0, r1, lsl #6
    f808:	ebb0 1f41 	cmp.w	r0, r1, lsl #5
    f80c:	bf00      	nop
    f80e:	eb42 0202 	adc.w	r2, r2, r2
    f812:	bf28      	it	cs
    f814:	eba0 1041 	subcs.w	r0, r0, r1, lsl #5
    f818:	ebb0 1f01 	cmp.w	r0, r1, lsl #4
    f81c:	bf00      	nop
    f81e:	eb42 0202 	adc.w	r2, r2, r2
    f822:	bf28      	it	cs
    f824:	eba0 1001 	subcs.w	r0, r0, r1, lsl #4
    f828:	ebb0 0fc1 	cmp.w	r0, r1, lsl #3
    f82c:	bf00      	nop
    f82e:	eb42 0202 	adc.w	r2, r2, r2
    f832:	bf28      	it	cs
    f834:	eba0 00c1 	subcs.w	r0, r0, r1, lsl #3
    f838:	ebb0 0f81 	cmp.w	r0, r1, lsl #2
    f83c:	bf00      	nop
    f83e:	eb42 0202 	adc.w	r2, r2, r2
    f842:	bf28      	it	cs
    f844:	eba0 0081 	subcs.w	r0, r0, r1, lsl #2
    f848:	ebb0 0f41 	cmp.w	r0, r1, lsl #1
    f84c:	bf00      	nop
    f84e:	eb42 0202 	adc.w	r2, r2, r2
    f852:	bf28      	it	cs
    f854:	eba0 0041 	subcs.w	r0, r0, r1, lsl #1
    f858:	ebb0 0f01 	cmp.w	r0, r1
    f85c:	bf00      	nop
    f85e:	eb42 0202 	adc.w	r2, r2, r2
    f862:	bf28      	it	cs
    f864:	eba0 0001 	subcs.w	r0, r0, r1
    f868:	4610      	mov	r0, r2
    f86a:	4770      	bx	lr
    f86c:	bf0c      	ite	eq
    f86e:	2001      	moveq	r0, #1
    f870:	2000      	movne	r0, #0
    f872:	4770      	bx	lr
    f874:	fab1 f281 	clz	r2, r1
    f878:	f1c2 021f 	rsb	r2, r2, #31
    f87c:	fa20 f002 	lsr.w	r0, r0, r2
    f880:	4770      	bx	lr
    f882:	b108      	cbz	r0, f888 <__aeabi_uidiv+0x258>
    f884:	f04f 30ff 	mov.w	r0, #4294967295
    f888:	f000 b966 	b.w	fb58 <__aeabi_idiv0>

0000f88c <__aeabi_uidivmod>:
    f88c:	2900      	cmp	r1, #0
    f88e:	d0f8      	beq.n	f882 <__aeabi_uidiv+0x252>
    f890:	e92d 4003 	stmdb	sp!, {r0, r1, lr}
    f894:	f7ff fecc 	bl	f630 <__aeabi_uidiv>
    f898:	e8bd 4006 	ldmia.w	sp!, {r1, r2, lr}
    f89c:	fb02 f300 	mul.w	r3, r2, r0
    f8a0:	eba1 0103 	sub.w	r1, r1, r3
    f8a4:	4770      	bx	lr
    f8a6:	bf00      	nop

0000f8a8 <__aeabi_idiv>:
    f8a8:	2900      	cmp	r1, #0
    f8aa:	f000 813e 	beq.w	fb2a <.divsi3_skip_div0_test+0x27c>

0000f8ae <.divsi3_skip_div0_test>:
    f8ae:	ea80 0c01 	eor.w	ip, r0, r1
    f8b2:	bf48      	it	mi
    f8b4:	4249      	negmi	r1, r1
    f8b6:	1e4a      	subs	r2, r1, #1
    f8b8:	f000 811f 	beq.w	fafa <.divsi3_skip_div0_test+0x24c>
    f8bc:	0003      	movs	r3, r0
    f8be:	bf48      	it	mi
    f8c0:	4243      	negmi	r3, r0
    f8c2:	428b      	cmp	r3, r1
    f8c4:	f240 811e 	bls.w	fb04 <.divsi3_skip_div0_test+0x256>
    f8c8:	4211      	tst	r1, r2
    f8ca:	f000 8123 	beq.w	fb14 <.divsi3_skip_div0_test+0x266>
    f8ce:	fab3 f283 	clz	r2, r3
    f8d2:	fab1 f081 	clz	r0, r1
    f8d6:	eba0 0202 	sub.w	r2, r0, r2
    f8da:	f1c2 021f 	rsb	r2, r2, #31
    f8de:	a004      	add	r0, pc, #16	; (adr r0, f8f0 <.divsi3_skip_div0_test+0x42>)
    f8e0:	eb00 1202 	add.w	r2, r0, r2, lsl #4
    f8e4:	f04f 0000 	mov.w	r0, #0
    f8e8:	4697      	mov	pc, r2
    f8ea:	bf00      	nop
    f8ec:	f3af 8000 	nop.w
    f8f0:	ebb3 7fc1 	cmp.w	r3, r1, lsl #31
    f8f4:	bf00      	nop
    f8f6:	eb40 0000 	adc.w	r0, r0, r0
    f8fa:	bf28      	it	cs
    f8fc:	eba3 73c1 	subcs.w	r3, r3, r1, lsl #31
    f900:	ebb3 7f81 	cmp.w	r3, r1, lsl #30
    f904:	bf00      	nop
    f906:	eb40 0000 	adc.w	r0, r0, r0
    f90a:	bf28      	it	cs
    f90c:	eba3 7381 	subcs.w	r3, r3, r1, lsl #30
    f910:	ebb3 7f41 	cmp.w	r3, r1, lsl #29
    f914:	bf00      	nop
    f916:	eb40 0000 	adc.w	r0, r0, r0
    f91a:	bf28      	it	cs
    f91c:	eba3 7341 	subcs.w	r3, r3, r1, lsl #29
    f920:	ebb3 7f01 	cmp.w	r3, r1, lsl #28
    f924:	bf00      	nop
    f926:	eb40 0000 	adc.w	r0, r0, r0
    f92a:	bf28      	it	cs
    f92c:	eba3 7301 	subcs.w	r3, r3, r1, lsl #28
    f930:	ebb3 6fc1 	cmp.w	r3, r1, lsl #27
    f934:	bf00      	nop
    f936:	eb40 0000 	adc.w	r0, r0, r0
    f93a:	bf28      	it	cs
    f93c:	eba3 63c1 	subcs.w	r3, r3, r1, lsl #27
    f940:	ebb3 6f81 	cmp.w	r3, r1, lsl #26
    f944:	bf00      	nop
    f946:	eb40 0000 	adc.w	r0, r0, r0
    f94a:	bf28      	it	cs
    f94c:	eba3 6381 	subcs.w	r3, r3, r1, lsl #26
    f950:	ebb3 6f41 	cmp.w	r3, r1, lsl #25
    f954:	bf00      	nop
    f956:	eb40 0000 	adc.w	r0, r0, r0
    f95a:	bf28      	it	cs
    f95c:	eba3 6341 	subcs.w	r3, r3, r1, lsl #25
    f960:	ebb3 6f01 	cmp.w	r3, r1, lsl #24
    f964:	bf00      	nop
    f966:	eb40 0000 	adc.w	r0, r0, r0
    f96a:	bf28      	it	cs
    f96c:	eba3 6301 	subcs.w	r3, r3, r1, lsl #24
    f970:	ebb3 5fc1 	cmp.w	r3, r1, lsl #23
    f974:	bf00      	nop
    f976:	eb40 0000 	adc.w	r0, r0, r0
    f97a:	bf28      	it	cs
    f97c:	eba3 53c1 	subcs.w	r3, r3, r1, lsl #23
    f980:	ebb3 5f81 	cmp.w	r3, r1, lsl #22
    f984:	bf00      	nop
    f986:	eb40 0000 	adc.w	r0, r0, r0
    f98a:	bf28      	it	cs
    f98c:	eba3 5381 	subcs.w	r3, r3, r1, lsl #22
    f990:	ebb3 5f41 	cmp.w	r3, r1, lsl #21
    f994:	bf00      	nop
    f996:	eb40 0000 	adc.w	r0, r0, r0
    f99a:	bf28      	it	cs
    f99c:	eba3 5341 	subcs.w	r3, r3, r1, lsl #21
    f9a0:	ebb3 5f01 	cmp.w	r3, r1, lsl #20
    f9a4:	bf00      	nop
    f9a6:	eb40 0000 	adc.w	r0, r0, r0
    f9aa:	bf28      	it	cs
    f9ac:	eba3 5301 	subcs.w	r3, r3, r1, lsl #20
    f9b0:	ebb3 4fc1 	cmp.w	r3, r1, lsl #19
    f9b4:	bf00      	nop
    f9b6:	eb40 0000 	adc.w	r0, r0, r0
    f9ba:	bf28      	it	cs
    f9bc:	eba3 43c1 	subcs.w	r3, r3, r1, lsl #19
    f9c0:	ebb3 4f81 	cmp.w	r3, r1, lsl #18
    f9c4:	bf00      	nop
    f9c6:	eb40 0000 	adc.w	r0, r0, r0
    f9ca:	bf28      	it	cs
    f9cc:	eba3 4381 	subcs.w	r3, r3, r1, lsl #18
    f9d0:	ebb3 4f41 	cmp.w	r3, r1, lsl #17
    f9d4:	bf00      	nop
    f9d6:	eb40 0000 	adc.w	r0, r0, r0
    f9da:	bf28      	it	cs
    f9dc:	eba3 4341 	subcs.w	r3, r3, r1, lsl #17
    f9e0:	ebb3 4f01 	cmp.w	r3, r1, lsl #16
    f9e4:	bf00      	nop
    f9e6:	eb40 0000 	adc.w	r0, r0, r0
    f9ea:	bf28      	it	cs
    f9ec:	eba3 4301 	subcs.w	r3, r3, r1, lsl #16
    f9f0:	ebb3 3fc1 	cmp.w	r3, r1, lsl #15
    f9f4:	bf00      	nop
    f9f6:	eb40 0000 	adc.w	r0, r0, r0
    f9fa:	bf28      	it	cs
    f9fc:	eba3 33c1 	subcs.w	r3, r3, r1, lsl #15
    fa00:	ebb3 3f81 	cmp.w	r3, r1, lsl #14
    fa04:	bf00      	nop
    fa06:	eb40 0000 	adc.w	r0, r0, r0
    fa0a:	bf28      	it	cs
    fa0c:	eba3 3381 	subcs.w	r3, r3, r1, lsl #14
    fa10:	ebb3 3f41 	cmp.w	r3, r1, lsl #13
    fa14:	bf00      	nop
    fa16:	eb40 0000 	adc.w	r0, r0, r0
    fa1a:	bf28      	it	cs
    fa1c:	eba3 3341 	subcs.w	r3, r3, r1, lsl #13
    fa20:	ebb3 3f01 	cmp.w	r3, r1, lsl #12
    fa24:	bf00      	nop
    fa26:	eb40 0000 	adc.w	r0, r0, r0
    fa2a:	bf28      	it	cs
    fa2c:	eba3 3301 	subcs.w	r3, r3, r1, lsl #12
    fa30:	ebb3 2fc1 	cmp.w	r3, r1, lsl #11
    fa34:	bf00      	nop
    fa36:	eb40 0000 	adc.w	r0, r0, r0
    fa3a:	bf28      	it	cs
    fa3c:	eba3 23c1 	subcs.w	r3, r3, r1, lsl #11
    fa40:	ebb3 2f81 	cmp.w	r3, r1, lsl #10
    fa44:	bf00      	nop
    fa46:	eb40 0000 	adc.w	r0, r0, r0
    fa4a:	bf28      	it	cs
    fa4c:	eba3 2381 	subcs.w	r3, r3, r1, lsl #10
    fa50:	ebb3 2f41 	cmp.w	r3, r1, lsl #9
    fa54:	bf00      	nop
    fa56:	eb40 0000 	adc.w	r0, r0, r0
    fa5a:	bf28      	it	cs
    fa5c:	eba3 2341 	subcs.w	r3, r3, r1, lsl #9
    fa60:	ebb3 2f01 	cmp.w	r3, r1, lsl #8
    fa64:	bf00      	nop
    fa66:	eb40 0000 	adc.w	r0, r0, r0
    fa6a:	bf28      	it	cs
    fa6c:	eba3 2301 	subcs.w	r3, r3, r1, lsl #8
    fa70:	ebb3 1fc1 	cmp.w	r3, r1, lsl #7
    fa74:	bf00      	nop
    fa76:	eb40 0000 	adc.w	r0, r0, r0
    fa7a:	bf28      	it	cs
    fa7c:	eba3 13c1 	subcs.w	r3, r3, r1, lsl #7
    fa80:	ebb3 1f81 	cmp.w	r3, r1, lsl #6
    fa84:	bf00      	nop
    fa86:	eb40 0000 	adc.w	r0, r0, r0
    fa8a:	bf28      	it	cs
    fa8c:	eba3 1381 	subcs.w	r3, r3, r1, lsl #6
    fa90:	ebb3 1f41 	cmp.w	r3, r1, lsl #5
    fa94:	bf00      	nop
    fa96:	eb40 0000 	adc.w	r0, r0, r0
    fa9a:	bf28      	it	cs
    fa9c:	eba3 1341 	subcs.w	r3, r3, r1, lsl #5
    faa0:	ebb3 1f01 	cmp.w	r3, r1, lsl #4
    faa4:	bf00      	nop
    faa6:	eb40 0000 	adc.w	r0, r0, r0
    faaa:	bf28      	it	cs
    faac:	eba3 1301 	subcs.w	r3, r3, r1, lsl #4
    fab0:	ebb3 0fc1 	cmp.w	r3, r1, lsl #3
    fab4:	bf00      	nop
    fab6:	eb40 0000 	adc.w	r0, r0, r0
    faba:	bf28      	it	cs
    fabc:	eba3 03c1 	subcs.w	r3, r3, r1, lsl #3
    fac0:	ebb3 0f81 	cmp.w	r3, r1, lsl #2
    fac4:	bf00      	nop
    fac6:	eb40 0000 	adc.w	r0, r0, r0
    faca:	bf28      	it	cs
    facc:	eba3 0381 	subcs.w	r3, r3, r1, lsl #2
    fad0:	ebb3 0f41 	cmp.w	r3, r1, lsl #1
    fad4:	bf00      	nop
    fad6:	eb40 0000 	adc.w	r0, r0, r0
    fada:	bf28      	it	cs
    fadc:	eba3 0341 	subcs.w	r3, r3, r1, lsl #1
    fae0:	ebb3 0f01 	cmp.w	r3, r1
    fae4:	bf00      	nop
    fae6:	eb40 0000 	adc.w	r0, r0, r0
    faea:	bf28      	it	cs
    faec:	eba3 0301 	subcs.w	r3, r3, r1
    faf0:	f1bc 0f00 	cmp.w	ip, #0
    faf4:	bf48      	it	mi
    faf6:	4240      	negmi	r0, r0
    faf8:	4770      	bx	lr
    fafa:	ea9c 0f00 	teq	ip, r0
    fafe:	bf48      	it	mi
    fb00:	4240      	negmi	r0, r0
    fb02:	4770      	bx	lr
    fb04:	bf38      	it	cc
    fb06:	2000      	movcc	r0, #0
    fb08:	bf04      	itt	eq
    fb0a:	ea4f 70ec 	moveq.w	r0, ip, asr #31
    fb0e:	f040 0001 	orreq.w	r0, r0, #1
    fb12:	4770      	bx	lr
    fb14:	fab1 f281 	clz	r2, r1
    fb18:	f1c2 021f 	rsb	r2, r2, #31
    fb1c:	f1bc 0f00 	cmp.w	ip, #0
    fb20:	fa23 f002 	lsr.w	r0, r3, r2
    fb24:	bf48      	it	mi
    fb26:	4240      	negmi	r0, r0
    fb28:	4770      	bx	lr
    fb2a:	2800      	cmp	r0, #0
    fb2c:	bfc8      	it	gt
    fb2e:	f06f 4000 	mvngt.w	r0, #2147483648	; 0x80000000
    fb32:	bfb8      	it	lt
    fb34:	f04f 4000 	movlt.w	r0, #2147483648	; 0x80000000
    fb38:	f000 b80e 	b.w	fb58 <__aeabi_idiv0>

0000fb3c <__aeabi_idivmod>:
    fb3c:	2900      	cmp	r1, #0
    fb3e:	d0f4      	beq.n	fb2a <.divsi3_skip_div0_test+0x27c>
    fb40:	e92d 4003 	stmdb	sp!, {r0, r1, lr}
    fb44:	f7ff feb3 	bl	f8ae <.divsi3_skip_div0_test>
    fb48:	e8bd 4006 	ldmia.w	sp!, {r1, r2, lr}
    fb4c:	fb02 f300 	mul.w	r3, r2, r0
    fb50:	eba1 0103 	sub.w	r1, r1, r3
    fb54:	4770      	bx	lr
    fb56:	bf00      	nop

0000fb58 <__aeabi_idiv0>:
    fb58:	4770      	bx	lr
    fb5a:	bf00      	nop

0000fb5c <__aeabi_drsub>:
    fb5c:	f081 4100 	eor.w	r1, r1, #2147483648	; 0x80000000
    fb60:	e002      	b.n	fb68 <__adddf3>
    fb62:	bf00      	nop

0000fb64 <__aeabi_dsub>:
    fb64:	f083 4300 	eor.w	r3, r3, #2147483648	; 0x80000000

0000fb68 <__adddf3>:
    fb68:	b530      	push	{r4, r5, lr}
    fb6a:	ea4f 0441 	mov.w	r4, r1, lsl #1
    fb6e:	ea4f 0543 	mov.w	r5, r3, lsl #1
    fb72:	ea94 0f05 	teq	r4, r5
    fb76:	bf08      	it	eq
    fb78:	ea90 0f02 	teqeq	r0, r2
    fb7c:	bf1f      	itttt	ne
    fb7e:	ea54 0c00 	orrsne.w	ip, r4, r0
    fb82:	ea55 0c02 	orrsne.w	ip, r5, r2
    fb86:	ea7f 5c64 	mvnsne.w	ip, r4, asr #21
    fb8a:	ea7f 5c65 	mvnsne.w	ip, r5, asr #21
    fb8e:	f000 80e2 	beq.w	fd56 <__adddf3+0x1ee>
    fb92:	ea4f 5454 	mov.w	r4, r4, lsr #21
    fb96:	ebd4 5555 	rsbs	r5, r4, r5, lsr #21
    fb9a:	bfb8      	it	lt
    fb9c:	426d      	neglt	r5, r5
    fb9e:	dd0c      	ble.n	fbba <__adddf3+0x52>
    fba0:	442c      	add	r4, r5
    fba2:	ea80 0202 	eor.w	r2, r0, r2
    fba6:	ea81 0303 	eor.w	r3, r1, r3
    fbaa:	ea82 0000 	eor.w	r0, r2, r0
    fbae:	ea83 0101 	eor.w	r1, r3, r1
    fbb2:	ea80 0202 	eor.w	r2, r0, r2
    fbb6:	ea81 0303 	eor.w	r3, r1, r3
    fbba:	2d36      	cmp	r5, #54	; 0x36
    fbbc:	bf88      	it	hi
    fbbe:	bd30      	pophi	{r4, r5, pc}
    fbc0:	f011 4f00 	tst.w	r1, #2147483648	; 0x80000000
    fbc4:	ea4f 3101 	mov.w	r1, r1, lsl #12
    fbc8:	f44f 1c80 	mov.w	ip, #1048576	; 0x100000
    fbcc:	ea4c 3111 	orr.w	r1, ip, r1, lsr #12
    fbd0:	d002      	beq.n	fbd8 <__adddf3+0x70>
    fbd2:	4240      	negs	r0, r0
    fbd4:	eb61 0141 	sbc.w	r1, r1, r1, lsl #1
    fbd8:	f013 4f00 	tst.w	r3, #2147483648	; 0x80000000
    fbdc:	ea4f 3303 	mov.w	r3, r3, lsl #12
    fbe0:	ea4c 3313 	orr.w	r3, ip, r3, lsr #12
    fbe4:	d002      	beq.n	fbec <__adddf3+0x84>
    fbe6:	4252      	negs	r2, r2
    fbe8:	eb63 0343 	sbc.w	r3, r3, r3, lsl #1
    fbec:	ea94 0f05 	teq	r4, r5
    fbf0:	f000 80a7 	beq.w	fd42 <__adddf3+0x1da>
    fbf4:	f1a4 0401 	sub.w	r4, r4, #1
    fbf8:	f1d5 0e20 	rsbs	lr, r5, #32
    fbfc:	db0d      	blt.n	fc1a <__adddf3+0xb2>
    fbfe:	fa02 fc0e 	lsl.w	ip, r2, lr
    fc02:	fa22 f205 	lsr.w	r2, r2, r5
    fc06:	1880      	adds	r0, r0, r2
    fc08:	f141 0100 	adc.w	r1, r1, #0
    fc0c:	fa03 f20e 	lsl.w	r2, r3, lr
    fc10:	1880      	adds	r0, r0, r2
    fc12:	fa43 f305 	asr.w	r3, r3, r5
    fc16:	4159      	adcs	r1, r3
    fc18:	e00e      	b.n	fc38 <__adddf3+0xd0>
    fc1a:	f1a5 0520 	sub.w	r5, r5, #32
    fc1e:	f10e 0e20 	add.w	lr, lr, #32
    fc22:	2a01      	cmp	r2, #1
    fc24:	fa03 fc0e 	lsl.w	ip, r3, lr
    fc28:	bf28      	it	cs
    fc2a:	f04c 0c02 	orrcs.w	ip, ip, #2
    fc2e:	fa43 f305 	asr.w	r3, r3, r5
    fc32:	18c0      	adds	r0, r0, r3
    fc34:	eb51 71e3 	adcs.w	r1, r1, r3, asr #31
    fc38:	f001 4500 	and.w	r5, r1, #2147483648	; 0x80000000
    fc3c:	d507      	bpl.n	fc4e <__adddf3+0xe6>
    fc3e:	f04f 0e00 	mov.w	lr, #0
    fc42:	f1dc 0c00 	rsbs	ip, ip, #0
    fc46:	eb7e 0000 	sbcs.w	r0, lr, r0
    fc4a:	eb6e 0101 	sbc.w	r1, lr, r1
    fc4e:	f5b1 1f80 	cmp.w	r1, #1048576	; 0x100000
    fc52:	d31b      	bcc.n	fc8c <__adddf3+0x124>
    fc54:	f5b1 1f00 	cmp.w	r1, #2097152	; 0x200000
    fc58:	d30c      	bcc.n	fc74 <__adddf3+0x10c>
    fc5a:	0849      	lsrs	r1, r1, #1
    fc5c:	ea5f 0030 	movs.w	r0, r0, rrx
    fc60:	ea4f 0c3c 	mov.w	ip, ip, rrx
    fc64:	f104 0401 	add.w	r4, r4, #1
    fc68:	ea4f 5244 	mov.w	r2, r4, lsl #21
    fc6c:	f512 0f80 	cmn.w	r2, #4194304	; 0x400000
    fc70:	f080 809a 	bcs.w	fda8 <__adddf3+0x240>
    fc74:	f1bc 4f00 	cmp.w	ip, #2147483648	; 0x80000000
    fc78:	bf08      	it	eq
    fc7a:	ea5f 0c50 	movseq.w	ip, r0, lsr #1
    fc7e:	f150 0000 	adcs.w	r0, r0, #0
    fc82:	eb41 5104 	adc.w	r1, r1, r4, lsl #20
    fc86:	ea41 0105 	orr.w	r1, r1, r5
    fc8a:	bd30      	pop	{r4, r5, pc}
    fc8c:	ea5f 0c4c 	movs.w	ip, ip, lsl #1
    fc90:	4140      	adcs	r0, r0
    fc92:	eb41 0101 	adc.w	r1, r1, r1
    fc96:	f411 1f80 	tst.w	r1, #1048576	; 0x100000
    fc9a:	f1a4 0401 	sub.w	r4, r4, #1
    fc9e:	d1e9      	bne.n	fc74 <__adddf3+0x10c>
    fca0:	f091 0f00 	teq	r1, #0
    fca4:	bf04      	itt	eq
    fca6:	4601      	moveq	r1, r0
    fca8:	2000      	moveq	r0, #0
    fcaa:	fab1 f381 	clz	r3, r1
    fcae:	bf08      	it	eq
    fcb0:	3320      	addeq	r3, #32
    fcb2:	f1a3 030b 	sub.w	r3, r3, #11
    fcb6:	f1b3 0220 	subs.w	r2, r3, #32
    fcba:	da0c      	bge.n	fcd6 <__adddf3+0x16e>
    fcbc:	320c      	adds	r2, #12
    fcbe:	dd08      	ble.n	fcd2 <__adddf3+0x16a>
    fcc0:	f102 0c14 	add.w	ip, r2, #20
    fcc4:	f1c2 020c 	rsb	r2, r2, #12
    fcc8:	fa01 f00c 	lsl.w	r0, r1, ip
    fccc:	fa21 f102 	lsr.w	r1, r1, r2
    fcd0:	e00c      	b.n	fcec <__adddf3+0x184>
    fcd2:	f102 0214 	add.w	r2, r2, #20
    fcd6:	bfd8      	it	le
    fcd8:	f1c2 0c20 	rsble	ip, r2, #32
    fcdc:	fa01 f102 	lsl.w	r1, r1, r2
    fce0:	fa20 fc0c 	lsr.w	ip, r0, ip
    fce4:	bfdc      	itt	le
    fce6:	ea41 010c 	orrle.w	r1, r1, ip
    fcea:	4090      	lslle	r0, r2
    fcec:	1ae4      	subs	r4, r4, r3
    fcee:	bfa2      	ittt	ge
    fcf0:	eb01 5104 	addge.w	r1, r1, r4, lsl #20
    fcf4:	4329      	orrge	r1, r5
    fcf6:	bd30      	popge	{r4, r5, pc}
    fcf8:	ea6f 0404 	mvn.w	r4, r4
    fcfc:	3c1f      	subs	r4, #31
    fcfe:	da1c      	bge.n	fd3a <__adddf3+0x1d2>
    fd00:	340c      	adds	r4, #12
    fd02:	dc0e      	bgt.n	fd22 <__adddf3+0x1ba>
    fd04:	f104 0414 	add.w	r4, r4, #20
    fd08:	f1c4 0220 	rsb	r2, r4, #32
    fd0c:	fa20 f004 	lsr.w	r0, r0, r4
    fd10:	fa01 f302 	lsl.w	r3, r1, r2
    fd14:	ea40 0003 	orr.w	r0, r0, r3
    fd18:	fa21 f304 	lsr.w	r3, r1, r4
    fd1c:	ea45 0103 	orr.w	r1, r5, r3
    fd20:	bd30      	pop	{r4, r5, pc}
    fd22:	f1c4 040c 	rsb	r4, r4, #12
    fd26:	f1c4 0220 	rsb	r2, r4, #32
    fd2a:	fa20 f002 	lsr.w	r0, r0, r2
    fd2e:	fa01 f304 	lsl.w	r3, r1, r4
    fd32:	ea40 0003 	orr.w	r0, r0, r3
    fd36:	4629      	mov	r1, r5
    fd38:	bd30      	pop	{r4, r5, pc}
    fd3a:	fa21 f004 	lsr.w	r0, r1, r4
    fd3e:	4629      	mov	r1, r5
    fd40:	bd30      	pop	{r4, r5, pc}
    fd42:	f094 0f00 	teq	r4, #0
    fd46:	f483 1380 	eor.w	r3, r3, #1048576	; 0x100000
    fd4a:	bf06      	itte	eq
    fd4c:	f481 1180 	eoreq.w	r1, r1, #1048576	; 0x100000
    fd50:	3401      	addeq	r4, #1
    fd52:	3d01      	subne	r5, #1
    fd54:	e74e      	b.n	fbf4 <__adddf3+0x8c>
    fd56:	ea7f 5c64 	mvns.w	ip, r4, asr #21
    fd5a:	bf18      	it	ne
    fd5c:	ea7f 5c65 	mvnsne.w	ip, r5, asr #21
    fd60:	d029      	beq.n	fdb6 <__adddf3+0x24e>
    fd62:	ea94 0f05 	teq	r4, r5
    fd66:	bf08      	it	eq
    fd68:	ea90 0f02 	teqeq	r0, r2
    fd6c:	d005      	beq.n	fd7a <__adddf3+0x212>
    fd6e:	ea54 0c00 	orrs.w	ip, r4, r0
    fd72:	bf04      	itt	eq
    fd74:	4619      	moveq	r1, r3
    fd76:	4610      	moveq	r0, r2
    fd78:	bd30      	pop	{r4, r5, pc}
    fd7a:	ea91 0f03 	teq	r1, r3
    fd7e:	bf1e      	ittt	ne
    fd80:	2100      	movne	r1, #0
    fd82:	2000      	movne	r0, #0
    fd84:	bd30      	popne	{r4, r5, pc}
    fd86:	ea5f 5c54 	movs.w	ip, r4, lsr #21
    fd8a:	d105      	bne.n	fd98 <__adddf3+0x230>
    fd8c:	0040      	lsls	r0, r0, #1
    fd8e:	4149      	adcs	r1, r1
    fd90:	bf28      	it	cs
    fd92:	f041 4100 	orrcs.w	r1, r1, #2147483648	; 0x80000000
    fd96:	bd30      	pop	{r4, r5, pc}
    fd98:	f514 0480 	adds.w	r4, r4, #4194304	; 0x400000
    fd9c:	bf3c      	itt	cc
    fd9e:	f501 1180 	addcc.w	r1, r1, #1048576	; 0x100000
    fda2:	bd30      	popcc	{r4, r5, pc}
    fda4:	f001 4500 	and.w	r5, r1, #2147483648	; 0x80000000
    fda8:	f045 41fe 	orr.w	r1, r5, #2130706432	; 0x7f000000
    fdac:	f441 0170 	orr.w	r1, r1, #15728640	; 0xf00000
    fdb0:	f04f 0000 	mov.w	r0, #0
    fdb4:	bd30      	pop	{r4, r5, pc}
    fdb6:	ea7f 5c64 	mvns.w	ip, r4, asr #21
    fdba:	bf1a      	itte	ne
    fdbc:	4619      	movne	r1, r3
    fdbe:	4610      	movne	r0, r2
    fdc0:	ea7f 5c65 	mvnseq.w	ip, r5, asr #21
    fdc4:	bf1c      	itt	ne
    fdc6:	460b      	movne	r3, r1
    fdc8:	4602      	movne	r2, r0
    fdca:	ea50 3401 	orrs.w	r4, r0, r1, lsl #12
    fdce:	bf06      	itte	eq
    fdd0:	ea52 3503 	orrseq.w	r5, r2, r3, lsl #12
    fdd4:	ea91 0f03 	teqeq	r1, r3
    fdd8:	f441 2100 	orrne.w	r1, r1, #524288	; 0x80000
    fddc:	bd30      	pop	{r4, r5, pc}
    fdde:	bf00      	nop

0000fde0 <__aeabi_ui2d>:
    fde0:	f090 0f00 	teq	r0, #0
    fde4:	bf04      	itt	eq
    fde6:	2100      	moveq	r1, #0
    fde8:	4770      	bxeq	lr
    fdea:	b530      	push	{r4, r5, lr}
    fdec:	f44f 6480 	mov.w	r4, #1024	; 0x400
    fdf0:	f104 0432 	add.w	r4, r4, #50	; 0x32
    fdf4:	f04f 0500 	mov.w	r5, #0
    fdf8:	f04f 0100 	mov.w	r1, #0
    fdfc:	e750      	b.n	fca0 <__adddf3+0x138>
    fdfe:	bf00      	nop

0000fe00 <__aeabi_i2d>:
    fe00:	f090 0f00 	teq	r0, #0
    fe04:	bf04      	itt	eq
    fe06:	2100      	moveq	r1, #0
    fe08:	4770      	bxeq	lr
    fe0a:	b530      	push	{r4, r5, lr}
    fe0c:	f44f 6480 	mov.w	r4, #1024	; 0x400
    fe10:	f104 0432 	add.w	r4, r4, #50	; 0x32
    fe14:	f010 4500 	ands.w	r5, r0, #2147483648	; 0x80000000
    fe18:	bf48      	it	mi
    fe1a:	4240      	negmi	r0, r0
    fe1c:	f04f 0100 	mov.w	r1, #0
    fe20:	e73e      	b.n	fca0 <__adddf3+0x138>
    fe22:	bf00      	nop

0000fe24 <__aeabi_f2d>:
    fe24:	0042      	lsls	r2, r0, #1
    fe26:	ea4f 01e2 	mov.w	r1, r2, asr #3
    fe2a:	ea4f 0131 	mov.w	r1, r1, rrx
    fe2e:	ea4f 7002 	mov.w	r0, r2, lsl #28
    fe32:	bf1f      	itttt	ne
    fe34:	f012 437f 	andsne.w	r3, r2, #4278190080	; 0xff000000
    fe38:	f093 4f7f 	teqne	r3, #4278190080	; 0xff000000
    fe3c:	f081 5160 	eorne.w	r1, r1, #939524096	; 0x38000000
    fe40:	4770      	bxne	lr
    fe42:	f092 0f00 	teq	r2, #0
    fe46:	bf14      	ite	ne
    fe48:	f093 4f7f 	teqne	r3, #4278190080	; 0xff000000
    fe4c:	4770      	bxeq	lr
    fe4e:	b530      	push	{r4, r5, lr}
    fe50:	f44f 7460 	mov.w	r4, #896	; 0x380
    fe54:	f001 4500 	and.w	r5, r1, #2147483648	; 0x80000000
    fe58:	f021 4100 	bic.w	r1, r1, #2147483648	; 0x80000000
    fe5c:	e720      	b.n	fca0 <__adddf3+0x138>
    fe5e:	bf00      	nop

0000fe60 <__aeabi_ul2d>:
    fe60:	ea50 0201 	orrs.w	r2, r0, r1
    fe64:	bf08      	it	eq
    fe66:	4770      	bxeq	lr
    fe68:	b530      	push	{r4, r5, lr}
    fe6a:	f04f 0500 	mov.w	r5, #0
    fe6e:	e00a      	b.n	fe86 <__aeabi_l2d+0x16>

0000fe70 <__aeabi_l2d>:
    fe70:	ea50 0201 	orrs.w	r2, r0, r1
    fe74:	bf08      	it	eq
    fe76:	4770      	bxeq	lr
    fe78:	b530      	push	{r4, r5, lr}
    fe7a:	f011 4500 	ands.w	r5, r1, #2147483648	; 0x80000000
    fe7e:	d502      	bpl.n	fe86 <__aeabi_l2d+0x16>
    fe80:	4240      	negs	r0, r0
    fe82:	eb61 0141 	sbc.w	r1, r1, r1, lsl #1
    fe86:	f44f 6480 	mov.w	r4, #1024	; 0x400
    fe8a:	f104 0432 	add.w	r4, r4, #50	; 0x32
    fe8e:	ea5f 5c91 	movs.w	ip, r1, lsr #22
    fe92:	f43f aedc 	beq.w	fc4e <__adddf3+0xe6>
    fe96:	f04f 0203 	mov.w	r2, #3
    fe9a:	ea5f 0cdc 	movs.w	ip, ip, lsr #3
    fe9e:	bf18      	it	ne
    fea0:	3203      	addne	r2, #3
    fea2:	ea5f 0cdc 	movs.w	ip, ip, lsr #3
    fea6:	bf18      	it	ne
    fea8:	3203      	addne	r2, #3
    feaa:	eb02 02dc 	add.w	r2, r2, ip, lsr #3
    feae:	f1c2 0320 	rsb	r3, r2, #32
    feb2:	fa00 fc03 	lsl.w	ip, r0, r3
    feb6:	fa20 f002 	lsr.w	r0, r0, r2
    feba:	fa01 fe03 	lsl.w	lr, r1, r3
    febe:	ea40 000e 	orr.w	r0, r0, lr
    fec2:	fa21 f102 	lsr.w	r1, r1, r2
    fec6:	4414      	add	r4, r2
    fec8:	e6c1      	b.n	fc4e <__adddf3+0xe6>
    feca:	bf00      	nop

0000fecc <__aeabi_dmul>:
    fecc:	b570      	push	{r4, r5, r6, lr}
    fece:	f04f 0cff 	mov.w	ip, #255	; 0xff
    fed2:	f44c 6ce0 	orr.w	ip, ip, #1792	; 0x700
    fed6:	ea1c 5411 	ands.w	r4, ip, r1, lsr #20
    feda:	bf1d      	ittte	ne
    fedc:	ea1c 5513 	andsne.w	r5, ip, r3, lsr #20
    fee0:	ea94 0f0c 	teqne	r4, ip
    fee4:	ea95 0f0c 	teqne	r5, ip
    fee8:	f000 f8de 	bleq	100a8 <__aeabi_dmul+0x1dc>
    feec:	442c      	add	r4, r5
    feee:	ea81 0603 	eor.w	r6, r1, r3
    fef2:	ea21 514c 	bic.w	r1, r1, ip, lsl #21
    fef6:	ea23 534c 	bic.w	r3, r3, ip, lsl #21
    fefa:	ea50 3501 	orrs.w	r5, r0, r1, lsl #12
    fefe:	bf18      	it	ne
    ff00:	ea52 3503 	orrsne.w	r5, r2, r3, lsl #12
    ff04:	f441 1180 	orr.w	r1, r1, #1048576	; 0x100000
    ff08:	f443 1380 	orr.w	r3, r3, #1048576	; 0x100000
    ff0c:	d038      	beq.n	ff80 <__aeabi_dmul+0xb4>
    ff0e:	fba0 ce02 	umull	ip, lr, r0, r2
    ff12:	f04f 0500 	mov.w	r5, #0
    ff16:	fbe1 e502 	umlal	lr, r5, r1, r2
    ff1a:	f006 4200 	and.w	r2, r6, #2147483648	; 0x80000000
    ff1e:	fbe0 e503 	umlal	lr, r5, r0, r3
    ff22:	f04f 0600 	mov.w	r6, #0
    ff26:	fbe1 5603 	umlal	r5, r6, r1, r3
    ff2a:	f09c 0f00 	teq	ip, #0
    ff2e:	bf18      	it	ne
    ff30:	f04e 0e01 	orrne.w	lr, lr, #1
    ff34:	f1a4 04ff 	sub.w	r4, r4, #255	; 0xff
    ff38:	f5b6 7f00 	cmp.w	r6, #512	; 0x200
    ff3c:	f564 7440 	sbc.w	r4, r4, #768	; 0x300
    ff40:	d204      	bcs.n	ff4c <__aeabi_dmul+0x80>
    ff42:	ea5f 0e4e 	movs.w	lr, lr, lsl #1
    ff46:	416d      	adcs	r5, r5
    ff48:	eb46 0606 	adc.w	r6, r6, r6
    ff4c:	ea42 21c6 	orr.w	r1, r2, r6, lsl #11
    ff50:	ea41 5155 	orr.w	r1, r1, r5, lsr #21
    ff54:	ea4f 20c5 	mov.w	r0, r5, lsl #11
    ff58:	ea40 505e 	orr.w	r0, r0, lr, lsr #21
    ff5c:	ea4f 2ece 	mov.w	lr, lr, lsl #11
    ff60:	f1b4 0cfd 	subs.w	ip, r4, #253	; 0xfd
    ff64:	bf88      	it	hi
    ff66:	f5bc 6fe0 	cmphi.w	ip, #1792	; 0x700
    ff6a:	d81e      	bhi.n	ffaa <__aeabi_dmul+0xde>
    ff6c:	f1be 4f00 	cmp.w	lr, #2147483648	; 0x80000000
    ff70:	bf08      	it	eq
    ff72:	ea5f 0e50 	movseq.w	lr, r0, lsr #1
    ff76:	f150 0000 	adcs.w	r0, r0, #0
    ff7a:	eb41 5104 	adc.w	r1, r1, r4, lsl #20
    ff7e:	bd70      	pop	{r4, r5, r6, pc}
    ff80:	f006 4600 	and.w	r6, r6, #2147483648	; 0x80000000
    ff84:	ea46 0101 	orr.w	r1, r6, r1
    ff88:	ea40 0002 	orr.w	r0, r0, r2
    ff8c:	ea81 0103 	eor.w	r1, r1, r3
    ff90:	ebb4 045c 	subs.w	r4, r4, ip, lsr #1
    ff94:	bfc2      	ittt	gt
    ff96:	ebd4 050c 	rsbsgt	r5, r4, ip
    ff9a:	ea41 5104 	orrgt.w	r1, r1, r4, lsl #20
    ff9e:	bd70      	popgt	{r4, r5, r6, pc}
    ffa0:	f441 1180 	orr.w	r1, r1, #1048576	; 0x100000
    ffa4:	f04f 0e00 	mov.w	lr, #0
    ffa8:	3c01      	subs	r4, #1
    ffaa:	f300 80ab 	bgt.w	10104 <__aeabi_dmul+0x238>
    ffae:	f114 0f36 	cmn.w	r4, #54	; 0x36
    ffb2:	bfde      	ittt	le
    ffb4:	2000      	movle	r0, #0
    ffb6:	f001 4100 	andle.w	r1, r1, #2147483648	; 0x80000000
    ffba:	bd70      	pople	{r4, r5, r6, pc}
    ffbc:	f1c4 0400 	rsb	r4, r4, #0
    ffc0:	3c20      	subs	r4, #32
    ffc2:	da35      	bge.n	10030 <__aeabi_dmul+0x164>
    ffc4:	340c      	adds	r4, #12
    ffc6:	dc1b      	bgt.n	10000 <__aeabi_dmul+0x134>
    ffc8:	f104 0414 	add.w	r4, r4, #20
    ffcc:	f1c4 0520 	rsb	r5, r4, #32
    ffd0:	fa00 f305 	lsl.w	r3, r0, r5
    ffd4:	fa20 f004 	lsr.w	r0, r0, r4
    ffd8:	fa01 f205 	lsl.w	r2, r1, r5
    ffdc:	ea40 0002 	orr.w	r0, r0, r2
    ffe0:	f001 4200 	and.w	r2, r1, #2147483648	; 0x80000000
    ffe4:	f021 4100 	bic.w	r1, r1, #2147483648	; 0x80000000
    ffe8:	eb10 70d3 	adds.w	r0, r0, r3, lsr #31
    ffec:	fa21 f604 	lsr.w	r6, r1, r4
    fff0:	eb42 0106 	adc.w	r1, r2, r6
    fff4:	ea5e 0e43 	orrs.w	lr, lr, r3, lsl #1
    fff8:	bf08      	it	eq
    fffa:	ea20 70d3 	biceq.w	r0, r0, r3, lsr #31
    fffe:	bd70      	pop	{r4, r5, r6, pc}
   10000:	f1c4 040c 	rsb	r4, r4, #12
   10004:	f1c4 0520 	rsb	r5, r4, #32
   10008:	fa00 f304 	lsl.w	r3, r0, r4
   1000c:	fa20 f005 	lsr.w	r0, r0, r5
   10010:	fa01 f204 	lsl.w	r2, r1, r4
   10014:	ea40 0002 	orr.w	r0, r0, r2
   10018:	f001 4100 	and.w	r1, r1, #2147483648	; 0x80000000
   1001c:	eb10 70d3 	adds.w	r0, r0, r3, lsr #31
   10020:	f141 0100 	adc.w	r1, r1, #0
   10024:	ea5e 0e43 	orrs.w	lr, lr, r3, lsl #1
   10028:	bf08      	it	eq
   1002a:	ea20 70d3 	biceq.w	r0, r0, r3, lsr #31
   1002e:	bd70      	pop	{r4, r5, r6, pc}
   10030:	f1c4 0520 	rsb	r5, r4, #32
   10034:	fa00 f205 	lsl.w	r2, r0, r5
   10038:	ea4e 0e02 	orr.w	lr, lr, r2
   1003c:	fa20 f304 	lsr.w	r3, r0, r4
   10040:	fa01 f205 	lsl.w	r2, r1, r5
   10044:	ea43 0302 	orr.w	r3, r3, r2
   10048:	fa21 f004 	lsr.w	r0, r1, r4
   1004c:	f001 4100 	and.w	r1, r1, #2147483648	; 0x80000000
   10050:	fa21 f204 	lsr.w	r2, r1, r4
   10054:	ea20 0002 	bic.w	r0, r0, r2
   10058:	eb00 70d3 	add.w	r0, r0, r3, lsr #31
   1005c:	ea5e 0e43 	orrs.w	lr, lr, r3, lsl #1
   10060:	bf08      	it	eq
   10062:	ea20 70d3 	biceq.w	r0, r0, r3, lsr #31
   10066:	bd70      	pop	{r4, r5, r6, pc}
   10068:	f094 0f00 	teq	r4, #0
   1006c:	d10f      	bne.n	1008e <__aeabi_dmul+0x1c2>
   1006e:	f001 4600 	and.w	r6, r1, #2147483648	; 0x80000000
   10072:	0040      	lsls	r0, r0, #1
   10074:	eb41 0101 	adc.w	r1, r1, r1
   10078:	f411 1f80 	tst.w	r1, #1048576	; 0x100000
   1007c:	bf08      	it	eq
   1007e:	3c01      	subeq	r4, #1
   10080:	d0f7      	beq.n	10072 <__aeabi_dmul+0x1a6>
   10082:	ea41 0106 	orr.w	r1, r1, r6
   10086:	f095 0f00 	teq	r5, #0
   1008a:	bf18      	it	ne
   1008c:	4770      	bxne	lr
   1008e:	f003 4600 	and.w	r6, r3, #2147483648	; 0x80000000
   10092:	0052      	lsls	r2, r2, #1
   10094:	eb43 0303 	adc.w	r3, r3, r3
   10098:	f413 1f80 	tst.w	r3, #1048576	; 0x100000
   1009c:	bf08      	it	eq
   1009e:	3d01      	subeq	r5, #1
   100a0:	d0f7      	beq.n	10092 <__aeabi_dmul+0x1c6>
   100a2:	ea43 0306 	orr.w	r3, r3, r6
   100a6:	4770      	bx	lr
   100a8:	ea94 0f0c 	teq	r4, ip
   100ac:	ea0c 5513 	and.w	r5, ip, r3, lsr #20
   100b0:	bf18      	it	ne
   100b2:	ea95 0f0c 	teqne	r5, ip
   100b6:	d00c      	beq.n	100d2 <__aeabi_dmul+0x206>
   100b8:	ea50 0641 	orrs.w	r6, r0, r1, lsl #1
   100bc:	bf18      	it	ne
   100be:	ea52 0643 	orrsne.w	r6, r2, r3, lsl #1
   100c2:	d1d1      	bne.n	10068 <__aeabi_dmul+0x19c>
   100c4:	ea81 0103 	eor.w	r1, r1, r3
   100c8:	f001 4100 	and.w	r1, r1, #2147483648	; 0x80000000
   100cc:	f04f 0000 	mov.w	r0, #0
   100d0:	bd70      	pop	{r4, r5, r6, pc}
   100d2:	ea50 0641 	orrs.w	r6, r0, r1, lsl #1
   100d6:	bf06      	itte	eq
   100d8:	4610      	moveq	r0, r2
   100da:	4619      	moveq	r1, r3
   100dc:	ea52 0643 	orrsne.w	r6, r2, r3, lsl #1
   100e0:	d019      	beq.n	10116 <__aeabi_dmul+0x24a>
   100e2:	ea94 0f0c 	teq	r4, ip
   100e6:	d102      	bne.n	100ee <__aeabi_dmul+0x222>
   100e8:	ea50 3601 	orrs.w	r6, r0, r1, lsl #12
   100ec:	d113      	bne.n	10116 <__aeabi_dmul+0x24a>
   100ee:	ea95 0f0c 	teq	r5, ip
   100f2:	d105      	bne.n	10100 <__aeabi_dmul+0x234>
   100f4:	ea52 3603 	orrs.w	r6, r2, r3, lsl #12
   100f8:	bf1c      	itt	ne
   100fa:	4610      	movne	r0, r2
   100fc:	4619      	movne	r1, r3
   100fe:	d10a      	bne.n	10116 <__aeabi_dmul+0x24a>
   10100:	ea81 0103 	eor.w	r1, r1, r3
   10104:	f001 4100 	and.w	r1, r1, #2147483648	; 0x80000000
   10108:	f041 41fe 	orr.w	r1, r1, #2130706432	; 0x7f000000
   1010c:	f441 0170 	orr.w	r1, r1, #15728640	; 0xf00000
   10110:	f04f 0000 	mov.w	r0, #0
   10114:	bd70      	pop	{r4, r5, r6, pc}
   10116:	f041 41fe 	orr.w	r1, r1, #2130706432	; 0x7f000000
   1011a:	f441 0178 	orr.w	r1, r1, #16252928	; 0xf80000
   1011e:	bd70      	pop	{r4, r5, r6, pc}

00010120 <__aeabi_ddiv>:
   10120:	b570      	push	{r4, r5, r6, lr}
   10122:	f04f 0cff 	mov.w	ip, #255	; 0xff
   10126:	f44c 6ce0 	orr.w	ip, ip, #1792	; 0x700
   1012a:	ea1c 5411 	ands.w	r4, ip, r1, lsr #20
   1012e:	bf1d      	ittte	ne
   10130:	ea1c 5513 	andsne.w	r5, ip, r3, lsr #20
   10134:	ea94 0f0c 	teqne	r4, ip
   10138:	ea95 0f0c 	teqne	r5, ip
   1013c:	f000 f8a7 	bleq	1028e <__aeabi_ddiv+0x16e>
   10140:	eba4 0405 	sub.w	r4, r4, r5
   10144:	ea81 0e03 	eor.w	lr, r1, r3
   10148:	ea52 3503 	orrs.w	r5, r2, r3, lsl #12
   1014c:	ea4f 3101 	mov.w	r1, r1, lsl #12
   10150:	f000 8088 	beq.w	10264 <__aeabi_ddiv+0x144>
   10154:	ea4f 3303 	mov.w	r3, r3, lsl #12
   10158:	f04f 5580 	mov.w	r5, #268435456	; 0x10000000
   1015c:	ea45 1313 	orr.w	r3, r5, r3, lsr #4
   10160:	ea43 6312 	orr.w	r3, r3, r2, lsr #24
   10164:	ea4f 2202 	mov.w	r2, r2, lsl #8
   10168:	ea45 1511 	orr.w	r5, r5, r1, lsr #4
   1016c:	ea45 6510 	orr.w	r5, r5, r0, lsr #24
   10170:	ea4f 2600 	mov.w	r6, r0, lsl #8
   10174:	f00e 4100 	and.w	r1, lr, #2147483648	; 0x80000000
   10178:	429d      	cmp	r5, r3
   1017a:	bf08      	it	eq
   1017c:	4296      	cmpeq	r6, r2
   1017e:	f144 04fd 	adc.w	r4, r4, #253	; 0xfd
   10182:	f504 7440 	add.w	r4, r4, #768	; 0x300
   10186:	d202      	bcs.n	1018e <__aeabi_ddiv+0x6e>
   10188:	085b      	lsrs	r3, r3, #1
   1018a:	ea4f 0232 	mov.w	r2, r2, rrx
   1018e:	1ab6      	subs	r6, r6, r2
   10190:	eb65 0503 	sbc.w	r5, r5, r3
   10194:	085b      	lsrs	r3, r3, #1
   10196:	ea4f 0232 	mov.w	r2, r2, rrx
   1019a:	f44f 1080 	mov.w	r0, #1048576	; 0x100000
   1019e:	f44f 2c00 	mov.w	ip, #524288	; 0x80000
   101a2:	ebb6 0e02 	subs.w	lr, r6, r2
   101a6:	eb75 0e03 	sbcs.w	lr, r5, r3
   101aa:	bf22      	ittt	cs
   101ac:	1ab6      	subcs	r6, r6, r2
   101ae:	4675      	movcs	r5, lr
   101b0:	ea40 000c 	orrcs.w	r0, r0, ip
   101b4:	085b      	lsrs	r3, r3, #1
   101b6:	ea4f 0232 	mov.w	r2, r2, rrx
   101ba:	ebb6 0e02 	subs.w	lr, r6, r2
   101be:	eb75 0e03 	sbcs.w	lr, r5, r3
   101c2:	bf22      	ittt	cs
   101c4:	1ab6      	subcs	r6, r6, r2
   101c6:	4675      	movcs	r5, lr
   101c8:	ea40 005c 	orrcs.w	r0, r0, ip, lsr #1
   101cc:	085b      	lsrs	r3, r3, #1
   101ce:	ea4f 0232 	mov.w	r2, r2, rrx
   101d2:	ebb6 0e02 	subs.w	lr, r6, r2
   101d6:	eb75 0e03 	sbcs.w	lr, r5, r3
   101da:	bf22      	ittt	cs
   101dc:	1ab6      	subcs	r6, r6, r2
   101de:	4675      	movcs	r5, lr
   101e0:	ea40 009c 	orrcs.w	r0, r0, ip, lsr #2
   101e4:	085b      	lsrs	r3, r3, #1
   101e6:	ea4f 0232 	mov.w	r2, r2, rrx
   101ea:	ebb6 0e02 	subs.w	lr, r6, r2
   101ee:	eb75 0e03 	sbcs.w	lr, r5, r3
   101f2:	bf22      	ittt	cs
   101f4:	1ab6      	subcs	r6, r6, r2
   101f6:	4675      	movcs	r5, lr
   101f8:	ea40 00dc 	orrcs.w	r0, r0, ip, lsr #3
   101fc:	ea55 0e06 	orrs.w	lr, r5, r6
   10200:	d018      	beq.n	10234 <__aeabi_ddiv+0x114>
   10202:	ea4f 1505 	mov.w	r5, r5, lsl #4
   10206:	ea45 7516 	orr.w	r5, r5, r6, lsr #28
   1020a:	ea4f 1606 	mov.w	r6, r6, lsl #4
   1020e:	ea4f 03c3 	mov.w	r3, r3, lsl #3
   10212:	ea43 7352 	orr.w	r3, r3, r2, lsr #29
   10216:	ea4f 02c2 	mov.w	r2, r2, lsl #3
   1021a:	ea5f 1c1c 	movs.w	ip, ip, lsr #4
   1021e:	d1c0      	bne.n	101a2 <__aeabi_ddiv+0x82>
   10220:	f411 1f80 	tst.w	r1, #1048576	; 0x100000
   10224:	d10b      	bne.n	1023e <__aeabi_ddiv+0x11e>
   10226:	ea41 0100 	orr.w	r1, r1, r0
   1022a:	f04f 0000 	mov.w	r0, #0
   1022e:	f04f 4c00 	mov.w	ip, #2147483648	; 0x80000000
   10232:	e7b6      	b.n	101a2 <__aeabi_ddiv+0x82>
   10234:	f411 1f80 	tst.w	r1, #1048576	; 0x100000
   10238:	bf04      	itt	eq
   1023a:	4301      	orreq	r1, r0
   1023c:	2000      	moveq	r0, #0
   1023e:	f1b4 0cfd 	subs.w	ip, r4, #253	; 0xfd
   10242:	bf88      	it	hi
   10244:	f5bc 6fe0 	cmphi.w	ip, #1792	; 0x700
   10248:	f63f aeaf 	bhi.w	ffaa <__aeabi_dmul+0xde>
   1024c:	ebb5 0c03 	subs.w	ip, r5, r3
   10250:	bf04      	itt	eq
   10252:	ebb6 0c02 	subseq.w	ip, r6, r2
   10256:	ea5f 0c50 	movseq.w	ip, r0, lsr #1
   1025a:	f150 0000 	adcs.w	r0, r0, #0
   1025e:	eb41 5104 	adc.w	r1, r1, r4, lsl #20
   10262:	bd70      	pop	{r4, r5, r6, pc}
   10264:	f00e 4e00 	and.w	lr, lr, #2147483648	; 0x80000000
   10268:	ea4e 3111 	orr.w	r1, lr, r1, lsr #12
   1026c:	eb14 045c 	adds.w	r4, r4, ip, lsr #1
   10270:	bfc2      	ittt	gt
   10272:	ebd4 050c 	rsbsgt	r5, r4, ip
   10276:	ea41 5104 	orrgt.w	r1, r1, r4, lsl #20
   1027a:	bd70      	popgt	{r4, r5, r6, pc}
   1027c:	f441 1180 	orr.w	r1, r1, #1048576	; 0x100000
   10280:	f04f 0e00 	mov.w	lr, #0
   10284:	3c01      	subs	r4, #1
   10286:	e690      	b.n	ffaa <__aeabi_dmul+0xde>
   10288:	ea45 0e06 	orr.w	lr, r5, r6
   1028c:	e68d      	b.n	ffaa <__aeabi_dmul+0xde>
   1028e:	ea0c 5513 	and.w	r5, ip, r3, lsr #20
   10292:	ea94 0f0c 	teq	r4, ip
   10296:	bf08      	it	eq
   10298:	ea95 0f0c 	teqeq	r5, ip
   1029c:	f43f af3b 	beq.w	10116 <__aeabi_dmul+0x24a>
   102a0:	ea94 0f0c 	teq	r4, ip
   102a4:	d10a      	bne.n	102bc <__aeabi_ddiv+0x19c>
   102a6:	ea50 3401 	orrs.w	r4, r0, r1, lsl #12
   102aa:	f47f af34 	bne.w	10116 <__aeabi_dmul+0x24a>
   102ae:	ea95 0f0c 	teq	r5, ip
   102b2:	f47f af25 	bne.w	10100 <__aeabi_dmul+0x234>
   102b6:	4610      	mov	r0, r2
   102b8:	4619      	mov	r1, r3
   102ba:	e72c      	b.n	10116 <__aeabi_dmul+0x24a>
   102bc:	ea95 0f0c 	teq	r5, ip
   102c0:	d106      	bne.n	102d0 <__aeabi_ddiv+0x1b0>
   102c2:	ea52 3503 	orrs.w	r5, r2, r3, lsl #12
   102c6:	f43f aefd 	beq.w	100c4 <__aeabi_dmul+0x1f8>
   102ca:	4610      	mov	r0, r2
   102cc:	4619      	mov	r1, r3
   102ce:	e722      	b.n	10116 <__aeabi_dmul+0x24a>
   102d0:	ea50 0641 	orrs.w	r6, r0, r1, lsl #1
   102d4:	bf18      	it	ne
   102d6:	ea52 0643 	orrsne.w	r6, r2, r3, lsl #1
   102da:	f47f aec5 	bne.w	10068 <__aeabi_dmul+0x19c>
   102de:	ea50 0441 	orrs.w	r4, r0, r1, lsl #1
   102e2:	f47f af0d 	bne.w	10100 <__aeabi_dmul+0x234>
   102e6:	ea52 0543 	orrs.w	r5, r2, r3, lsl #1
   102ea:	f47f aeeb 	bne.w	100c4 <__aeabi_dmul+0x1f8>
   102ee:	e712      	b.n	10116 <__aeabi_dmul+0x24a>

000102f0 <__gedf2>:
   102f0:	f04f 3cff 	mov.w	ip, #4294967295
   102f4:	e006      	b.n	10304 <__cmpdf2+0x4>
   102f6:	bf00      	nop

000102f8 <__ledf2>:
   102f8:	f04f 0c01 	mov.w	ip, #1
   102fc:	e002      	b.n	10304 <__cmpdf2+0x4>
   102fe:	bf00      	nop

00010300 <__cmpdf2>:
   10300:	f04f 0c01 	mov.w	ip, #1
   10304:	f84d cd04 	str.w	ip, [sp, #-4]!
   10308:	ea4f 0c41 	mov.w	ip, r1, lsl #1
   1030c:	ea7f 5c6c 	mvns.w	ip, ip, asr #21
   10310:	ea4f 0c43 	mov.w	ip, r3, lsl #1
   10314:	bf18      	it	ne
   10316:	ea7f 5c6c 	mvnsne.w	ip, ip, asr #21
   1031a:	d01b      	beq.n	10354 <__cmpdf2+0x54>
   1031c:	b001      	add	sp, #4
   1031e:	ea50 0c41 	orrs.w	ip, r0, r1, lsl #1
   10322:	bf0c      	ite	eq
   10324:	ea52 0c43 	orrseq.w	ip, r2, r3, lsl #1
   10328:	ea91 0f03 	teqne	r1, r3
   1032c:	bf02      	ittt	eq
   1032e:	ea90 0f02 	teqeq	r0, r2
   10332:	2000      	moveq	r0, #0
   10334:	4770      	bxeq	lr
   10336:	f110 0f00 	cmn.w	r0, #0
   1033a:	ea91 0f03 	teq	r1, r3
   1033e:	bf58      	it	pl
   10340:	4299      	cmppl	r1, r3
   10342:	bf08      	it	eq
   10344:	4290      	cmpeq	r0, r2
   10346:	bf2c      	ite	cs
   10348:	17d8      	asrcs	r0, r3, #31
   1034a:	ea6f 70e3 	mvncc.w	r0, r3, asr #31
   1034e:	f040 0001 	orr.w	r0, r0, #1
   10352:	4770      	bx	lr
   10354:	ea4f 0c41 	mov.w	ip, r1, lsl #1
   10358:	ea7f 5c6c 	mvns.w	ip, ip, asr #21
   1035c:	d102      	bne.n	10364 <__cmpdf2+0x64>
   1035e:	ea50 3c01 	orrs.w	ip, r0, r1, lsl #12
   10362:	d107      	bne.n	10374 <__cmpdf2+0x74>
   10364:	ea4f 0c43 	mov.w	ip, r3, lsl #1
   10368:	ea7f 5c6c 	mvns.w	ip, ip, asr #21
   1036c:	d1d6      	bne.n	1031c <__cmpdf2+0x1c>
   1036e:	ea52 3c03 	orrs.w	ip, r2, r3, lsl #12
   10372:	d0d3      	beq.n	1031c <__cmpdf2+0x1c>
   10374:	f85d 0b04 	ldr.w	r0, [sp], #4
   10378:	4770      	bx	lr
   1037a:	bf00      	nop

0001037c <__aeabi_cdrcmple>:
   1037c:	4684      	mov	ip, r0
   1037e:	4610      	mov	r0, r2
   10380:	4662      	mov	r2, ip
   10382:	468c      	mov	ip, r1
   10384:	4619      	mov	r1, r3
   10386:	4663      	mov	r3, ip
   10388:	e000      	b.n	1038c <__aeabi_cdcmpeq>
   1038a:	bf00      	nop

0001038c <__aeabi_cdcmpeq>:
   1038c:	b501      	push	{r0, lr}
   1038e:	f7ff ffb7 	bl	10300 <__cmpdf2>
   10392:	2800      	cmp	r0, #0
   10394:	bf48      	it	mi
   10396:	f110 0f00 	cmnmi.w	r0, #0
   1039a:	bd01      	pop	{r0, pc}

0001039c <__aeabi_dcmpeq>:
   1039c:	f84d ed08 	str.w	lr, [sp, #-8]!
   103a0:	f7ff fff4 	bl	1038c <__aeabi_cdcmpeq>
   103a4:	bf0c      	ite	eq
   103a6:	2001      	moveq	r0, #1
   103a8:	2000      	movne	r0, #0
   103aa:	f85d fb08 	ldr.w	pc, [sp], #8
   103ae:	bf00      	nop

000103b0 <__aeabi_dcmplt>:
   103b0:	f84d ed08 	str.w	lr, [sp, #-8]!
   103b4:	f7ff ffea 	bl	1038c <__aeabi_cdcmpeq>
   103b8:	bf34      	ite	cc
   103ba:	2001      	movcc	r0, #1
   103bc:	2000      	movcs	r0, #0
   103be:	f85d fb08 	ldr.w	pc, [sp], #8
   103c2:	bf00      	nop

000103c4 <__aeabi_dcmple>:
   103c4:	f84d ed08 	str.w	lr, [sp, #-8]!
   103c8:	f7ff ffe0 	bl	1038c <__aeabi_cdcmpeq>
   103cc:	bf94      	ite	ls
   103ce:	2001      	movls	r0, #1
   103d0:	2000      	movhi	r0, #0
   103d2:	f85d fb08 	ldr.w	pc, [sp], #8
   103d6:	bf00      	nop

000103d8 <__aeabi_dcmpge>:
   103d8:	f84d ed08 	str.w	lr, [sp, #-8]!
   103dc:	f7ff ffce 	bl	1037c <__aeabi_cdrcmple>
   103e0:	bf94      	ite	ls
   103e2:	2001      	movls	r0, #1
   103e4:	2000      	movhi	r0, #0
   103e6:	f85d fb08 	ldr.w	pc, [sp], #8
   103ea:	bf00      	nop

000103ec <__aeabi_dcmpgt>:
   103ec:	f84d ed08 	str.w	lr, [sp, #-8]!
   103f0:	f7ff ffc4 	bl	1037c <__aeabi_cdrcmple>
   103f4:	bf34      	ite	cc
   103f6:	2001      	movcc	r0, #1
   103f8:	2000      	movcs	r0, #0
   103fa:	f85d fb08 	ldr.w	pc, [sp], #8
   103fe:	bf00      	nop

00010400 <__aeabi_d2iz>:
   10400:	ea4f 0241 	mov.w	r2, r1, lsl #1
   10404:	f512 1200 	adds.w	r2, r2, #2097152	; 0x200000
   10408:	d215      	bcs.n	10436 <__aeabi_d2iz+0x36>
   1040a:	d511      	bpl.n	10430 <__aeabi_d2iz+0x30>
   1040c:	f46f 7378 	mvn.w	r3, #992	; 0x3e0
   10410:	ebb3 5262 	subs.w	r2, r3, r2, asr #21
   10414:	d912      	bls.n	1043c <__aeabi_d2iz+0x3c>
   10416:	ea4f 23c1 	mov.w	r3, r1, lsl #11
   1041a:	f043 4300 	orr.w	r3, r3, #2147483648	; 0x80000000
   1041e:	ea43 5350 	orr.w	r3, r3, r0, lsr #21
   10422:	f011 4f00 	tst.w	r1, #2147483648	; 0x80000000
   10426:	fa23 f002 	lsr.w	r0, r3, r2
   1042a:	bf18      	it	ne
   1042c:	4240      	negne	r0, r0
   1042e:	4770      	bx	lr
   10430:	f04f 0000 	mov.w	r0, #0
   10434:	4770      	bx	lr
   10436:	ea50 3001 	orrs.w	r0, r0, r1, lsl #12
   1043a:	d105      	bne.n	10448 <__aeabi_d2iz+0x48>
   1043c:	f011 4000 	ands.w	r0, r1, #2147483648	; 0x80000000
   10440:	bf08      	it	eq
   10442:	f06f 4000 	mvneq.w	r0, #2147483648	; 0x80000000
   10446:	4770      	bx	lr
   10448:	f04f 0000 	mov.w	r0, #0
   1044c:	4770      	bx	lr
   1044e:	bf00      	nop

00010450 <__aeabi_d2uiz>:
   10450:	004a      	lsls	r2, r1, #1
   10452:	d211      	bcs.n	10478 <__aeabi_d2uiz+0x28>
   10454:	f512 1200 	adds.w	r2, r2, #2097152	; 0x200000
   10458:	d211      	bcs.n	1047e <__aeabi_d2uiz+0x2e>
   1045a:	d50d      	bpl.n	10478 <__aeabi_d2uiz+0x28>
   1045c:	f46f 7378 	mvn.w	r3, #992	; 0x3e0
   10460:	ebb3 5262 	subs.w	r2, r3, r2, asr #21
   10464:	d40e      	bmi.n	10484 <__aeabi_d2uiz+0x34>
   10466:	ea4f 23c1 	mov.w	r3, r1, lsl #11
   1046a:	f043 4300 	orr.w	r3, r3, #2147483648	; 0x80000000
   1046e:	ea43 5350 	orr.w	r3, r3, r0, lsr #21
   10472:	fa23 f002 	lsr.w	r0, r3, r2
   10476:	4770      	bx	lr
   10478:	f04f 0000 	mov.w	r0, #0
   1047c:	4770      	bx	lr
   1047e:	ea50 3001 	orrs.w	r0, r0, r1, lsl #12
   10482:	d102      	bne.n	1048a <__aeabi_d2uiz+0x3a>
   10484:	f04f 30ff 	mov.w	r0, #4294967295
   10488:	4770      	bx	lr
   1048a:	f04f 0000 	mov.w	r0, #0
   1048e:	4770      	bx	lr

00010490 <__aeabi_d2f>:
   10490:	ea4f 0241 	mov.w	r2, r1, lsl #1
   10494:	f1b2 43e0 	subs.w	r3, r2, #1879048192	; 0x70000000
   10498:	bf24      	itt	cs
   1049a:	f5b3 1c00 	subscs.w	ip, r3, #2097152	; 0x200000
   1049e:	f1dc 5cfe 	rsbscs	ip, ip, #532676608	; 0x1fc00000
   104a2:	d90d      	bls.n	104c0 <__aeabi_d2f+0x30>
   104a4:	f001 4c00 	and.w	ip, r1, #2147483648	; 0x80000000
   104a8:	ea4f 02c0 	mov.w	r2, r0, lsl #3
   104ac:	ea4c 7050 	orr.w	r0, ip, r0, lsr #29
   104b0:	f1b2 4f00 	cmp.w	r2, #2147483648	; 0x80000000
   104b4:	eb40 0083 	adc.w	r0, r0, r3, lsl #2
   104b8:	bf08      	it	eq
   104ba:	f020 0001 	biceq.w	r0, r0, #1
   104be:	4770      	bx	lr
   104c0:	f011 4f80 	tst.w	r1, #1073741824	; 0x40000000
   104c4:	d121      	bne.n	1050a <__aeabi_d2f+0x7a>
   104c6:	f113 7238 	adds.w	r2, r3, #48234496	; 0x2e00000
   104ca:	bfbc      	itt	lt
   104cc:	f001 4000 	andlt.w	r0, r1, #2147483648	; 0x80000000
   104d0:	4770      	bxlt	lr
   104d2:	f441 1180 	orr.w	r1, r1, #1048576	; 0x100000
   104d6:	ea4f 5252 	mov.w	r2, r2, lsr #21
   104da:	f1c2 0218 	rsb	r2, r2, #24
   104de:	f1c2 0c20 	rsb	ip, r2, #32
   104e2:	fa10 f30c 	lsls.w	r3, r0, ip
   104e6:	fa20 f002 	lsr.w	r0, r0, r2
   104ea:	bf18      	it	ne
   104ec:	f040 0001 	orrne.w	r0, r0, #1
   104f0:	ea4f 23c1 	mov.w	r3, r1, lsl #11
   104f4:	ea4f 23d3 	mov.w	r3, r3, lsr #11
   104f8:	fa03 fc0c 	lsl.w	ip, r3, ip
   104fc:	ea40 000c 	orr.w	r0, r0, ip
   10500:	fa23 f302 	lsr.w	r3, r3, r2
   10504:	ea4f 0343 	mov.w	r3, r3, lsl #1
   10508:	e7cc      	b.n	104a4 <__aeabi_d2f+0x14>
   1050a:	ea7f 5362 	mvns.w	r3, r2, asr #21
   1050e:	d107      	bne.n	10520 <__aeabi_d2f+0x90>
   10510:	ea50 3301 	orrs.w	r3, r0, r1, lsl #12
   10514:	bf1e      	ittt	ne
   10516:	f04f 40fe 	movne.w	r0, #2130706432	; 0x7f000000
   1051a:	f440 0040 	orrne.w	r0, r0, #12582912	; 0xc00000
   1051e:	4770      	bxne	lr
   10520:	f001 4000 	and.w	r0, r1, #2147483648	; 0x80000000
   10524:	f040 40fe 	orr.w	r0, r0, #2130706432	; 0x7f000000
   10528:	f440 0000 	orr.w	r0, r0, #8388608	; 0x800000
   1052c:	4770      	bx	lr
   1052e:	bf00      	nop

00010530 <__aeabi_fmul>:
   10530:	f04f 0cff 	mov.w	ip, #255	; 0xff
   10534:	ea1c 52d0 	ands.w	r2, ip, r0, lsr #23
   10538:	bf1e      	ittt	ne
   1053a:	ea1c 53d1 	andsne.w	r3, ip, r1, lsr #23
   1053e:	ea92 0f0c 	teqne	r2, ip
   10542:	ea93 0f0c 	teqne	r3, ip
   10546:	d06f      	beq.n	10628 <__aeabi_fmul+0xf8>
   10548:	441a      	add	r2, r3
   1054a:	ea80 0c01 	eor.w	ip, r0, r1
   1054e:	0240      	lsls	r0, r0, #9
   10550:	bf18      	it	ne
   10552:	ea5f 2141 	movsne.w	r1, r1, lsl #9
   10556:	d01e      	beq.n	10596 <__aeabi_fmul+0x66>
   10558:	f04f 6300 	mov.w	r3, #134217728	; 0x8000000
   1055c:	ea43 1050 	orr.w	r0, r3, r0, lsr #5
   10560:	ea43 1151 	orr.w	r1, r3, r1, lsr #5
   10564:	fba0 3101 	umull	r3, r1, r0, r1
   10568:	f00c 4000 	and.w	r0, ip, #2147483648	; 0x80000000
   1056c:	f5b1 0f00 	cmp.w	r1, #8388608	; 0x800000
   10570:	bf3e      	ittt	cc
   10572:	0049      	lslcc	r1, r1, #1
   10574:	ea41 71d3 	orrcc.w	r1, r1, r3, lsr #31
   10578:	005b      	lslcc	r3, r3, #1
   1057a:	ea40 0001 	orr.w	r0, r0, r1
   1057e:	f162 027f 	sbc.w	r2, r2, #127	; 0x7f
   10582:	2afd      	cmp	r2, #253	; 0xfd
   10584:	d81d      	bhi.n	105c2 <__aeabi_fmul+0x92>
   10586:	f1b3 4f00 	cmp.w	r3, #2147483648	; 0x80000000
   1058a:	eb40 50c2 	adc.w	r0, r0, r2, lsl #23
   1058e:	bf08      	it	eq
   10590:	f020 0001 	biceq.w	r0, r0, #1
   10594:	4770      	bx	lr
   10596:	f090 0f00 	teq	r0, #0
   1059a:	f00c 4c00 	and.w	ip, ip, #2147483648	; 0x80000000
   1059e:	bf08      	it	eq
   105a0:	0249      	lsleq	r1, r1, #9
   105a2:	ea4c 2050 	orr.w	r0, ip, r0, lsr #9
   105a6:	ea40 2051 	orr.w	r0, r0, r1, lsr #9
   105aa:	3a7f      	subs	r2, #127	; 0x7f
   105ac:	bfc2      	ittt	gt
   105ae:	f1d2 03ff 	rsbsgt	r3, r2, #255	; 0xff
   105b2:	ea40 50c2 	orrgt.w	r0, r0, r2, lsl #23
   105b6:	4770      	bxgt	lr
   105b8:	f440 0000 	orr.w	r0, r0, #8388608	; 0x800000
   105bc:	f04f 0300 	mov.w	r3, #0
   105c0:	3a01      	subs	r2, #1
   105c2:	dc5d      	bgt.n	10680 <__aeabi_fmul+0x150>
   105c4:	f112 0f19 	cmn.w	r2, #25
   105c8:	bfdc      	itt	le
   105ca:	f000 4000 	andle.w	r0, r0, #2147483648	; 0x80000000
   105ce:	4770      	bxle	lr
   105d0:	f1c2 0200 	rsb	r2, r2, #0
   105d4:	0041      	lsls	r1, r0, #1
   105d6:	fa21 f102 	lsr.w	r1, r1, r2
   105da:	f1c2 0220 	rsb	r2, r2, #32
   105de:	fa00 fc02 	lsl.w	ip, r0, r2
   105e2:	ea5f 0031 	movs.w	r0, r1, rrx
   105e6:	f140 0000 	adc.w	r0, r0, #0
   105ea:	ea53 034c 	orrs.w	r3, r3, ip, lsl #1
   105ee:	bf08      	it	eq
   105f0:	ea20 70dc 	biceq.w	r0, r0, ip, lsr #31
   105f4:	4770      	bx	lr
   105f6:	f092 0f00 	teq	r2, #0
   105fa:	f000 4c00 	and.w	ip, r0, #2147483648	; 0x80000000
   105fe:	bf02      	ittt	eq
   10600:	0040      	lsleq	r0, r0, #1
   10602:	f410 0f00 	tsteq.w	r0, #8388608	; 0x800000
   10606:	3a01      	subeq	r2, #1
   10608:	d0f9      	beq.n	105fe <__aeabi_fmul+0xce>
   1060a:	ea40 000c 	orr.w	r0, r0, ip
   1060e:	f093 0f00 	teq	r3, #0
   10612:	f001 4c00 	and.w	ip, r1, #2147483648	; 0x80000000
   10616:	bf02      	ittt	eq
   10618:	0049      	lsleq	r1, r1, #1
   1061a:	f411 0f00 	tsteq.w	r1, #8388608	; 0x800000
   1061e:	3b01      	subeq	r3, #1
   10620:	d0f9      	beq.n	10616 <__aeabi_fmul+0xe6>
   10622:	ea41 010c 	orr.w	r1, r1, ip
   10626:	e78f      	b.n	10548 <__aeabi_fmul+0x18>
   10628:	ea0c 53d1 	and.w	r3, ip, r1, lsr #23
   1062c:	ea92 0f0c 	teq	r2, ip
   10630:	bf18      	it	ne
   10632:	ea93 0f0c 	teqne	r3, ip
   10636:	d00a      	beq.n	1064e <__aeabi_fmul+0x11e>
   10638:	f030 4c00 	bics.w	ip, r0, #2147483648	; 0x80000000
   1063c:	bf18      	it	ne
   1063e:	f031 4c00 	bicsne.w	ip, r1, #2147483648	; 0x80000000
   10642:	d1d8      	bne.n	105f6 <__aeabi_fmul+0xc6>
   10644:	ea80 0001 	eor.w	r0, r0, r1
   10648:	f000 4000 	and.w	r0, r0, #2147483648	; 0x80000000
   1064c:	4770      	bx	lr
   1064e:	f090 0f00 	teq	r0, #0
   10652:	bf17      	itett	ne
   10654:	f090 4f00 	teqne	r0, #2147483648	; 0x80000000
   10658:	4608      	moveq	r0, r1
   1065a:	f091 0f00 	teqne	r1, #0
   1065e:	f091 4f00 	teqne	r1, #2147483648	; 0x80000000
   10662:	d014      	beq.n	1068e <__aeabi_fmul+0x15e>
   10664:	ea92 0f0c 	teq	r2, ip
   10668:	d101      	bne.n	1066e <__aeabi_fmul+0x13e>
   1066a:	0242      	lsls	r2, r0, #9
   1066c:	d10f      	bne.n	1068e <__aeabi_fmul+0x15e>
   1066e:	ea93 0f0c 	teq	r3, ip
   10672:	d103      	bne.n	1067c <__aeabi_fmul+0x14c>
   10674:	024b      	lsls	r3, r1, #9
   10676:	bf18      	it	ne
   10678:	4608      	movne	r0, r1
   1067a:	d108      	bne.n	1068e <__aeabi_fmul+0x15e>
   1067c:	ea80 0001 	eor.w	r0, r0, r1
   10680:	f000 4000 	and.w	r0, r0, #2147483648	; 0x80000000
   10684:	f040 40fe 	orr.w	r0, r0, #2130706432	; 0x7f000000
   10688:	f440 0000 	orr.w	r0, r0, #8388608	; 0x800000
   1068c:	4770      	bx	lr
   1068e:	f040 40fe 	orr.w	r0, r0, #2130706432	; 0x7f000000
   10692:	f440 0040 	orr.w	r0, r0, #12582912	; 0xc00000
   10696:	4770      	bx	lr

00010698 <__aeabi_fdiv>:
   10698:	f04f 0cff 	mov.w	ip, #255	; 0xff
   1069c:	ea1c 52d0 	ands.w	r2, ip, r0, lsr #23
   106a0:	bf1e      	ittt	ne
   106a2:	ea1c 53d1 	andsne.w	r3, ip, r1, lsr #23
   106a6:	ea92 0f0c 	teqne	r2, ip
   106aa:	ea93 0f0c 	teqne	r3, ip
   106ae:	d069      	beq.n	10784 <__aeabi_fdiv+0xec>
   106b0:	eba2 0203 	sub.w	r2, r2, r3
   106b4:	ea80 0c01 	eor.w	ip, r0, r1
   106b8:	0249      	lsls	r1, r1, #9
   106ba:	ea4f 2040 	mov.w	r0, r0, lsl #9
   106be:	d037      	beq.n	10730 <__aeabi_fdiv+0x98>
   106c0:	f04f 5380 	mov.w	r3, #268435456	; 0x10000000
   106c4:	ea43 1111 	orr.w	r1, r3, r1, lsr #4
   106c8:	ea43 1310 	orr.w	r3, r3, r0, lsr #4
   106cc:	f00c 4000 	and.w	r0, ip, #2147483648	; 0x80000000
   106d0:	428b      	cmp	r3, r1
   106d2:	bf38      	it	cc
   106d4:	005b      	lslcc	r3, r3, #1
   106d6:	f142 027d 	adc.w	r2, r2, #125	; 0x7d
   106da:	f44f 0c00 	mov.w	ip, #8388608	; 0x800000
   106de:	428b      	cmp	r3, r1
   106e0:	bf24      	itt	cs
   106e2:	1a5b      	subcs	r3, r3, r1
   106e4:	ea40 000c 	orrcs.w	r0, r0, ip
   106e8:	ebb3 0f51 	cmp.w	r3, r1, lsr #1
   106ec:	bf24      	itt	cs
   106ee:	eba3 0351 	subcs.w	r3, r3, r1, lsr #1
   106f2:	ea40 005c 	orrcs.w	r0, r0, ip, lsr #1
   106f6:	ebb3 0f91 	cmp.w	r3, r1, lsr #2
   106fa:	bf24      	itt	cs
   106fc:	eba3 0391 	subcs.w	r3, r3, r1, lsr #2
   10700:	ea40 009c 	orrcs.w	r0, r0, ip, lsr #2
   10704:	ebb3 0fd1 	cmp.w	r3, r1, lsr #3
   10708:	bf24      	itt	cs
   1070a:	eba3 03d1 	subcs.w	r3, r3, r1, lsr #3
   1070e:	ea40 00dc 	orrcs.w	r0, r0, ip, lsr #3
   10712:	011b      	lsls	r3, r3, #4
   10714:	bf18      	it	ne
   10716:	ea5f 1c1c 	movsne.w	ip, ip, lsr #4
   1071a:	d1e0      	bne.n	106de <__aeabi_fdiv+0x46>
   1071c:	2afd      	cmp	r2, #253	; 0xfd
   1071e:	f63f af50 	bhi.w	105c2 <__aeabi_fmul+0x92>
   10722:	428b      	cmp	r3, r1
   10724:	eb40 50c2 	adc.w	r0, r0, r2, lsl #23
   10728:	bf08      	it	eq
   1072a:	f020 0001 	biceq.w	r0, r0, #1
   1072e:	4770      	bx	lr
   10730:	f00c 4c00 	and.w	ip, ip, #2147483648	; 0x80000000
   10734:	ea4c 2050 	orr.w	r0, ip, r0, lsr #9
   10738:	327f      	adds	r2, #127	; 0x7f
   1073a:	bfc2      	ittt	gt
   1073c:	f1d2 03ff 	rsbsgt	r3, r2, #255	; 0xff
   10740:	ea40 50c2 	orrgt.w	r0, r0, r2, lsl #23
   10744:	4770      	bxgt	lr
   10746:	f440 0000 	orr.w	r0, r0, #8388608	; 0x800000
   1074a:	f04f 0300 	mov.w	r3, #0
   1074e:	3a01      	subs	r2, #1
   10750:	e737      	b.n	105c2 <__aeabi_fmul+0x92>
   10752:	f092 0f00 	teq	r2, #0
   10756:	f000 4c00 	and.w	ip, r0, #2147483648	; 0x80000000
   1075a:	bf02      	ittt	eq
   1075c:	0040      	lsleq	r0, r0, #1
   1075e:	f410 0f00 	tsteq.w	r0, #8388608	; 0x800000
   10762:	3a01      	subeq	r2, #1
   10764:	d0f9      	beq.n	1075a <__aeabi_fdiv+0xc2>
   10766:	ea40 000c 	orr.w	r0, r0, ip
   1076a:	f093 0f00 	teq	r3, #0
   1076e:	f001 4c00 	and.w	ip, r1, #2147483648	; 0x80000000
   10772:	bf02      	ittt	eq
   10774:	0049      	lsleq	r1, r1, #1
   10776:	f411 0f00 	tsteq.w	r1, #8388608	; 0x800000
   1077a:	3b01      	subeq	r3, #1
   1077c:	d0f9      	beq.n	10772 <__aeabi_fdiv+0xda>
   1077e:	ea41 010c 	orr.w	r1, r1, ip
   10782:	e795      	b.n	106b0 <__aeabi_fdiv+0x18>
   10784:	ea0c 53d1 	and.w	r3, ip, r1, lsr #23
   10788:	ea92 0f0c 	teq	r2, ip
   1078c:	d108      	bne.n	107a0 <__aeabi_fdiv+0x108>
   1078e:	0242      	lsls	r2, r0, #9
   10790:	f47f af7d 	bne.w	1068e <__aeabi_fmul+0x15e>
   10794:	ea93 0f0c 	teq	r3, ip
   10798:	f47f af70 	bne.w	1067c <__aeabi_fmul+0x14c>
   1079c:	4608      	mov	r0, r1
   1079e:	e776      	b.n	1068e <__aeabi_fmul+0x15e>
   107a0:	ea93 0f0c 	teq	r3, ip
   107a4:	d104      	bne.n	107b0 <__aeabi_fdiv+0x118>
   107a6:	024b      	lsls	r3, r1, #9
   107a8:	f43f af4c 	beq.w	10644 <__aeabi_fmul+0x114>
   107ac:	4608      	mov	r0, r1
   107ae:	e76e      	b.n	1068e <__aeabi_fmul+0x15e>
   107b0:	f030 4c00 	bics.w	ip, r0, #2147483648	; 0x80000000
   107b4:	bf18      	it	ne
   107b6:	f031 4c00 	bicsne.w	ip, r1, #2147483648	; 0x80000000
   107ba:	d1ca      	bne.n	10752 <__aeabi_fdiv+0xba>
   107bc:	f030 4200 	bics.w	r2, r0, #2147483648	; 0x80000000
   107c0:	f47f af5c 	bne.w	1067c <__aeabi_fmul+0x14c>
   107c4:	f031 4300 	bics.w	r3, r1, #2147483648	; 0x80000000
   107c8:	f47f af3c 	bne.w	10644 <__aeabi_fmul+0x114>
   107cc:	e75f      	b.n	1068e <__aeabi_fmul+0x15e>
   107ce:	bf00      	nop

000107d0 <__gesf2>:
   107d0:	f04f 3cff 	mov.w	ip, #4294967295
   107d4:	e006      	b.n	107e4 <__cmpsf2+0x4>
   107d6:	bf00      	nop

000107d8 <__lesf2>:
   107d8:	f04f 0c01 	mov.w	ip, #1
   107dc:	e002      	b.n	107e4 <__cmpsf2+0x4>
   107de:	bf00      	nop

000107e0 <__cmpsf2>:
   107e0:	f04f 0c01 	mov.w	ip, #1
   107e4:	f84d cd04 	str.w	ip, [sp, #-4]!
   107e8:	ea4f 0240 	mov.w	r2, r0, lsl #1
   107ec:	ea4f 0341 	mov.w	r3, r1, lsl #1
   107f0:	ea7f 6c22 	mvns.w	ip, r2, asr #24
   107f4:	bf18      	it	ne
   107f6:	ea7f 6c23 	mvnsne.w	ip, r3, asr #24
   107fa:	d011      	beq.n	10820 <__cmpsf2+0x40>
   107fc:	b001      	add	sp, #4
   107fe:	ea52 0c53 	orrs.w	ip, r2, r3, lsr #1
   10802:	bf18      	it	ne
   10804:	ea90 0f01 	teqne	r0, r1
   10808:	bf58      	it	pl
   1080a:	ebb2 0003 	subspl.w	r0, r2, r3
   1080e:	bf88      	it	hi
   10810:	17c8      	asrhi	r0, r1, #31
   10812:	bf38      	it	cc
   10814:	ea6f 70e1 	mvncc.w	r0, r1, asr #31
   10818:	bf18      	it	ne
   1081a:	f040 0001 	orrne.w	r0, r0, #1
   1081e:	4770      	bx	lr
   10820:	ea7f 6c22 	mvns.w	ip, r2, asr #24
   10824:	d102      	bne.n	1082c <__cmpsf2+0x4c>
   10826:	ea5f 2c40 	movs.w	ip, r0, lsl #9
   1082a:	d105      	bne.n	10838 <__cmpsf2+0x58>
   1082c:	ea7f 6c23 	mvns.w	ip, r3, asr #24
   10830:	d1e4      	bne.n	107fc <__cmpsf2+0x1c>
   10832:	ea5f 2c41 	movs.w	ip, r1, lsl #9
   10836:	d0e1      	beq.n	107fc <__cmpsf2+0x1c>
   10838:	f85d 0b04 	ldr.w	r0, [sp], #4
   1083c:	4770      	bx	lr
   1083e:	bf00      	nop

00010840 <__aeabi_cfrcmple>:
   10840:	4684      	mov	ip, r0
   10842:	4608      	mov	r0, r1
   10844:	4661      	mov	r1, ip
   10846:	e7ff      	b.n	10848 <__aeabi_cfcmpeq>

00010848 <__aeabi_cfcmpeq>:
   10848:	b50f      	push	{r0, r1, r2, r3, lr}
   1084a:	f7ff ffc9 	bl	107e0 <__cmpsf2>
   1084e:	2800      	cmp	r0, #0
   10850:	bf48      	it	mi
   10852:	f110 0f00 	cmnmi.w	r0, #0
   10856:	bd0f      	pop	{r0, r1, r2, r3, pc}

00010858 <__aeabi_fcmpeq>:
   10858:	f84d ed08 	str.w	lr, [sp, #-8]!
   1085c:	f7ff fff4 	bl	10848 <__aeabi_cfcmpeq>
   10860:	bf0c      	ite	eq
   10862:	2001      	moveq	r0, #1
   10864:	2000      	movne	r0, #0
   10866:	f85d fb08 	ldr.w	pc, [sp], #8
   1086a:	bf00      	nop

0001086c <__aeabi_fcmplt>:
   1086c:	f84d ed08 	str.w	lr, [sp, #-8]!
   10870:	f7ff ffea 	bl	10848 <__aeabi_cfcmpeq>
   10874:	bf34      	ite	cc
   10876:	2001      	movcc	r0, #1
   10878:	2000      	movcs	r0, #0
   1087a:	f85d fb08 	ldr.w	pc, [sp], #8
   1087e:	bf00      	nop

00010880 <__aeabi_fcmple>:
   10880:	f84d ed08 	str.w	lr, [sp, #-8]!
   10884:	f7ff ffe0 	bl	10848 <__aeabi_cfcmpeq>
   10888:	bf94      	ite	ls
   1088a:	2001      	movls	r0, #1
   1088c:	2000      	movhi	r0, #0
   1088e:	f85d fb08 	ldr.w	pc, [sp], #8
   10892:	bf00      	nop

00010894 <__aeabi_fcmpge>:
   10894:	f84d ed08 	str.w	lr, [sp, #-8]!
   10898:	f7ff ffd2 	bl	10840 <__aeabi_cfrcmple>
   1089c:	bf94      	ite	ls
   1089e:	2001      	movls	r0, #1
   108a0:	2000      	movhi	r0, #0
   108a2:	f85d fb08 	ldr.w	pc, [sp], #8
   108a6:	bf00      	nop

000108a8 <__aeabi_fcmpgt>:
   108a8:	f84d ed08 	str.w	lr, [sp, #-8]!
   108ac:	f7ff ffc8 	bl	10840 <__aeabi_cfrcmple>
   108b0:	bf34      	ite	cc
   108b2:	2001      	movcc	r0, #1
   108b4:	2000      	movcs	r0, #0
   108b6:	f85d fb08 	ldr.w	pc, [sp], #8
   108ba:	bf00      	nop

000108bc <__aeabi_f2iz>:
   108bc:	ea4f 0240 	mov.w	r2, r0, lsl #1
   108c0:	f1b2 4ffe 	cmp.w	r2, #2130706432	; 0x7f000000
   108c4:	d30f      	bcc.n	108e6 <__aeabi_f2iz+0x2a>
   108c6:	f04f 039e 	mov.w	r3, #158	; 0x9e
   108ca:	ebb3 6212 	subs.w	r2, r3, r2, lsr #24
   108ce:	d90d      	bls.n	108ec <__aeabi_f2iz+0x30>
   108d0:	ea4f 2300 	mov.w	r3, r0, lsl #8
   108d4:	f043 4300 	orr.w	r3, r3, #2147483648	; 0x80000000
   108d8:	f010 4f00 	tst.w	r0, #2147483648	; 0x80000000
   108dc:	fa23 f002 	lsr.w	r0, r3, r2
   108e0:	bf18      	it	ne
   108e2:	4240      	negne	r0, r0
   108e4:	4770      	bx	lr
   108e6:	f04f 0000 	mov.w	r0, #0
   108ea:	4770      	bx	lr
   108ec:	f112 0f61 	cmn.w	r2, #97	; 0x61
   108f0:	d101      	bne.n	108f6 <__aeabi_f2iz+0x3a>
   108f2:	0242      	lsls	r2, r0, #9
   108f4:	d105      	bne.n	10902 <__aeabi_f2iz+0x46>
   108f6:	f010 4000 	ands.w	r0, r0, #2147483648	; 0x80000000
   108fa:	bf08      	it	eq
   108fc:	f06f 4000 	mvneq.w	r0, #2147483648	; 0x80000000
   10900:	4770      	bx	lr
   10902:	f04f 0000 	mov.w	r0, #0
   10906:	4770      	bx	lr

00010908 <__aeabi_uldivmod>:
   10908:	b94b      	cbnz	r3, 1091e <__aeabi_uldivmod+0x16>
   1090a:	b942      	cbnz	r2, 1091e <__aeabi_uldivmod+0x16>
   1090c:	2900      	cmp	r1, #0
   1090e:	bf08      	it	eq
   10910:	2800      	cmpeq	r0, #0
   10912:	d002      	beq.n	1091a <__aeabi_uldivmod+0x12>
   10914:	f04f 31ff 	mov.w	r1, #4294967295
   10918:	4608      	mov	r0, r1
   1091a:	f7ff b91d 	b.w	fb58 <__aeabi_idiv0>
   1091e:	b082      	sub	sp, #8
   10920:	46ec      	mov	ip, sp
   10922:	e92d 5000 	stmdb	sp!, {ip, lr}
   10926:	f000 f81d 	bl	10964 <__gnu_uldivmod_helper>
   1092a:	f8dd e004 	ldr.w	lr, [sp, #4]
   1092e:	b002      	add	sp, #8
   10930:	bc0c      	pop	{r2, r3}
   10932:	4770      	bx	lr

00010934 <__gnu_ldivmod_helper>:
   10934:	e92d 4370 	stmdb	sp!, {r4, r5, r6, r8, r9, lr}
   10938:	4616      	mov	r6, r2
   1093a:	4680      	mov	r8, r0
   1093c:	4689      	mov	r9, r1
   1093e:	461d      	mov	r5, r3
   10940:	f000 f828 	bl	10994 <__divdi3>
   10944:	fb00 f305 	mul.w	r3, r0, r5
   10948:	fba0 4506 	umull	r4, r5, r0, r6
   1094c:	fb06 3601 	mla	r6, r6, r1, r3
   10950:	9b06      	ldr	r3, [sp, #24]
   10952:	1975      	adds	r5, r6, r5
   10954:	ebb8 0404 	subs.w	r4, r8, r4
   10958:	eb69 0505 	sbc.w	r5, r9, r5
   1095c:	e9c3 4500 	strd	r4, r5, [r3]
   10960:	e8bd 8370 	ldmia.w	sp!, {r4, r5, r6, r8, r9, pc}

00010964 <__gnu_uldivmod_helper>:
   10964:	e92d 4370 	stmdb	sp!, {r4, r5, r6, r8, r9, lr}
   10968:	4616      	mov	r6, r2
   1096a:	4680      	mov	r8, r0
   1096c:	4689      	mov	r9, r1
   1096e:	461d      	mov	r5, r3
   10970:	f000 f9c0 	bl	10cf4 <__udivdi3>
   10974:	fb00 f305 	mul.w	r3, r0, r5
   10978:	fba0 4506 	umull	r4, r5, r0, r6
   1097c:	fb06 3601 	mla	r6, r6, r1, r3
   10980:	9b06      	ldr	r3, [sp, #24]
   10982:	1975      	adds	r5, r6, r5
   10984:	ebb8 0404 	subs.w	r4, r8, r4
   10988:	eb69 0505 	sbc.w	r5, r9, r5
   1098c:	e9c3 4500 	strd	r4, r5, [r3]
   10990:	e8bd 8370 	ldmia.w	sp!, {r4, r5, r6, r8, r9, pc}

00010994 <__divdi3>:
   10994:	2900      	cmp	r1, #0
   10996:	e92d 4ff0 	stmdb	sp!, {r4, r5, r6, r7, r8, r9, sl, fp, lr}
   1099a:	461c      	mov	r4, r3
   1099c:	b085      	sub	sp, #20
   1099e:	f2c0 80cb 	blt.w	10b38 <__divdi3+0x1a4>
   109a2:	2600      	movs	r6, #0
   109a4:	2c00      	cmp	r4, #0
   109a6:	f2c0 80c2 	blt.w	10b2e <__divdi3+0x19a>
   109aa:	468c      	mov	ip, r1
   109ac:	4617      	mov	r7, r2
   109ae:	4614      	mov	r4, r2
   109b0:	4605      	mov	r5, r0
   109b2:	4688      	mov	r8, r1
   109b4:	469a      	mov	sl, r3
   109b6:	2b00      	cmp	r3, #0
   109b8:	d14a      	bne.n	10a50 <__divdi3+0xbc>
   109ba:	428a      	cmp	r2, r1
   109bc:	d96e      	bls.n	10a9c <__divdi3+0x108>
   109be:	fab2 f382 	clz	r3, r2
   109c2:	b15b      	cbz	r3, 109dc <__divdi3+0x48>
   109c4:	f1c3 0420 	rsb	r4, r3, #32
   109c8:	fa01 f803 	lsl.w	r8, r1, r3
   109cc:	fa30 f204 	lsrs.w	r2, r0, r4
   109d0:	fa10 f503 	lsls.w	r5, r0, r3
   109d4:	fa17 f403 	lsls.w	r4, r7, r3
   109d8:	ea42 0808 	orr.w	r8, r2, r8
   109dc:	ea4f 4a14 	mov.w	sl, r4, lsr #16
   109e0:	4640      	mov	r0, r8
   109e2:	4651      	mov	r1, sl
   109e4:	fa1f fb84 	uxth.w	fp, r4
   109e8:	f7fe fe22 	bl	f630 <__aeabi_uidiv>
   109ec:	4651      	mov	r1, sl
   109ee:	4681      	mov	r9, r0
   109f0:	4640      	mov	r0, r8
   109f2:	f7fe ff4b 	bl	f88c <__aeabi_uidivmod>
   109f6:	0c28      	lsrs	r0, r5, #16
   109f8:	fb0b f309 	mul.w	r3, fp, r9
   109fc:	ea40 4801 	orr.w	r8, r0, r1, lsl #16
   10a00:	4543      	cmp	r3, r8
   10a02:	d909      	bls.n	10a18 <__divdi3+0x84>
   10a04:	eb18 0804 	adds.w	r8, r8, r4
   10a08:	f109 39ff 	add.w	r9, r9, #4294967295
   10a0c:	d204      	bcs.n	10a18 <__divdi3+0x84>
   10a0e:	4543      	cmp	r3, r8
   10a10:	bf84      	itt	hi
   10a12:	f109 39ff 	addhi.w	r9, r9, #4294967295
   10a16:	44a0      	addhi	r8, r4
   10a18:	ebc3 0808 	rsb	r8, r3, r8
   10a1c:	4651      	mov	r1, sl
   10a1e:	4640      	mov	r0, r8
   10a20:	b2ad      	uxth	r5, r5
   10a22:	f7fe fe05 	bl	f630 <__aeabi_uidiv>
   10a26:	4651      	mov	r1, sl
   10a28:	4607      	mov	r7, r0
   10a2a:	4640      	mov	r0, r8
   10a2c:	f7fe ff2e 	bl	f88c <__aeabi_uidivmod>
   10a30:	fb0b fb07 	mul.w	fp, fp, r7
   10a34:	ea45 4501 	orr.w	r5, r5, r1, lsl #16
   10a38:	45ab      	cmp	fp, r5
   10a3a:	d905      	bls.n	10a48 <__divdi3+0xb4>
   10a3c:	3f01      	subs	r7, #1
   10a3e:	192d      	adds	r5, r5, r4
   10a40:	d202      	bcs.n	10a48 <__divdi3+0xb4>
   10a42:	45ab      	cmp	fp, r5
   10a44:	bf88      	it	hi
   10a46:	3f01      	subhi	r7, #1
   10a48:	ea47 4909 	orr.w	r9, r7, r9, lsl #16
   10a4c:	2400      	movs	r4, #0
   10a4e:	e003      	b.n	10a58 <__divdi3+0xc4>
   10a50:	428b      	cmp	r3, r1
   10a52:	d90c      	bls.n	10a6e <__divdi3+0xda>
   10a54:	2400      	movs	r4, #0
   10a56:	46a1      	mov	r9, r4
   10a58:	464a      	mov	r2, r9
   10a5a:	4623      	mov	r3, r4
   10a5c:	b116      	cbz	r6, 10a64 <__divdi3+0xd0>
   10a5e:	4252      	negs	r2, r2
   10a60:	eb63 0343 	sbc.w	r3, r3, r3, lsl #1
   10a64:	4610      	mov	r0, r2
   10a66:	4619      	mov	r1, r3
   10a68:	b005      	add	sp, #20
   10a6a:	e8bd 8ff0 	ldmia.w	sp!, {r4, r5, r6, r7, r8, r9, sl, fp, pc}
   10a6e:	fab3 f483 	clz	r4, r3
   10a72:	2c00      	cmp	r4, #0
   10a74:	f040 80b3 	bne.w	10bde <__divdi3+0x24a>
   10a78:	428b      	cmp	r3, r1
   10a7a:	f04f 0901 	mov.w	r9, #1
   10a7e:	bf2c      	ite	cs
   10a80:	f04f 0c00 	movcs.w	ip, #0
   10a84:	f04f 0c01 	movcc.w	ip, #1
   10a88:	4282      	cmp	r2, r0
   10a8a:	bf8c      	ite	hi
   10a8c:	4667      	movhi	r7, ip
   10a8e:	f04c 0701 	orrls.w	r7, ip, #1
   10a92:	2f00      	cmp	r7, #0
   10a94:	d1e0      	bne.n	10a58 <__divdi3+0xc4>
   10a96:	463c      	mov	r4, r7
   10a98:	46b9      	mov	r9, r7
   10a9a:	e7dd      	b.n	10a58 <__divdi3+0xc4>
   10a9c:	b922      	cbnz	r2, 10aa8 <__divdi3+0x114>
   10a9e:	2001      	movs	r0, #1
   10aa0:	4611      	mov	r1, r2
   10aa2:	f7fe fdc5 	bl	f630 <__aeabi_uidiv>
   10aa6:	4604      	mov	r4, r0
   10aa8:	fab4 f384 	clz	r3, r4
   10aac:	2b00      	cmp	r3, #0
   10aae:	d149      	bne.n	10b44 <__divdi3+0x1b0>
   10ab0:	ebc4 0808 	rsb	r8, r4, r8
   10ab4:	0c27      	lsrs	r7, r4, #16
   10ab6:	fa1f fa84 	uxth.w	sl, r4
   10aba:	2101      	movs	r1, #1
   10abc:	9102      	str	r1, [sp, #8]
   10abe:	4639      	mov	r1, r7
   10ac0:	4640      	mov	r0, r8
   10ac2:	f7fe fdb5 	bl	f630 <__aeabi_uidiv>
   10ac6:	4639      	mov	r1, r7
   10ac8:	4681      	mov	r9, r0
   10aca:	4640      	mov	r0, r8
   10acc:	f7fe fede 	bl	f88c <__aeabi_uidivmod>
   10ad0:	0c2a      	lsrs	r2, r5, #16
   10ad2:	fb0a f309 	mul.w	r3, sl, r9
   10ad6:	ea42 4b01 	orr.w	fp, r2, r1, lsl #16
   10ada:	455b      	cmp	r3, fp
   10adc:	d909      	bls.n	10af2 <__divdi3+0x15e>
   10ade:	eb1b 0b04 	adds.w	fp, fp, r4
   10ae2:	f109 39ff 	add.w	r9, r9, #4294967295
   10ae6:	d204      	bcs.n	10af2 <__divdi3+0x15e>
   10ae8:	455b      	cmp	r3, fp
   10aea:	bf84      	itt	hi
   10aec:	f109 39ff 	addhi.w	r9, r9, #4294967295
   10af0:	44a3      	addhi	fp, r4
   10af2:	ebc3 0b0b 	rsb	fp, r3, fp
   10af6:	4639      	mov	r1, r7
   10af8:	4658      	mov	r0, fp
   10afa:	b2ad      	uxth	r5, r5
   10afc:	f7fe fd98 	bl	f630 <__aeabi_uidiv>
   10b00:	4639      	mov	r1, r7
   10b02:	4680      	mov	r8, r0
   10b04:	4658      	mov	r0, fp
   10b06:	f7fe fec1 	bl	f88c <__aeabi_uidivmod>
   10b0a:	fb0a fa08 	mul.w	sl, sl, r8
   10b0e:	ea45 4501 	orr.w	r5, r5, r1, lsl #16
   10b12:	45aa      	cmp	sl, r5
   10b14:	d907      	bls.n	10b26 <__divdi3+0x192>
   10b16:	192d      	adds	r5, r5, r4
   10b18:	f108 38ff 	add.w	r8, r8, #4294967295
   10b1c:	d203      	bcs.n	10b26 <__divdi3+0x192>
   10b1e:	45aa      	cmp	sl, r5
   10b20:	bf88      	it	hi
   10b22:	f108 38ff 	addhi.w	r8, r8, #4294967295
   10b26:	ea48 4909 	orr.w	r9, r8, r9, lsl #16
   10b2a:	9c02      	ldr	r4, [sp, #8]
   10b2c:	e794      	b.n	10a58 <__divdi3+0xc4>
   10b2e:	43f6      	mvns	r6, r6
   10b30:	4252      	negs	r2, r2
   10b32:	eb63 0343 	sbc.w	r3, r3, r3, lsl #1
   10b36:	e738      	b.n	109aa <__divdi3+0x16>
   10b38:	4240      	negs	r0, r0
   10b3a:	eb61 0141 	sbc.w	r1, r1, r1, lsl #1
   10b3e:	f04f 36ff 	mov.w	r6, #4294967295
   10b42:	e72f      	b.n	109a4 <__divdi3+0x10>
   10b44:	409c      	lsls	r4, r3
   10b46:	f1c3 0720 	rsb	r7, r3, #32
   10b4a:	fa28 fa07 	lsr.w	sl, r8, r7
   10b4e:	fa35 f207 	lsrs.w	r2, r5, r7
   10b52:	0c27      	lsrs	r7, r4, #16
   10b54:	fa08 fb03 	lsl.w	fp, r8, r3
   10b58:	4639      	mov	r1, r7
   10b5a:	4650      	mov	r0, sl
   10b5c:	ea42 020b 	orr.w	r2, r2, fp
   10b60:	409d      	lsls	r5, r3
   10b62:	9202      	str	r2, [sp, #8]
   10b64:	f7fe fd64 	bl	f630 <__aeabi_uidiv>
   10b68:	4639      	mov	r1, r7
   10b6a:	4683      	mov	fp, r0
   10b6c:	4650      	mov	r0, sl
   10b6e:	f7fe fe8d 	bl	f88c <__aeabi_uidivmod>
   10b72:	9b02      	ldr	r3, [sp, #8]
   10b74:	fa1f fa84 	uxth.w	sl, r4
   10b78:	ea4f 4913 	mov.w	r9, r3, lsr #16
   10b7c:	fb0a f30b 	mul.w	r3, sl, fp
   10b80:	ea49 4801 	orr.w	r8, r9, r1, lsl #16
   10b84:	4543      	cmp	r3, r8
   10b86:	d905      	bls.n	10b94 <__divdi3+0x200>
   10b88:	eb18 0804 	adds.w	r8, r8, r4
   10b8c:	f10b 3bff 	add.w	fp, fp, #4294967295
   10b90:	f0c0 80aa 	bcc.w	10ce8 <__divdi3+0x354>
   10b94:	ebc3 0808 	rsb	r8, r3, r8
   10b98:	4639      	mov	r1, r7
   10b9a:	4640      	mov	r0, r8
   10b9c:	f7fe fd48 	bl	f630 <__aeabi_uidiv>
   10ba0:	4639      	mov	r1, r7
   10ba2:	4681      	mov	r9, r0
   10ba4:	4640      	mov	r0, r8
   10ba6:	f7fe fe71 	bl	f88c <__aeabi_uidivmod>
   10baa:	9802      	ldr	r0, [sp, #8]
   10bac:	fb0a f309 	mul.w	r3, sl, r9
   10bb0:	fa1f fc80 	uxth.w	ip, r0
   10bb4:	ea4c 4801 	orr.w	r8, ip, r1, lsl #16
   10bb8:	4543      	cmp	r3, r8
   10bba:	d909      	bls.n	10bd0 <__divdi3+0x23c>
   10bbc:	eb18 0804 	adds.w	r8, r8, r4
   10bc0:	f109 39ff 	add.w	r9, r9, #4294967295
   10bc4:	d204      	bcs.n	10bd0 <__divdi3+0x23c>
   10bc6:	4543      	cmp	r3, r8
   10bc8:	bf84      	itt	hi
   10bca:	f109 39ff 	addhi.w	r9, r9, #4294967295
   10bce:	44a0      	addhi	r8, r4
   10bd0:	ea49 4e0b 	orr.w	lr, r9, fp, lsl #16
   10bd4:	ebc3 0808 	rsb	r8, r3, r8
   10bd8:	f8cd e008 	str.w	lr, [sp, #8]
   10bdc:	e76f      	b.n	10abe <__divdi3+0x12a>
   10bde:	f1c4 0320 	rsb	r3, r4, #32
   10be2:	fa0a fa04 	lsl.w	sl, sl, r4
   10be6:	40da      	lsrs	r2, r3
   10be8:	fa21 f803 	lsr.w	r8, r1, r3
   10bec:	ea42 0a0a 	orr.w	sl, r2, sl
   10bf0:	fa01 f904 	lsl.w	r9, r1, r4
   10bf4:	fa30 f203 	lsrs.w	r2, r0, r3
   10bf8:	4640      	mov	r0, r8
   10bfa:	ea4f 4b1a 	mov.w	fp, sl, lsr #16
   10bfe:	ea42 0109 	orr.w	r1, r2, r9
   10c02:	9103      	str	r1, [sp, #12]
   10c04:	4659      	mov	r1, fp
   10c06:	fa17 f304 	lsls.w	r3, r7, r4
   10c0a:	9302      	str	r3, [sp, #8]
   10c0c:	f7fe fd10 	bl	f630 <__aeabi_uidiv>
   10c10:	4659      	mov	r1, fp
   10c12:	4681      	mov	r9, r0
   10c14:	4640      	mov	r0, r8
   10c16:	f7fe fe39 	bl	f88c <__aeabi_uidivmod>
   10c1a:	fa1f f38a 	uxth.w	r3, sl
   10c1e:	9803      	ldr	r0, [sp, #12]
   10c20:	fb03 f209 	mul.w	r2, r3, r9
   10c24:	0c07      	lsrs	r7, r0, #16
   10c26:	ea47 4801 	orr.w	r8, r7, r1, lsl #16
   10c2a:	4542      	cmp	r2, r8
   10c2c:	d904      	bls.n	10c38 <__divdi3+0x2a4>
   10c2e:	eb18 080a 	adds.w	r8, r8, sl
   10c32:	f109 39ff 	add.w	r9, r9, #4294967295
   10c36:	d351      	bcc.n	10cdc <__divdi3+0x348>
   10c38:	ebc2 0808 	rsb	r8, r2, r8
   10c3c:	4659      	mov	r1, fp
   10c3e:	4640      	mov	r0, r8
   10c40:	9301      	str	r3, [sp, #4]
   10c42:	f7fe fcf5 	bl	f630 <__aeabi_uidiv>
   10c46:	4659      	mov	r1, fp
   10c48:	4607      	mov	r7, r0
   10c4a:	4640      	mov	r0, r8
   10c4c:	f7fe fe1e 	bl	f88c <__aeabi_uidivmod>
   10c50:	9b01      	ldr	r3, [sp, #4]
   10c52:	9803      	ldr	r0, [sp, #12]
   10c54:	fb03 f307 	mul.w	r3, r3, r7
   10c58:	fa1f fc80 	uxth.w	ip, r0
   10c5c:	ea4c 4c01 	orr.w	ip, ip, r1, lsl #16
   10c60:	4563      	cmp	r3, ip
   10c62:	d907      	bls.n	10c74 <__divdi3+0x2e0>
   10c64:	3f01      	subs	r7, #1
   10c66:	eb1c 0c0a 	adds.w	ip, ip, sl
   10c6a:	d203      	bcs.n	10c74 <__divdi3+0x2e0>
   10c6c:	4563      	cmp	r3, ip
   10c6e:	d901      	bls.n	10c74 <__divdi3+0x2e0>
   10c70:	3f01      	subs	r7, #1
   10c72:	44d4      	add	ip, sl
   10c74:	ea47 4909 	orr.w	r9, r7, r9, lsl #16
   10c78:	9f02      	ldr	r7, [sp, #8]
   10c7a:	ebc3 0c0c 	rsb	ip, r3, ip
   10c7e:	fa1f fe89 	uxth.w	lr, r9
   10c82:	ea4f 4319 	mov.w	r3, r9, lsr #16
   10c86:	b2b8      	uxth	r0, r7
   10c88:	0c3f      	lsrs	r7, r7, #16
   10c8a:	fb00 f80e 	mul.w	r8, r0, lr
   10c8e:	fb00 f103 	mul.w	r1, r0, r3
   10c92:	fb07 120e 	mla	r2, r7, lr, r1
   10c96:	fb07 f003 	mul.w	r0, r7, r3
   10c9a:	eb02 4218 	add.w	r2, r2, r8, lsr #16
   10c9e:	4291      	cmp	r1, r2
   10ca0:	bf88      	it	hi
   10ca2:	f500 3080 	addhi.w	r0, r0, #65536	; 0x10000
   10ca6:	eb00 4e12 	add.w	lr, r0, r2, lsr #16
   10caa:	45f4      	cmp	ip, lr
   10cac:	d312      	bcc.n	10cd4 <__divdi3+0x340>
   10cae:	ea4f 4202 	mov.w	r2, r2, lsl #16
   10cb2:	fa1f f888 	uxth.w	r8, r8
   10cb6:	bf14      	ite	ne
   10cb8:	2100      	movne	r1, #0
   10cba:	2101      	moveq	r1, #1
   10cbc:	eb02 0c08 	add.w	ip, r2, r8
   10cc0:	fa15 f404 	lsls.w	r4, r5, r4
   10cc4:	4564      	cmp	r4, ip
   10cc6:	bf2c      	ite	cs
   10cc8:	2400      	movcs	r4, #0
   10cca:	f001 0401 	andcc.w	r4, r1, #1
   10cce:	2c00      	cmp	r4, #0
   10cd0:	f43f aec2 	beq.w	10a58 <__divdi3+0xc4>
   10cd4:	f109 39ff 	add.w	r9, r9, #4294967295
   10cd8:	2400      	movs	r4, #0
   10cda:	e6bd      	b.n	10a58 <__divdi3+0xc4>
   10cdc:	4542      	cmp	r2, r8
   10cde:	bf84      	itt	hi
   10ce0:	f109 39ff 	addhi.w	r9, r9, #4294967295
   10ce4:	44d0      	addhi	r8, sl
   10ce6:	e7a7      	b.n	10c38 <__divdi3+0x2a4>
   10ce8:	4543      	cmp	r3, r8
   10cea:	bf84      	itt	hi
   10cec:	f10b 3bff 	addhi.w	fp, fp, #4294967295
   10cf0:	44a0      	addhi	r8, r4
   10cf2:	e74f      	b.n	10b94 <__divdi3+0x200>

00010cf4 <__udivdi3>:
   10cf4:	e92d 4ff0 	stmdb	sp!, {r4, r5, r6, r7, r8, r9, sl, fp, lr}
   10cf8:	4605      	mov	r5, r0
   10cfa:	b083      	sub	sp, #12
   10cfc:	460c      	mov	r4, r1
   10cfe:	4617      	mov	r7, r2
   10d00:	4680      	mov	r8, r0
   10d02:	460e      	mov	r6, r1
   10d04:	2b00      	cmp	r3, #0
   10d06:	d14d      	bne.n	10da4 <__udivdi3+0xb0>
   10d08:	428a      	cmp	r2, r1
   10d0a:	d961      	bls.n	10dd0 <__udivdi3+0xdc>
   10d0c:	fab2 f382 	clz	r3, r2
   10d10:	b153      	cbz	r3, 10d28 <__udivdi3+0x34>
   10d12:	f1c3 0420 	rsb	r4, r3, #32
   10d16:	fa11 f603 	lsls.w	r6, r1, r3
   10d1a:	fa30 f204 	lsrs.w	r2, r0, r4
   10d1e:	409f      	lsls	r7, r3
   10d20:	ea42 0606 	orr.w	r6, r2, r6
   10d24:	fa00 f803 	lsl.w	r8, r0, r3
   10d28:	0c3c      	lsrs	r4, r7, #16
   10d2a:	4630      	mov	r0, r6
   10d2c:	4621      	mov	r1, r4
   10d2e:	fa1f fa87 	uxth.w	sl, r7
   10d32:	f7fe fc7d 	bl	f630 <__aeabi_uidiv>
   10d36:	4621      	mov	r1, r4
   10d38:	4681      	mov	r9, r0
   10d3a:	4630      	mov	r0, r6
   10d3c:	f7fe fda6 	bl	f88c <__aeabi_uidivmod>
   10d40:	ea4f 4018 	mov.w	r0, r8, lsr #16
   10d44:	fb0a f309 	mul.w	r3, sl, r9
   10d48:	ea40 4601 	orr.w	r6, r0, r1, lsl #16
   10d4c:	42b3      	cmp	r3, r6
   10d4e:	d908      	bls.n	10d62 <__udivdi3+0x6e>
   10d50:	19f6      	adds	r6, r6, r7
   10d52:	f109 39ff 	add.w	r9, r9, #4294967295
   10d56:	d204      	bcs.n	10d62 <__udivdi3+0x6e>
   10d58:	42b3      	cmp	r3, r6
   10d5a:	bf84      	itt	hi
   10d5c:	f109 39ff 	addhi.w	r9, r9, #4294967295
   10d60:	19f6      	addhi	r6, r6, r7
   10d62:	1af6      	subs	r6, r6, r3
   10d64:	4621      	mov	r1, r4
   10d66:	4630      	mov	r0, r6
   10d68:	fa1f f888 	uxth.w	r8, r8
   10d6c:	f7fe fc60 	bl	f630 <__aeabi_uidiv>
   10d70:	4621      	mov	r1, r4
   10d72:	4605      	mov	r5, r0
   10d74:	4630      	mov	r0, r6
   10d76:	f7fe fd89 	bl	f88c <__aeabi_uidivmod>
   10d7a:	fb0a fa05 	mul.w	sl, sl, r5
   10d7e:	ea48 4801 	orr.w	r8, r8, r1, lsl #16
   10d82:	45c2      	cmp	sl, r8
   10d84:	d906      	bls.n	10d94 <__udivdi3+0xa0>
   10d86:	3d01      	subs	r5, #1
   10d88:	eb18 0807 	adds.w	r8, r8, r7
   10d8c:	d202      	bcs.n	10d94 <__udivdi3+0xa0>
   10d8e:	45c2      	cmp	sl, r8
   10d90:	bf88      	it	hi
   10d92:	3d01      	subhi	r5, #1
   10d94:	ea45 4a09 	orr.w	sl, r5, r9, lsl #16
   10d98:	2600      	movs	r6, #0
   10d9a:	4631      	mov	r1, r6
   10d9c:	4650      	mov	r0, sl
   10d9e:	b003      	add	sp, #12
   10da0:	e8bd 8ff0 	ldmia.w	sp!, {r4, r5, r6, r7, r8, r9, sl, fp, pc}
   10da4:	428b      	cmp	r3, r1
   10da6:	d85b      	bhi.n	10e60 <__udivdi3+0x16c>
   10da8:	fab3 f683 	clz	r6, r3
   10dac:	2e00      	cmp	r6, #0
   10dae:	d15a      	bne.n	10e66 <__udivdi3+0x172>
   10db0:	428b      	cmp	r3, r1
   10db2:	f04f 0a01 	mov.w	sl, #1
   10db6:	bf2c      	ite	cs
   10db8:	2400      	movcs	r4, #0
   10dba:	2401      	movcc	r4, #1
   10dbc:	4282      	cmp	r2, r0
   10dbe:	bf8c      	ite	hi
   10dc0:	4625      	movhi	r5, r4
   10dc2:	f044 0501 	orrls.w	r5, r4, #1
   10dc6:	2d00      	cmp	r5, #0
   10dc8:	d1e7      	bne.n	10d9a <__udivdi3+0xa6>
   10dca:	462e      	mov	r6, r5
   10dcc:	46aa      	mov	sl, r5
   10dce:	e7e4      	b.n	10d9a <__udivdi3+0xa6>
   10dd0:	b922      	cbnz	r2, 10ddc <__udivdi3+0xe8>
   10dd2:	2001      	movs	r0, #1
   10dd4:	4611      	mov	r1, r2
   10dd6:	f7fe fc2b 	bl	f630 <__aeabi_uidiv>
   10dda:	4607      	mov	r7, r0
   10ddc:	fab7 f387 	clz	r3, r7
   10de0:	2b00      	cmp	r3, #0
   10de2:	f040 80b6 	bne.w	10f52 <__udivdi3+0x25e>
   10de6:	1be4      	subs	r4, r4, r7
   10de8:	ea4f 4b17 	mov.w	fp, r7, lsr #16
   10dec:	b2bd      	uxth	r5, r7
   10dee:	2601      	movs	r6, #1
   10df0:	4659      	mov	r1, fp
   10df2:	4620      	mov	r0, r4
   10df4:	f7fe fc1c 	bl	f630 <__aeabi_uidiv>
   10df8:	4659      	mov	r1, fp
   10dfa:	ea4f 4918 	mov.w	r9, r8, lsr #16
   10dfe:	4682      	mov	sl, r0
   10e00:	4620      	mov	r0, r4
   10e02:	f7fe fd43 	bl	f88c <__aeabi_uidivmod>
   10e06:	fb05 f30a 	mul.w	r3, r5, sl
   10e0a:	ea49 4401 	orr.w	r4, r9, r1, lsl #16
   10e0e:	42a3      	cmp	r3, r4
   10e10:	d908      	bls.n	10e24 <__udivdi3+0x130>
   10e12:	19e4      	adds	r4, r4, r7
   10e14:	f10a 3aff 	add.w	sl, sl, #4294967295
   10e18:	d204      	bcs.n	10e24 <__udivdi3+0x130>
   10e1a:	42a3      	cmp	r3, r4
   10e1c:	bf84      	itt	hi
   10e1e:	f10a 3aff 	addhi.w	sl, sl, #4294967295
   10e22:	19e4      	addhi	r4, r4, r7
   10e24:	1ae4      	subs	r4, r4, r3
   10e26:	4659      	mov	r1, fp
   10e28:	4620      	mov	r0, r4
   10e2a:	f7fe fc01 	bl	f630 <__aeabi_uidiv>
   10e2e:	4659      	mov	r1, fp
   10e30:	4681      	mov	r9, r0
   10e32:	4620      	mov	r0, r4
   10e34:	f7fe fd2a 	bl	f88c <__aeabi_uidivmod>
   10e38:	fa1f f388 	uxth.w	r3, r8
   10e3c:	fb05 f509 	mul.w	r5, r5, r9
   10e40:	ea43 4801 	orr.w	r8, r3, r1, lsl #16
   10e44:	4545      	cmp	r5, r8
   10e46:	d908      	bls.n	10e5a <__udivdi3+0x166>
   10e48:	eb18 0807 	adds.w	r8, r8, r7
   10e4c:	f109 39ff 	add.w	r9, r9, #4294967295
   10e50:	d203      	bcs.n	10e5a <__udivdi3+0x166>
   10e52:	4545      	cmp	r5, r8
   10e54:	bf88      	it	hi
   10e56:	f109 39ff 	addhi.w	r9, r9, #4294967295
   10e5a:	ea49 4a0a 	orr.w	sl, r9, sl, lsl #16
   10e5e:	e79c      	b.n	10d9a <__udivdi3+0xa6>
   10e60:	2600      	movs	r6, #0
   10e62:	46b2      	mov	sl, r6
   10e64:	e799      	b.n	10d9a <__udivdi3+0xa6>
   10e66:	f1c6 0120 	rsb	r1, r6, #32
   10e6a:	40b3      	lsls	r3, r6
   10e6c:	fa32 f701 	lsrs.w	r7, r2, r1
   10e70:	fa24 f901 	lsr.w	r9, r4, r1
   10e74:	431f      	orrs	r7, r3
   10e76:	40b4      	lsls	r4, r6
   10e78:	fa30 f301 	lsrs.w	r3, r0, r1
   10e7c:	4648      	mov	r0, r9
   10e7e:	ea4f 4817 	mov.w	r8, r7, lsr #16
   10e82:	ea43 0104 	orr.w	r1, r3, r4
   10e86:	9101      	str	r1, [sp, #4]
   10e88:	4641      	mov	r1, r8
   10e8a:	40b2      	lsls	r2, r6
   10e8c:	9200      	str	r2, [sp, #0]
   10e8e:	f7fe fbcf 	bl	f630 <__aeabi_uidiv>
   10e92:	4641      	mov	r1, r8
   10e94:	b2bc      	uxth	r4, r7
   10e96:	4682      	mov	sl, r0
   10e98:	4648      	mov	r0, r9
   10e9a:	f7fe fcf7 	bl	f88c <__aeabi_uidivmod>
   10e9e:	9801      	ldr	r0, [sp, #4]
   10ea0:	fb04 f30a 	mul.w	r3, r4, sl
   10ea4:	ea4f 4b10 	mov.w	fp, r0, lsr #16
   10ea8:	ea4b 4b01 	orr.w	fp, fp, r1, lsl #16
   10eac:	455b      	cmp	r3, fp
   10eae:	d905      	bls.n	10ebc <__udivdi3+0x1c8>
   10eb0:	eb1b 0b07 	adds.w	fp, fp, r7
   10eb4:	f10a 3aff 	add.w	sl, sl, #4294967295
   10eb8:	f0c0 8093 	bcc.w	10fe2 <__udivdi3+0x2ee>
   10ebc:	ebc3 0b0b 	rsb	fp, r3, fp
   10ec0:	4641      	mov	r1, r8
   10ec2:	4658      	mov	r0, fp
   10ec4:	f7fe fbb4 	bl	f630 <__aeabi_uidiv>
   10ec8:	4641      	mov	r1, r8
   10eca:	4681      	mov	r9, r0
   10ecc:	4658      	mov	r0, fp
   10ece:	f7fe fcdd 	bl	f88c <__aeabi_uidivmod>
   10ed2:	9801      	ldr	r0, [sp, #4]
   10ed4:	fb04 f409 	mul.w	r4, r4, r9
   10ed8:	fa1f fc80 	uxth.w	ip, r0
   10edc:	ea4c 4301 	orr.w	r3, ip, r1, lsl #16
   10ee0:	429c      	cmp	r4, r3
   10ee2:	d903      	bls.n	10eec <__udivdi3+0x1f8>
   10ee4:	19db      	adds	r3, r3, r7
   10ee6:	f109 39ff 	add.w	r9, r9, #4294967295
   10eea:	d374      	bcc.n	10fd6 <__udivdi3+0x2e2>
   10eec:	9f00      	ldr	r7, [sp, #0]
   10eee:	ea49 4a0a 	orr.w	sl, r9, sl, lsl #16
   10ef2:	1b1c      	subs	r4, r3, r4
   10ef4:	fa1f fe8a 	uxth.w	lr, sl
   10ef8:	b2b8      	uxth	r0, r7
   10efa:	0c3a      	lsrs	r2, r7, #16
   10efc:	ea4f 471a 	mov.w	r7, sl, lsr #16
   10f00:	fb00 fc0e 	mul.w	ip, r0, lr
   10f04:	fb00 f307 	mul.w	r3, r0, r7
   10f08:	fb02 310e 	mla	r1, r2, lr, r3
   10f0c:	fb02 f207 	mul.w	r2, r2, r7
   10f10:	eb01 411c 	add.w	r1, r1, ip, lsr #16
   10f14:	428b      	cmp	r3, r1
   10f16:	bf88      	it	hi
   10f18:	f502 3280 	addhi.w	r2, r2, #65536	; 0x10000
   10f1c:	eb02 4e11 	add.w	lr, r2, r1, lsr #16
   10f20:	4574      	cmp	r4, lr
   10f22:	d312      	bcc.n	10f4a <__udivdi3+0x256>
   10f24:	ea4f 4101 	mov.w	r1, r1, lsl #16
   10f28:	fa1f f28c 	uxth.w	r2, ip
   10f2c:	bf14      	ite	ne
   10f2e:	2300      	movne	r3, #0
   10f30:	2301      	moveq	r3, #1
   10f32:	eb01 0c02 	add.w	ip, r1, r2
   10f36:	fa15 f606 	lsls.w	r6, r5, r6
   10f3a:	4566      	cmp	r6, ip
   10f3c:	bf2c      	ite	cs
   10f3e:	2600      	movcs	r6, #0
   10f40:	f003 0601 	andcc.w	r6, r3, #1
   10f44:	2e00      	cmp	r6, #0
   10f46:	f43f af28 	beq.w	10d9a <__udivdi3+0xa6>
   10f4a:	f10a 3aff 	add.w	sl, sl, #4294967295
   10f4e:	2600      	movs	r6, #0
   10f50:	e723      	b.n	10d9a <__udivdi3+0xa6>
   10f52:	409f      	lsls	r7, r3
   10f54:	f1c3 0120 	rsb	r1, r3, #32
   10f58:	fa34 f601 	lsrs.w	r6, r4, r1
   10f5c:	fa14 f203 	lsls.w	r2, r4, r3
   10f60:	ea4f 4b17 	mov.w	fp, r7, lsr #16
   10f64:	fa25 fa01 	lsr.w	sl, r5, r1
   10f68:	4630      	mov	r0, r6
   10f6a:	4659      	mov	r1, fp
   10f6c:	fa05 f803 	lsl.w	r8, r5, r3
   10f70:	ea4a 0a02 	orr.w	sl, sl, r2
   10f74:	f7fe fb5c 	bl	f630 <__aeabi_uidiv>
   10f78:	4659      	mov	r1, fp
   10f7a:	b2bd      	uxth	r5, r7
   10f7c:	4681      	mov	r9, r0
   10f7e:	4630      	mov	r0, r6
   10f80:	f7fe fc84 	bl	f88c <__aeabi_uidivmod>
   10f84:	ea4f 4c1a 	mov.w	ip, sl, lsr #16
   10f88:	fb05 f309 	mul.w	r3, r5, r9
   10f8c:	ea4c 4401 	orr.w	r4, ip, r1, lsl #16
   10f90:	42a3      	cmp	r3, r4
   10f92:	d903      	bls.n	10f9c <__udivdi3+0x2a8>
   10f94:	19e4      	adds	r4, r4, r7
   10f96:	f109 39ff 	add.w	r9, r9, #4294967295
   10f9a:	d328      	bcc.n	10fee <__udivdi3+0x2fa>
   10f9c:	1ae4      	subs	r4, r4, r3
   10f9e:	4659      	mov	r1, fp
   10fa0:	4620      	mov	r0, r4
   10fa2:	f7fe fb45 	bl	f630 <__aeabi_uidiv>
   10fa6:	4659      	mov	r1, fp
   10fa8:	4606      	mov	r6, r0
   10faa:	4620      	mov	r0, r4
   10fac:	f7fe fc6e 	bl	f88c <__aeabi_uidivmod>
   10fb0:	fa1f f48a 	uxth.w	r4, sl
   10fb4:	fb05 f306 	mul.w	r3, r5, r6
   10fb8:	ea44 4401 	orr.w	r4, r4, r1, lsl #16
   10fbc:	42a3      	cmp	r3, r4
   10fbe:	d906      	bls.n	10fce <__udivdi3+0x2da>
   10fc0:	3e01      	subs	r6, #1
   10fc2:	19e4      	adds	r4, r4, r7
   10fc4:	d203      	bcs.n	10fce <__udivdi3+0x2da>
   10fc6:	42a3      	cmp	r3, r4
   10fc8:	d901      	bls.n	10fce <__udivdi3+0x2da>
   10fca:	3e01      	subs	r6, #1
   10fcc:	19e4      	adds	r4, r4, r7
   10fce:	1ae4      	subs	r4, r4, r3
   10fd0:	ea46 4609 	orr.w	r6, r6, r9, lsl #16
   10fd4:	e70c      	b.n	10df0 <__udivdi3+0xfc>
   10fd6:	429c      	cmp	r4, r3
   10fd8:	bf84      	itt	hi
   10fda:	f109 39ff 	addhi.w	r9, r9, #4294967295
   10fde:	19db      	addhi	r3, r3, r7
   10fe0:	e784      	b.n	10eec <__udivdi3+0x1f8>
   10fe2:	455b      	cmp	r3, fp
   10fe4:	bf84      	itt	hi
   10fe6:	f10a 3aff 	addhi.w	sl, sl, #4294967295
   10fea:	44bb      	addhi	fp, r7
   10fec:	e766      	b.n	10ebc <__udivdi3+0x1c8>
   10fee:	42a3      	cmp	r3, r4
   10ff0:	bf84      	itt	hi
   10ff2:	f109 39ff 	addhi.w	r9, r9, #4294967295
   10ff6:	19e4      	addhi	r4, r4, r7
   10ff8:	e7d0      	b.n	10f9c <__udivdi3+0x2a8>
   10ffa:	bf00      	nop
